Zb:_glClearStencil
Xmf:_UInt16_System_IConvertible_ToChar_m2096055221_AdjustorThunk
o7e:_Array_TrueForAll_TisRuntimeObject_m1084992726_gshared
dxh:__ZN6il2cpp2vm5Array13GetByteLengthEP11Il2CppArray
gSg:_KeyBuilder_get_Rng_m3373220441
Lga:__Z30GetIntermediateRendererManagerv
wAa:__Z21SourceMipLevelForBlitiiii
qFa:__Z23SetSpriteMeshIndexCountP14SharedMeshDataj
okf:_TimeSpan_get_Hours_m550761902
X1b:__ZN9ShaderLab9SubShader15FindNamedPassesERKN4core12basic_stringIcNS1_20StringStorageDefaultIcEEEER13dynamic_arrayIPNS_4PassELj0EE
U8f:__ZL63PlayableOutputHandle_t4208053793_CustomAttributesCacheGeneratorP21CustomAttributesCache
PI:__ZN11UnityEngine15CloudWebService26CloudServiceEventWithParam12ToJsonStringER9JSONWrite
l9c:_UnmanagedMemoryStream_Write_m930787521
h6b:__Z59Register_UnityEngine_PlayerConnectionInternal_DisconnectAllv
Cr:__ZN11UnityEngine9Animation28GenericAnimationBindingCacheD2Ev
_If:_X509Store_LoadCrl_m1881903843
UTb:__Z18RestoreRenderStateR20CameraRenderOldStateR17ShaderPassContext
hib:__Z18Transfer_BlittableI18StreamedBinaryReadILb1EELb1E5RectTIfEEvRK29SerializationCommandArgumentsR31RuntimeSerializationCommandInfo
Wdb:__Z18Transfer_BlittableI24GenerateTypeTreeTransferLb0E11ColorRGBA32EvRK29SerializationCommandArgumentsR31RuntimeSerializationCommandInfo
$mb:__Z25scripting_class_from_name17ScriptingImagePtrPKcS1_
fcf:_Array_InternalArray__Insert_TisSingle_t1397266774_m3161726127_gshared
Whh:__ZN14dense_hash_mapI10KeyWrapperINSt3__24pairIPK12PropertyInfoP11Il2CppClassEEEj17ReflectionMapHashIS8_ENS9_14EqualsComparerINS1_8equal_toIS8_EEEENS1_9allocatorINS2_IKS9_jEEEEE15set_deleted_keyERSH_
Tob:__Z29scripting_class_enum_basetype17ScriptingClassPtr
Euc:__ZN16PhysicsManager2D7RaycastERK3RayfiR12RaycastHit2D
L2:__ZL43__ManagedRegistrationHelperFunction_TexturePv
KXa:__ZNK20LocalFileSystemPosix6ParentERK13FileEntryDataRN4core12basic_stringIcNS3_20StringStorageDefaultIcEEEE
pbd:_MonoType_IsPrimitiveImpl_m2401722705
hRd:_SHA1CryptoServiceProvider__ctor_m4195188793
Z5:__ZN9Scripting11UnityEngine9Profiling8Recorder12CleanupProxyEv
hmb:__ZN18StreamedBinaryReadILb0EE21TransferSTLStyleArrayI13dynamic_arrayI11ColorRGBA32Lj0EEEEvRT_17TransferMetaFlags
jBa:__ZN9Texture2D25CreateScaledAndPaddedDataEPP17SharedTextureDataS2_
Iyb:__ZN7ApiGLES17CopyBufferSubDataEjjlll
qbf:_Array_InternalArray__ICollection_CopyTo_TisUInt64_t4134040092_m691431926_gshared
zId:_IPAddress_ToString_m1181734207
Zjc:__ZN5Unity9rapidjson15GenericDocumentINS0_4UTF8IcEE13JSONAllocatorS4_E11ParseStreamILj1ES3_NS0_25GenericInsituStringStreamIS3_EEEERS5_RT1_
O9:__ZN9Scripting5Unity11Collections8LowLevel6Unsafe29NativeSetThreadIndexAttribute9InitProxyEv
aE:__ZN11AudioModule26SetDefaultMicrophoneDriverEPv
Wud:_Kernel_modInverse_m652700340
Aja:__ZNK15dense_hashtableINSt3__24pairIKN9ShaderLab7Program23ShaderKeywordSetAndHashEPKNS2_10SubProgramEEES4_NS3_24ShaderKeywordHashFunctorEN14dense_hash_mapIS4_S8_SA_NS0_8equal_toIS4_EE13stl_allocatorIS9_L18MemLabelIdentifier67ELi16EEE9SelectKeyESD_SG_E23find_position_with_hashERS5_j
pfe:_CompareInfo_Finalize_m404687489
Phf:_UTF8Decoder_GetChars_m1236346907
lzf:_Quaternion_GetHashCode_m2636680144_AdjustorThunk
QAh:__ZN6il2cpp8metadata13GenericMethod9GetMethodEPK19Il2CppGenericMethod
Qp:__ZNSt3__26vectorIN4core12basic_stringIcNS1_20StringStorageDefaultIcEEEENS_9allocatorIS5_EEE7reserveEj
Pfd:_Default_SelectProperty_m1220817815
Jld:_RemotingConfiguration_IsRemotelyActivatedClientType_m4117048589
Hub:__ZN13GfxDeviceGLES11SetViewportERK5RectTIiE
qd:_emscripten_glDepthRange
yDf:_SslStreamBase_BeginNegotiateHandshake_m4180435790
LKc:__ZN9Scripting11UnityEngine10UILineInfo12CleanupProxyEv
lWb:__ZNSt3__26vectorINS_4pairIN4core12basic_stringIcNS2_20StringStorageDefaultIcEEEES6_EE13stl_allocatorIS7_L18MemLabelIdentifier38ELi16EEE12__move_rangeEPS7_SC_SC_
w_b:__Z14resize_trimmedINSt3__26vectorIN9ShaderLab20SerializedSubProgram12UAVParameterENS0_9allocatorIS4_EEEEEvRT_j
dkc:__ZN5Unity9rapidjson13GenericReaderINS0_4UTF8IcEES3_13JSONAllocatorE11ParseObjectILj1ENS0_25GenericInsituStringStreamIS3_EENS0_15GenericDocumentIS3_S4_S4_EEEEvRT0_RT1_
Uwb:__ZThn10632_N13GfxDeviceGLES22SetScissorRectPlatformERK5RectTIiE
gEf:_SslStreamBase_EndWrite_m4073224031
FU:__ZNSt3__218__insertion_sort_3IRNS_6__lessI14ObjectLoadDataS2_EEPS2_EEvT0_S6_T_
f3:__ZL50__ManagedRegistrationHelperFunction_PostLateUpdatePv
Zza:__ZN4crndL20crnd_default_reallocEPvjPjbS0_
yGa:__ZN18SpriteAtlasManager19AddRequestingSpriteE4PPtrI6SpriteE
tOc:__ZNSt3__26__treeINS_12__value_typeIN4core12basic_stringIcNS2_20StringStorageDefaultIcEEEE14CallbackArray3IRKS6_R8JSONReadbEEENS_19__map_value_compareIS6_SD_NS_4lessIS6_EELb1EEE13stl_allocatorISD_L18MemLabelIdentifier6ELi16EEE25__emplace_unique_key_argsIS6_JNS_4pairIS6_SC_EEEEENSN_INS_15__tree_iteratorISD_PNS_11__tree_nodeISD_PvEEiEEbEERKT_DpOT0_
ZSb:__ZN23ScriptableRenderContextC2Ev
cfg:_List_1_CheckIndex_m581273900_gshared
Iib:__Z18Transfer_BlittableI18StreamedBinaryReadILb1EELb1EdEvRK29SerializationCommandArgumentsR31RuntimeSerializationCommandInfo
_ob:__Z26BuildSerializationCacheFor17ScriptingClassPtrRb
EAb:__ZN7ApiGLES15BlitFramebufferEN2gl6HandleILNS0_10ObjectTypeE9EEENS0_15FramebufferReadES3_S3_iiiiiiiiNS0_15FramebufferTypeE
PEg:__Z112RuntimeInvoker_RuntimeObject_RuntimeObject_RuntimeObject_RuntimeObject_RuntimeObject_RuntimeObject_RuntimeObjectPFvvEPK10MethodInfoPvPS4_
p8f:__ZL60ReadOnlyAttribute_t3518714744_CustomAttributesCacheGeneratorP21CustomAttributesCache
C4d:_Array_SetValue_m3998268557
yqc:__ZN8JSONRead8TransferI8Vector4fEEvRT_PKc17TransferMetaFlagsb
RCd:_Context_EndSwitchingSecurityParameters_m4148956166
XSd:_ToBase64Transform_InternalTransformFinalBlock_m360524956
Dph:__ZN6il2cpp2vm9Exception25RaiseOutOfMemoryExceptionERKNS_5utils10StringViewIDsEEP19Il2CppSequencePoint
bah:__ZN6il2cpp6icalls8mscorlib6SystemL8IsStaticEPK12PropertyInfo
dqb:__Z9InitInputv
rfa:__ZN17TransformInternal36OnScaleChangedCalculateTransformTypeE15TransformAccess
sdh:__ZN6il2cpp2gc19AppendOnlyGCHashMapINSt3__24pairIPK10MethodInfoP11Il2CppClassEEP22Il2CppReflectionMethod17ReflectionMapHashIS9_ENS2_8equal_toIS9_EEE3AddERKS9_SB_
J$a:__ZN16MemoryFileSystem6DeleteER13FileEntryDatab
hyg:__Z81RuntimeInvoker_Void_t1185182177_RuntimeObject_Int64_t3736567304_Int32_t2950945753PFvvEPK10MethodInfoPvPS4_
$fg:_List_1_set_Item_m1979164443_gshared
fxa:__ZL21BlitScaleStbImageImplRK14ImageReferenceRS_NS_10ColorSpaceE
T6d:_Boolean_System_IConvertible_ToUInt16_m3465173538_AdjustorThunk
hs:__ZL48__ManagedRegistrationHelperFunction_SkeletonBonePv
M9a:__Z29Transfer_Blittable_ArrayFieldI14SafeBinaryReadyEvRT_R9ArrayInfoRK23StaticTransferFieldInfo
gMg:_Match__ctor_m2425511580
b_a:__ZNK25MultiBlocksMemoryFileData5CloneEv
AGh:_GC_add_ext_descriptor
Jbh:__ZNK15dense_hashtableINSt3__24pairIK10KeyWrapperINS1_IPK14Il2CppAssemblyP11Il2CppClassEEEjEES9_17ReflectionMapHashIS8_EN14dense_hash_mapIS9_jSD_NS9_14EqualsComparerINS0_8equal_toIS8_EEEENS0_9allocatorISB_EEE9SelectKeyESI_SK_E23find_position_with_hashERSA_j
urd:_CryptoConfig_CreateFromName_m1538277313
bRh:dynCall_iiiiiiiiiiii
ro:__ZN9Scripting11UnityEngine2AI18NavMeshBuildSource9InitProxyEv
iMc:__ZN18UnityConnectClient16IsServiceEnabledEv
M8:__ZN9Scripting11UnityEngine10ColorGamut9InitProxyEv
h0a:__ZN22VertexDeclarationCacheD0Ev
A$:__ZN6prcoreL17RemapGenericFloatI16TexFormatRGFloat17TexFormatRGBAHalfEEvPKNS_9InnerInfoE
kB:__ZN12AudioManager22CreateFMODSoundFromWWWEP10IWWWStream15FMOD_SOUND_TYPE17FMOD_SOUND_FORMATjjbbP10SampleClip
Zcc:__ZNK32RendererMaterialAnimationBinding15GenerateBindingERKN4core12basic_stringIcNS0_20StringStorageDefaultIcEEEEbRN11UnityEngine9Animation14GenericBindingE
G_c:_TargetException__ctor_m4172127019
SS:__ZN8Remapper23GetOrGenerateInstanceIDERK26SerializedObjectIdentifier
evg:__Z85RuntimeInvoker_Void_t1185182177_Int32_t2950945753_Int32_t2950945753_Int32_t2950945753PFvvEPK10MethodInfoPvPS4_
SMd:_X509Chain__ctor_m2878811474
u4a:__ZN11TextureData17GetImageReferenceEii
Zdd:_CustomInfo__ctor_m426096741
IFa:__ZN6Sprite8TransferI24GenerateTypeTreeTransferEEvRT_
Y7c:_SoapTypeAttribute_get_IsInteropXmlType_m629667929
Mgd:_ConstructorBuilder_get_IsCompilerContext_m3364441562
xwa:__ZNK18DelayedCallManager22GetTypeVirtualInternalEv
NFa:__ZN7SubMesh8TransferI24GenerateTypeTreeTransferEEvRT_
u9g:__ZN6il2cpp6icalls8mscorlib6SystemL16CheckMemberMatchI9FieldInfoNS_5utils10functional6FilterINSt3__212basic_stringIcNS8_11char_traitsIcEENS8_9allocatorIcEEEENS5_13VmStringUtils23CaseInsensitiveComparerEEEEEbPKT_PK11Il2CppClassSN_iRKT0_
Pne:_DirectoryInfo__ctor_m126519516
WWc:_MethodBase_GetMethodFromIntPtr_m3014201362
enc:__ZN9JSONWrite8TransferI13dynamic_arrayIaLj0EEEEvRT_PKc17TransferMetaFlags
mte:_Enumerator_MoveNext_m635366482
w1d:_X509Extension_Equals_m1222951829
yuh:__ZN6il2cpp8metadata15GenericMetadata15GetGenericClassEiPK17Il2CppGenericInst
l8a:__Z18Transfer_BlittableI14SafeBinaryReadLb0E10Matrix4x4fEvRK29SerializationCommandArgumentsR31RuntimeSerializationCommandInfo
pob:__Z24GetFixedBehaviourManagerv
Z8g:__ZN6il2cpp2vm10ThreadPool4WaitEP17Il2CppAsyncResultPPv
K2d:_Activator_CreateInstance_m94526014
AMh:_vfprintf
u4:__ZL53__ManagedRegistrationHelperFunction_StackTraceUtilityPv
Bte:_Stack_Clear_m2010200235
UDg:__Z68RuntimeInvoker_Void_t1185182177_UInt16_t2177724958_SByte_t1669577662PFvvEPK10MethodInfoPvPS4_
Mof:_UInt64_System_IConvertible_ToChar_m2074245892
XIb:__ZN20DynamicPropertySheetD0Ev
i1c:_SafeHandle_Dispose_m4229010569
pWb:__ZN14SafeBinaryRead17RegisterConverterEPKcS1_PFbPvRS_E
jL:__ZN35RegisterRuntimeInitializeAndCleanup8RegisterEPFvPvES2_iS0_
aid:_FieldBuilder_SetValue_m828035213
Cic:__Z21Object_CUSTOM_DestroyP12Il2CppObjectf
GFb:__ZN8Material26ResetAllCachedMaterialDataEP6Shader
Rod:_ObjectManager_AddFixup_m2154325362
ZRe:_Comparer_1__cctor_m3761458313_gshared
GBe:_DateTimeOffset_CompareTo_m1350732322_AdjustorThunk
ba:invoke_diddi
Ytf:_PersistentCall__ctor_m1217622171
x5e:_StrongName_get_TokenAlgorithm_m1794722022
w7a:__Z18Transfer_BlittableI14SafeBinaryReadLb0EiEvRK29SerializationCommandArgumentsR31RuntimeSerializationCommandInfo
J6g:__ZN6il2cpp2vm13MetadataCache30GetPropertyDefinitionFromIndexEi
oSg:_SymmetricTransform_Transform_m1683494363
Gzf:_Rect_Contains_m1232228501
lPc:__ZN22BaseUnityConnectClient17InitializeSessionERKN4core12basic_stringIcNS0_20StringStorageDefaultIcEEEES6_N19CloudServiceHandler13InitModeFlagsE
DGg:__Z74RuntimeInvoker_RuntimeObject_Int32_t2950945753_RuntimeObject_RuntimeObjectPFvvEPK10MethodInfoPvPS4_
oWh:_emscripten_glDeleteBuffers__wrapper
chc:__ZN13MonoBehaviour34StopCoroutineFromEnumeratorManagedE18ScriptingObjectPtr
qs:__ZN9Scripting11UnityEngine9HumanBone12CleanupProxyEv
QPa:__ZN30RuntimeInitializeOnLoadManager8TransferI18StreamedBinaryReadILb0EEEEvRT_
vve:_DateTimeOffset__ctor_m2084804982
l5b:__ZL34GetComponentsImplementationRecurseILb1ELi0ELi2EEbR10GameObjectbRK17CompareParametersRK39GetComponentsImplementation_ReturnValue
vDc:__ZN10ClipperLib7Clipper24InsertLocalMinimaIntoAELEx
wUa:__ZN20ComputeShaderVariantD2Ev
Rsg:__Z64RuntimeInvoker_RuntimeObject_Int32_t2950945753_Int16_t2552820387PFvvEPK10MethodInfoPvPS4_
RYe:_EqualityComparer_1__cctor_m4244842342_gshared
qIb:__ZNK6Camera18WorldToScreenPointERK8Vector3fPb
yAf:_SendMouseEvents_DoSendMouseEvents_m2140870850
fNg:_PatternCompiler_EmitJump_m3915926156
dub:__Z18IsCompressedFormat14GraphicsFormat
KYc:_MonoMethod_GetBaseDefinition_m2844667474
Dkf:__Z33il2cpp_codegen_check_add_overflowxx
WQ:__ZNSt3__227__insertion_sort_incompleteIRPFbRKN18AwakeFromLoadQueue4ItemES4_EPS2_EEbT0_S9_T_
UNh:_strrchr
gne:_InvalidOperationException__ctor_m1685032583
J4g:__ZN14dense_hash_mapI10KeyWrapperIN6il2cpp5utils13dynamic_arrayIPK10Il2CppTypeLj4EEEEPFvvENS1_8metadata19Il2CppSignatureHashENS8_14EqualsComparerINSB_22Il2CppSignatureCompareEEENSt3__29allocatorINSG_4pairIKS8_SA_EEEEE15set_deleted_keyERSJ_
jlf:_TimeSpan_op_Subtraction_m3592306516
pEa:__ZN26EnlightenSystemInformation8TransferI14SafeBinaryReadEEvRT_
bdg:__ZL67ContactFilter2D_t3805203441_CustomAttributesCacheGenerator_maxDepthP21CustomAttributesCache
EQa:__ZN24GenerateTypeTreeTransfer8TransferINSt3__26vectorIN15ResourceManager10DependencyE13stl_allocatorIS4_L18MemLabelIdentifier52ELi16EEEEEEvRT_PKc17TransferMetaFlags
jia:__ZN27PerObjectLightCullingOutputD2Ev
hMa:__ZN12MeshRendererD0Ev
tC:__ZN12AudioManager35GetCurrentSpatializerDefinitionNameEv
J4:__ZN9Scripting11UnityEngine14WaitForSeconds9InitProxyEv
bh:_utime
S8f:__ZL56PlayableGraph_t3515989261_CustomAttributesCacheGeneratorP21CustomAttributesCache
yPg:_BalancingGroup_Compile_m2575117193
ejh:__ZNSt3__26vectorIN6il2cpp2vm17TypeNameParseInfoENS_9allocatorIS3_EEE8allocateEj
vs:__ZN9Scripting11UnityEngine22AnimatorTransitionInfo9InitProxyEv
bMg:_Mark_get_Index_m3048692661_AdjustorThunk
Lm:FUNCTION_TABLE_viiiiif
Qm:FUNCTION_TABLE_viiiiii
ble:_Int32_System_IConvertible_ToType_m3009233912_AdjustorThunk
wve:_DateTimeOffset__ctor_m74032857
dmf:_Type_type_is_assignable_from_m76737532
Ljc:__ZN9Scripting11UnityEngine14GUILayoutGroup12CleanupProxyEv
IPa:__ZNSt3__26vectorIN4core12basic_stringIcNS1_20StringStorageDefaultIcEEEE13stl_allocatorIS5_L18MemLabelIdentifier13ELi16EEE8__appendEj
OJ:__ZN19CloudServiceHandler20StartEventDispatcherERKN11UnityEngine15CloudWebService18CloudServiceConfigERNS1_23WebRequestRestHeaderMapE
Svc:__ZN24b2ChainAndCapsuleContact8EvaluateEP10b2ManifoldRK11b2TransformS4_
cTe:_Enumerator_get_CurrentValue_m3103267885_gshared
Yfe:_CultureInfo_get_Parent_m672689885
lLd:_X509Certificate2_GetValueAsString_m1348462142
vUh:_glGetShaderInfoLog__wrapper
Aod:_ObjectReader_ReadObjectGraph_m340866276
Gh:_emscripten_glGetTexParameteriv
H2:__ZL49__ManagedRegistrationHelperFunction_ComputeBufferPv
wMc:__ZN11UnityEngine7Connect15DeviceInfoEvent7GFXInfoD2Ev
T_b:__ZN9ShaderLab20SerializedSubProgram14ConstantBufferaSERKS1_
_f:emscriptenWebGLGetBufferBinding
jw:__ZN12AudioManager8TransferI19StreamedBinaryWriteILb0EEEEvRT_
NDf:_SslStreamBase_get_KeyExchangeStrength_m217695965
oPc:__ZN22BaseUnityConnectClient38PrepareConfigRequestOnMainThreadStaticEPS_
rCc:__ZN16CircleCollider2D10SmartResetEv
jPh:__ZNSt3__212basic_stringIcNS_11char_traitsIcEENS_9allocatorIcEEE21__grow_by_and_replaceEjjjjjjPKc
DFf:_TlsStream_Flush_m3793197834
wWa:__ZN22LocalFileSystemHandler9MakeLocalER13FileEntryDatab
rCh:__ZN6il2cpp2vm8Profiler10AllocationEP12Il2CppObjectP11Il2CppClass
R_:__Z13FormatOrderedPKcz
yah:__ZN6il2cpp2vm8basepathEPKc
GQe:_InternalEnumerator_1_get_Current_m1506120701_AdjustorThunk
mfe:_CompareInfo_internal_compare_m2522722857
EBd:_TlsServerFinished__ctor_m1445633918
Rdd:_NumberFormatter_FastIntegerToString_m390846811
LBh:__ZN6il2cpp2vm6String21InitializeEmptyStringEP11Il2CppClass
GLa:__ZN14CompressedMesh10GetQualityE15MeshCompression
OPb:__ZN25DeferredRenderLoopScratchD0Ev
zb:invoke_viifi
mFg:__Z83RuntimeInvoker_Void_t1185182177_RuntimeObject_Single_t1397266774_Single_t1397266774PFvvEPK10MethodInfoPvPS4_
isa:__ZNK13RenderTexture21GetShadowSamplingModeEv
xBf:_UnityException__ctor_m1456865679
JY:__ZN14PlayableOutput26ClearInvalidSourcePlayableEv
c_b:__ZN15dense_hashtableINSt3__24pairIKiN4core17string_with_labelILi1EEEEEi18SInt32HashFunctionN14dense_hash_mapIiS5_S7_NS0_8equal_toIiEE13stl_allocatorIS6_L18MemLabelIdentifier1ELi16EEE9SelectKeyESA_SD_E9copy_fromERKSG_j
mgd:_CustomAttributeNamedArgument_GetHashCode_m2317130892
$Pa:__ZN15ResourceManagerD0Ev
Nja:__ZN22CreateGpuProgramOutputD2Ev
jRd:_SHA1CryptoServiceProvider_Finalize_m1793183797
zD:__ZN14AudioBehaviourC2E10MemLabelId18ObjectCreationMode
LWa:__ZN12HandlerChain4OpenER13FileEntryData14FilePermission16FileAutoBehavior
Aaf:_Array_InternalArray__ICollection_Add_TisPlayerLoopSystem_t105772105_m1930641144_gshared
wdh:__ZN15dense_hashtableINSt3__24pairIK10KeyWrapperINS1_IPK10MethodInfoP11Il2CppClassEEEjEES9_17ReflectionMapHashIS8_EN14dense_hash_mapIS9_jSD_NS9_14EqualsComparerINS0_8equal_toIS8_EEEENS0_9allocatorISB_EEE9SelectKeyESI_SK_E6insertERKSB_
$u:__ZL55__ManagedRegistrationHelperFunction_AudioPlayableOutputPv
A4d:_Array_SetValue_m394135409
_T:__ZN14FileCacherReadD2Ev
VSa:__ZN13RendererScene23UpdatePreviousFrameDataEii
CYd:_String_Remove_m562998446
X4b:__Z50Register_UnityEngine_CullingGroup_FinalizerFailurev
ZTd:_SecurityPermission_IsSubsetOf_m545000671
V2b:__ZN12ShaderErrors11ShaderErrorC2EOS0_
bPh:__ZNKSt3__221__basic_string_commonILb1EE20__throw_out_of_rangeEv
Y7g:_UpdatedEventHandler_Invoke_m1320302085
ZA:__ZN9AudioClip23VirtualRedirectTransferER18StreamedBinaryReadILb0EE
rz:__ZN5audio5mixer22UpdateAudioMixerMemoryERKNS0_18AudioMixerConstantERNS0_16AudioMixerMemoryEfPN4FMOD6SystemEf
fj:_glCopyTexSubImage2D
CBf:_UnitySynchronizationContext_ExecuteTasks_m1310741010
NCf:_RIPEMD160Managed_CompressFinal_m497690796
Kpb:__ZN18ScreenManagerWebGL13SetShowCursorEb
IDb:__ZN13DrawImmediateC2ER9GfxDevice
mma:__ZN18VertexChannelsInfoC2ERA12_K11ChannelInfo
h8a:__Z18Transfer_BlittableI14SafeBinaryReadLb0E5RectTIfEEvRK29SerializationCommandArgumentsR31RuntimeSerializationCommandInfo
Vdd:_NumberFormatter_NumberToString_m2562899600
FMh:_fmt_u
eJc:__ZL44__ManagedRegistrationHelperFunction_ColliderPv
k4a:__ZN18AsyncUploadManager19AsyncResourceUploadER9GfxDeviceii9TextureID
FWh:_emscripten_glGenVertexArrays__wrapper
lg:_glGetShaderiv
Hxa:__ZN6prcoreL21CreateRemapAnyBlitterE13TextureFormatS0_
uyd:_RSAManaged_ExportParameters_m1754454264
Rfc:__ZN17AnimationCurveTplIfE16StripInvalidKeysEv
c7d:_Boolean_Equals_m535526264_AdjustorThunk
Agc:__ZL12HashLen0to16PKcj
Kxc:__ZN14Raycast2DQuery8RunQueryEb
KDa:__ZN8Renderer24SetupNewRendererForSceneEv
Zlf:_Type_internal_from_name_m1721940673
lmd:_RemotingServices_GetMethodBaseFromName_m3194612939
Ioc:__Z35Transfer_Blittable_FixedBufferFieldI8JSONReadtEvRK29SerializationCommandArgumentsR31RuntimeSerializationCommandInfo
WEa:__ZNK6Sprite22GetTypeVirtualInternalEv
Y7:__ZN9Scripting11UnityEngine12Experimental9Playables22MaterialEffectPlayable9InitProxyEv
cPc:__ZNSt3__26__treeINS_12__value_typeIN4core12basic_stringIcNS2_20StringStorageDefaultIcEEEEN11UnityEngine7Connect19RemoteSettingsValueEEENS_19__map_value_compareIS6_SA_NS_4lessIS6_EELb1EEE13stl_allocatorISA_L18MemLabelIdentifier6ELi16EEE16__construct_nodeIJNS_4pairIS6_S9_EEEEENS_10unique_ptrINS_11__tree_nodeISA_PvEENS_22__tree_node_destructorISF_ISP_LSG_6ELi16EEEEEEDpOT_
Km:FUNCTION_TABLE_iiiiiiiiiiiiii
WZg:_NativePropertyAttribute__ctor_m2033094153
ipa:__ZN11Tetrahedron8TransferI24GenerateTypeTreeTransferEEvRT_
NFd:_SslClientStream_RaiseServerCertificateValidation_m3477149273
Xeb:__Z29Transfer_Blittable_ArrayFieldI24GenerateTypeTreeTransfer5RectTIiEEvRT_R9ArrayInfoRK23StaticTransferFieldInfo
uoa:__ZN16ReflectionProbes8ScheduleEN18ReflectionProbeJob7JobTypeEP15ReflectionProbei
IBd:_ClientSessionInfo_KeepAlive_m1020179566
gV:__ZN16MessageForwarder13HandleMessageEPviR11MessageData
kYa:__Z18IsDirectoryCreatedRKN4core12basic_stringIcNS_20StringStorageDefaultIcEEEE
LTd:_String_FormatHelper_m3913915042
Tfd:_ConstructorInfo__cctor_m1016079270
v1g:__ZN15dense_hashtableINSt3__24pairIK10KeyWrapperIPKcEP11Il2CppClassEES5_N6il2cpp5utils11StringUtils12StringHasherIS4_EEN14dense_hash_mapIS5_S8_SE_NS5_14EqualsComparerINSB_13VmStringUtils21CaseSensitiveComparerEEENS0_9allocatorIS9_EEE9SelectKeyESJ_SL_E15set_deleted_keyERKS9_
x2d:_AttrListImpl_get_Names_m977594476
s_:__ZNSt3__23mapIiN11TypeManager18TypeCallbackStructENS_4lessIiEENS_9allocatorINS_4pairIKiS2_EEEEEixERS7_
x_c:_Pointer_Box_m389276611
G6a:__ZNK17InstancingBatcher15RenderInstancesERK19ShaderPropertySheetRKNS_22RenderInstancesConfigsERK11MeshBuffersRK16DrawBuffersRange16VertexInputMasks
xEe:_StackTrace_get_FrameCount_m344690939
OT:__ZN13dynamic_arrayIcLj0EE6insertEPcPKcS3_
Y8c:_UnexceptionalStreamWriter_Write_m363195622
mbd:_MonoType_IsArrayImpl_m3283552941
DVg:_Physics2D_Raycast_m1700114981
Vhf:_Thread_GetCompressedStack_m2923422412
sbe:_SynchronizedArrayListWrapper_CopyTo_m4207791406
lKd:_X509BasicConstraintsExtension_ToString_m1809935297
q0a:__ZN9GfxDevice20SetMaxBufferedFramesEi
psc:__ZN10Collider2D19WakeAllBodyContactsEv
oRh:dynCall_vdd
I9c:_MethodAccessException__ctor_m3542088436
KXb:__Z23ConvertIntegerToTypePtrIsEbPvR14SafeBinaryRead
Vs:__ZN9Scripting11UnityEngine10Animations26AnimatorControllerPlayable9InitProxyEv
cuc:__ZN12b2MouseJoint11ShiftOriginERK6b2Vec2
Yfh:__ZN6il2cpp2vmL8IsMethodEP12Il2CppObject
oYe:_EqualityComparer_1_System_Collections_IEqualityComparer_GetHashCode_m2230215241_gshared
rde:_Hashtable_Contains_m2145146412
b3f:__ZL64UnmarshalledAttribute_t1517743549_CustomAttributesCacheGeneratorP21CustomAttributesCache
K1:__ZN6prcoreL29inner_stretch_rgb565_bilinearEPKNS_9InnerInfoE
yla:__Z26TransformVerticesInnerLoopILb0ELb0ELb1EEvPhRK10Matrix4x4fRK10Matrix3x3fjPKhiS8_ii25GfxTransformVerticesFlagsj
ske:_Int32_FindCurrency_m3541026887
XPd:_Interval_CompareTo_m3282557545
VOb:__ZNK14RenderSettings19GetFlatAmbientColorEv
Ska:__ZN8DrawUtil24DrawMeshRawFromNodeQueueERK15RenderNodeQueuej16VertexInputMasksi
SOa:__ZN18StreamedBinaryReadILb0EE21TransferSTLStyleArrayI10vector_mapIPKN5Unity4TypeE7Hash128NSt3__24lessIS6_EENS8_9allocatorINS8_4pairIS6_S7_EEEEEEEvRT_17TransferMetaFlags
Zdh:__ZN6il2cpp2gc19AppendOnlyGCHashMapINSt3__24pairIPK11Il2CppImageP11Il2CppClassEEP22Il2CppReflectionModule17ReflectionMapHashIS9_ENS2_8equal_toIS9_EEE11TryGetValueERKS9_PSB_
wCf:_RijndaelManagedTransform_TransformBlock_m1610137419
Ywa:__ZN14Texture2DArray17UploadToGfxDeviceEv
fy:__Z14FMODMemoryFreePvjPKc
R7:__ZN9Scripting11UnityEngine12Experimental10PlayerLoop11FixedUpdate12CleanupProxyEv
Rtf:_NetFxCoreExtensions_GetMethodInfo_m444570327
A0d:_X509CertificateEnumerator_MoveNext_m2269241175
q8d:_Char_System_IConvertible_ToDecimal_m3534906463
oFc:__ZNK13BoxCollider2D22GetTypeVirtualInternalEv
MAf:_StackTraceUtility_SetProjectFolder_m830524047
XBd:_ClientSessionInfo_Finalize_m2165787049
A$g:__ZN6il2cpp2vmL15GetBitmapNoInitEP11Il2CppClassPjRjj
UAd:_ClientContext_Clear_m1774063253
SAe:_DateTime_AddSeconds_m332574389_AdjustorThunk
kBf:_RequestAtlasCallback_Invoke_m378128467
E7d:_Byte_System_IConvertible_ToSByte_m1869482168
Ql:_emscripten_glIsTexture
vk:_emscripten_glHint
ISg:_Check_SourceAndPredicate_m2332465641
Ycg:__ZL74ContactFilter2D_t3805203441_CustomAttributesCacheGenerator_useOutsideDepthP21CustomAttributesCache
aVd:_String_op_Inequality_m215368492
dib:__Z35Transfer_Blittable_FixedBufferFieldI18StreamedBinaryReadILb1EEtEvRK29SerializationCommandArgumentsR31RuntimeSerializationCommandInfo
dof:_UInt32_System_IConvertible_ToInt64_m2261037378
Tl:_SDL_UpperBlit
poa:__Z35GetTextureDecodeValuesWithIntensity16TextureUsageMode17TextureColorSpace10ColorSpacef
jOg:_Parser_ParseRepetitionBounds_m1246581246
y6e:_Array_InternalArray__ICollection_Remove_TisChar_t3634460470_m4143749387_gshared
WDb:__ZN15dense_hashtableINSt3__24pairIK9TextureIDiEES2_14GfxGenericHashIS2_EN14GfxDoubleCacheIS2_iS6_NS0_8equal_toIS2_EEN31GfxDoubleCacheConcurrencyPolicy11LocklessGetE42GfxDoubleCacheDefaultEmptyDeletedGeneratorIS2_EE9SelectKeyES9_13stl_allocatorIS4_L18MemLabelIdentifier24ELi16EEE14squash_deletedEv
A7b:__Z13RegisterClassI14Texture2DArrayEvPKc
_tc:__ZNK12b2MouseJoint10GetAnchorAEv
Vhb:__Z18Transfer_BlittableI18StreamedBinaryReadILb1EELb0E9BoundsIntEvRK29SerializationCommandArgumentsR31RuntimeSerializationCommandInfo
hfe:_GregorianCalendar__ctor_m979779718
mFd:_SslClientStream__ctor_m2402546929
dsf:_Camera_get_pixelRect_Injected_m2326986893
zGd:_DictionaryNodeEnumerator_get_Entry_m2309234501
cU:__ZN14FileCacherRead16UnlockCacheBlockEj
mO:__ZN10InstancingL21OnGraphicsCapsChangedEv
Yjf:_WaitHandle_get_Handle_m3260446580
Nkf:_TimeSpan_Duration_m2963553230_AdjustorThunk
Hse:_SortedList__ctor_m1261191695
$lh:__ZN6il2cpp2vm6Thread28GetThreadStaticDataForThreadEiP12Il2CppThread
oc:_emscripten_glUniform1i
sdb:__Z18Transfer_BlittableI24GenerateTypeTreeTransferLb1EN4math12int3_storageEEvRK29SerializationCommandArgumentsR31RuntimeSerializationCommandInfo
EG:__ZN11UnityEngine15CloudWebService16SessionContainer20RestoreSessionHeaderERKN4core12basic_stringIcNS2_20StringStorageDefaultIcEEEES8_RNS0_13SessionHeaderE
MIh:__ZN6il2cpp2os12Cryptography23GetCryptographyProviderEv
hqd:_SByte_System_IConvertible_ToByte_m2268214252_AdjustorThunk
Mxg:__Z151RuntimeInvoker_RuntimeObject_Int32_t2950945753_RuntimeObject_ObjectU5BU5DU26_t712384779_RuntimeObject_RuntimeObject_RuntimeObject_ObjectU26_t2146539884PFvvEPK10MethodInfoPvPS4_
DLc:__ZN8JSONRead19TransferSTLStyleMapINSt3__23mapIN4core12basic_stringIcNS3_20StringStorageDefaultIcEEEEN11UnityEngine9Analytics16LimitEventConfigENS1_4lessIS7_EE13stl_allocatorINS1_4pairIKS7_SA_EEL18MemLabelIdentifier6ELi16EEEEEEvRT_17TransferMetaFlags
kS:__ZN14MessageHandler3GetEv
OXc:_MonoMethodInfo_GetCallingConvention_m3156036493
hvf:_SupportedRenderingFeatures_FallbackMixedLightingModeByRef_m3859171964
Dc:_emscripten_glAttachShader
mM:__Z40DebugStringToFilePostprocessedStacktraceRK21DebugStringToFileData
k0b:__ZNSt3__26vectorIN4core12basic_stringIcNS1_20StringStorageDefaultIcEEEENS_9allocatorIS5_EEE6assignIPS5_EENS_9enable_ifIXaasr21__is_forward_iteratorIT_EE5valuesr16is_constructibleIS5_NS_15iterator_traitsISC_E9referenceEEE5valueEvE4typeESC_SC_
YCa:__ZThn32_N8Renderer15AddAsRenderNodeER15RenderNodeQueueRK20DeprecatedSourceData
rAb:__ZN13dynamic_arrayIN18GlslGpuProgramGLES9GLProgramELj0EE6insertEPS1_jRKS1_
Q7a:__Z18Transfer_BlittableI14SafeBinaryReadLb0E11QuaternionfEvRK29SerializationCommandArgumentsR31RuntimeSerializationCommandInfo
lFc:__ZN13BoxCollider2D16CheckConsistencyEv
mlb:__Z18Transfer_BlittableI18StreamedBinaryReadILb0EELb1E12PropertyNameEvRK29SerializationCommandArgumentsR31RuntimeSerializationCommandInfo
WL:_tlsf_walk_heap
Bxg:__Z49RuntimeInvoker_Void_t1185182177_OpCode_t123070264PFvvEPK10MethodInfoPvPS4_
_ye:_Convert_ToUInt32_m3592050311
Ya:invoke_vif
Za:invoke_vid
tPh:__ZNSt3__212basic_stringIcNS_11char_traitsIcEENS_9allocatorIcEEE6insertEjPKc
_a:invoke_vii
UHb:__ZNK12ImageFilters8DoRenderER17ShaderPassContextP13RenderTextureS3_RKNSt3__26vectorI11ImageFilterNS4_9allocatorIS6_EEEE
Wca:__ZN12TLSAllocatorI14StackAllocatorE16ThreadInitializeEP13BaseAllocator
$yg:__Z82RuntimeInvoker_Boolean_t97287965_SByte_t1669577662_RuntimeObject_SByte_t1669577662PFvvEPK10MethodInfoPvPS4_
B0a:__ZN9GfxDevice32UpdateStereoViewProjectionMatrixE21MonoOrStereoscopicEye
WI:__Z29GetCloudWebServicesModuleSpecv
Uad:_MonoType_GetConstructorImpl_m441167626
J2:__ZL45__ManagedRegistrationHelperFunction_CoroutinePv
O_a:__ZN25SingleBlockMemoryFileDataD0Ev
wu:__ZNSt3__26vectorI14ConstantStringNS_9allocatorIS1_EEE6assignINS_11__wrap_iterIPS1_EEEENS_9enable_ifIXaasr21__is_forward_iteratorIT_EE5valuesr16is_constructibleIS1_NS_15iterator_traitsISA_E9referenceEEE5valueEvE4typeESA_SA_
zG:__ZN11UnityEngine15CloudWebService16SessionContainer21ConvertFromFolderTimeERKN4core12basic_stringIcNS2_20StringStorageDefaultIcEEEEPjPt
ard:_CodeAccessPermission_Equals_m1555575992
A9a:__ZNSt3__26vectorI8GUIStyle13stl_allocatorIS1_L18MemLabelIdentifier1ELi16EEE7reserveEj
Img:_ReadOnlyCollection_1_Contains_m3869904379_gshared
Loh:__ZN6il2cpp6icalls8mscorlib6System9Threading6Thread27GetSerializedCurrentCultureEP12Il2CppThread
sCd:_Context_set_ReadSequenceNumber_m2154909392
rCf:_RijndaelTransform_SubByte_m3037693507
z9b:__Z31CalculateHierarchyTransformType23TransformAccessReadOnly
eOg:_ExpressionCollection_Add_m41125344
Hx:__ZN4FMOD8ChannelI11setPositionEjj
DEh:_GC_set_fl_marks
E0a:__ZN9GfxDevice17SetStereoViewportE15StereoscopicEyeRK5RectTIiE
i_:__ZN17BaseObjectManager13StaticDestroyEPv
PK:__GLOBAL__sub_I_Runtime_Graphics_Mesh_1_cpp
jSe:_Comparer_1__cctor_m3891417387_gshared
Xyc:__ZN27b2UpdateTriggerContactsTask8FinalizeEv
RB:__ZN12AudioManager14UpdateListenerERK8Vector3fS2_S2_S2_
Ahd:_EnumBuilder_GetEvent_m4074915332
ah:_sysconf
Kv:__ZN4FMOD6Reverb13setPropertiesEPK22FMOD_REVERB_PROPERTIES
GJb:__ZN9DepthPass13PrepareSubsetEjRK10RenderNodeifRK17ShaderReplaceData
KXd:_String_IndexOf_m3406607758
a$b:__ZN9ShaderLab20SerializedSubProgram16TextureParameter8TransferI14SafeBinaryReadEEvRT_
eaf:_Array_InternalArray__ICollection_Add_TisCustomAttributeNamedArgument_t287865710_m4157175270_gshared
Jp:__ZN4core20StringStorageDefaultIcE6assignEPKcj
ipf:_UInt64_System_IConvertible_ToUInt64_m2135047981_AdjustorThunk
nvd:_BigInteger_ModPow_m3776562770
$vh:__ZN15dense_hashtableINSt3__24pairIK10KeyWrapperIP12Il2CppObjectEN6il2cpp2gc9CachedCCWEEES5_NS7_5utils11PointerHashIS3_EEN14dense_hash_mapIS5_S9_SD_NS5_14EqualsComparerINS0_8equal_toIS4_EEEENS0_9allocatorISA_EEE9SelectKeyESI_SK_E3endEv
tEd:_RecordProtocol_ProcessChangeCipherSpec_m15839975
J9d:_ArrayList_IndexOf_m305368842
pmh:__ZN15dense_hashtableINSt3__24pairIK10KeyWrapperINS1_IP11Il2CppClassjEEES4_EES6_N6il2cpp8metadata14ArrayClassHashEN14dense_hash_mapIS6_S4_SB_NS6_14EqualsComparerINSA_17ArrayClassCompareEEENS0_9allocatorIS8_EEE9SelectKeyESF_SH_E9copy_fromERKSK_j
GTb:__ZN6Camera6SetFarEf
pnd:_FormatterConverter_ToBoolean_m1680758923
u1:__ZN6prcoreL12RemapGenericI17TexFormatABGR888817TexFormatARGB8888EEvPKNS_9InnerInfoE
tda:__ZN11GameManager17MainThreadCleanupEv
TMd:_X509Chain__ctor_m2674663382
wVg:_Physics2D_Raycast_m2082490717
ACc:__ZN10Collider2D12AddToManagerEv
qod:_SerializationCallbacks_GetSerializationCallbacks_m2939476649
oFb:__ZZ23InitPlayerLoopCallbacksvEN41PostLateUpdateUpdateResolutionRegistrator7ForwardEv
bnb:__Z25scripting_array_class_get17ScriptingClassPtrj
Jmc:__ZL22Transfer_ManagedObjectI9JSONWriteLb1EEvRK29SerializationCommandArgumentsR31RuntimeSerializationCommandInfo
KA:__ZNK10SampleClip22GetTypeVirtualInternalEv
w1a:__ZN9GfxDevice20DestroyRenderSurfaceER12ObjectHandleI17RenderSurface_TagP17RenderSurfaceBaseE
wte:_Stack__ctor_m2602729586
t5d:_Array_slow_swapper_m4116724811
ySb:__ZN12_GLOBAL__N_15qAsinEff
QKe:_InternalEnumerator_1_System_Collections_IEnumerator_get_Current_m2629988057_AdjustorThunk
Xca:__ZN12TLSAllocatorI14StackAllocatorE13ThreadCleanupEv
xWe:_Dictionary_2_get_Item_m2136868513_gshared
THa:__ZN14SafeBinaryRead21TransferSTLStyleArrayI13dynamic_arrayI8Vector4fLj0EEEEvRT_17TransferMetaFlags
iCh:__ZThn4_N6il2cpp2vm13ComObjectBase16MarshalInterfaceEP13Il2CppIStreamRK10Il2CppGuidPvjS7_j
Lwe:_Convert_ToDouble_m996590115
WYb:__Z27FindActiveTransformWithPathPKc
Jnf:_UInt16_ToString_m3020002356
vRd:_SHA1Internal_Initialize_m499810128
NLb:__ZNK6Camera7GetNearEv
hid:_GenericTypeParameterBuilder_GetConstructorImpl_m863833310
_zb:__ZN7ApiGLES11UnmapBufferEjN2gl12BufferTargetE
zCh:__ZN6il2cpp5utilsL24Utf32CharToSurrogatePairEjRA2_Ds
Mza:__Z25GetNextAllowedTextureSizeib13TextureFormat
Upb:__ZN20LocalFileSystemWebGL4CopyER13FileEntryDataS1_
FJ:__ZN19CloudServiceHandler6RetainEv
Blg:_ReadOnlyCollection_1_System_Collections_IList_IndexOf_m198887188_gshared
oQh:___cxa_guard_acquire
Bgf:_UTF32Encoding_GetBytes_m3180303867
WTa:__Z34scripting_liveness_calculation_endPv
Dyh:__ZN6il2cpp2os6ThreadC2Ev
Kbc:__ZN28ReflectionProbeAnchorManager7CleanupEv
UBe:_DateTimeOffset_get_UtcDateTime_m1021718282_AdjustorThunk
YFd:_HybridDictionary_get_Count_m1166314536
yFf:_TlsStream_Write_m1412844442
koc:__Z18Transfer_BlittableI8JSONReadLb0E8Vector3fEvRK29SerializationCommandArgumentsR31RuntimeSerializationCommandInfo
Clh:__ZN6il2cpp2vm6Thread6DetachEP12Il2CppThread
$Ff:_GeneralNames_get_DNSNames_m3788548987
a3:__ZL56__ManagedRegistrationHelperFunction_TextureMixerPlayablePv
A9c:_Math_Round_m3018379666
szh:__ZN6il2cpp2os10ThreadImpl5SleepEjb
Dlg:_ReadOnlyCollection_1_System_Collections_IList_Remove_m1965826685_gshared
iPc:__ZN22BaseUnityConnectClient12IsNewSessionEv
TDe:_Delegate_CreateDelegate_m1051651521
fWh:_glBindSampler__wrapper
wEb:__ZNSt3__26vectorIN20ArchiveStorageHeader12StorageBlockE13stl_allocatorIS2_L18MemLabelIdentifier55ELi16EEE8__appendEj
jf:_emscripten_set_mouseup_callback
kwf:_Mathf_Clamp_m3350697880
mzg:__Z165RuntimeInvoker_Void_t1185182177_UInt32U26_t3735378166_Int32_t2950945753_UInt32U26_t3735378166_Int32_t2950945753_Int32_t2950945753_Int32_t2950945753_Int32_t2950945753PFvvEPK10MethodInfoPvPS4_
yfg:_List_1_System_Collections_IList_Remove_m3140917266_gshared
mNd:_X509ChainElementCollection_System_Collections_IEnumerable_GetEnumerator_m3829089536
Npb:__ZNK18ScreenManagerWebGL8GetWidthEv
HA:__ZN10SampleClipD2Ev
oTa:__Z13GetGISettingsv
pJ:__ZN11UnityEngine15CloudWebService20WebRequestRestClientC2Ev
T5e:_Array_InternalArray__ICollection_Contains_TisRuntimeObject_m4067783231_gshared
p2:__ZL60__ManagedRegistrationHelperFunction_AssemblyIsEditorAssemblyPv
R3c:_Context_ToString_m1073616138
XNh:_readlink
rfh:__ZN15dense_hashtableINSt3__24pairIK10KeyWrapperINS1_IPK9EventInfoP11Il2CppClassEEEjEES9_17ReflectionMapHashIS8_EN14dense_hash_mapIS9_jSD_NS9_14EqualsComparerINS0_8equal_toIS8_EEEENS0_9allocatorISB_EEE9SelectKeyESI_SK_E12resize_deltaEjj
JXc:_MonoCMethod_Invoke_m2700167622
Tde:_KeyMarker__cctor_m2590194914
LIh:__ZN6il2cpp8metadata14Il2CppTypeHash4HashEPK10Il2CppType
NJh:__ZN6il2cpp2os13SemaphoreImplC2Eii
NJa:__ZNK6Sprite9GetBoundsE8Vector2fbb
Yha:__ZNK19RenderEventsContext21CleanupCommandBuffersEv
zxb:__ZN11ContextGLES6CreateEi
gIf:_X509StoreManager_get_CurrentUser_m719101392
uDe:_Decimal_CompareTo_m3502307243_AdjustorThunk
bmb:__Z19TransferField_ArrayI18StreamedBinaryReadILb0EE27Converter_SimpleNativeClassI17AnimationCurveTplIfEEEvRK23StaticTransferFieldInfoR31RuntimeSerializationCommandInfoRT0_
pda:__ZN14StackAllocator16FrameMaintenanceEb
pCa:__Z18ReadStringFromFilePN4core17string_with_labelILi1EEERKNS_12basic_stringIcNS_20StringStorageDefaultIcEEEE
dnc:__ZN9JSONWrite8TransferI13dynamic_arrayIjLj0EEEEvRT_PKc17TransferMetaFlags
PU:__ZNK10GameObject20QueryComponentByTypeEPKN5Unity4TypeE
NCe:_Decimal_System_IConvertible_ToInt32_m1488426794_AdjustorThunk
_9c:_MonoCustomAttrs_IsUserCattrProvider_m2878058089
vya:__ZN11TextureData5ResetEv
E2d:_ActivationContext_Dispose_m2038725770
VP:__ZL30InitializeCoreScriptingClassesv
Wna:__ZN15SerializeTraitsI12fixed_bitsetILi28EjEE8TransferI18StreamedBinaryReadILb0EEEEvRS1_RT_
gg:_glBlitFramebuffer
pbb:__Z35Transfer_Blittable_SingleValueFieldI14SafeBinaryReadhEvRT_R17GeneralMonoObjectRK23StaticTransferFieldInfo
H3b:__ZN12CachedWriter15CompleteWritingEv
Dya:__ZNK12CubemapArray22GetTypeVirtualInternalEv
spa:__ZN11Tetrahedron8TransferI18StreamedBinaryReadILb0EEEEvRT_
cn:FUNCTION_TABLE_vif
dn:FUNCTION_TABLE_vid
en:FUNCTION_TABLE_vii
ota:__ZN7Texture23VirtualRedirectTransferER24GenerateTypeTreeTransfer
dJa:__ZN14SpriteRenderer16CheckConsistencyEv
c0b:__ZN9ShaderLab18SerializedProperty8TransferI14SafeBinaryReadEEvRT_
KVh:_glDeleteFramebuffers__wrapper
Jvg:__Z220RuntimeInvoker_Boolean_t97287965_RuntimeObject_Int32U26_t1369213839_Int32_t2950945753_Int32_t2950945753_Int32_t2950945753_RuntimeObject_SByte_t1669577662_Int32_t2950945753_ContractionU26_t961830454_ContextU26_t3937453398PFvvEPK10MethodInfoPvPS4_
Mah:__ZN6il2cpp2vm7Runtime17GetDelegateInvokeEP11Il2CppClass
pJd:_WebHeaderCollection_ToString_m1263025316
uKg:__Z59RuntimeInvoker_ContactPoint2D_t3390240644_Int32_t2950945753PFvvEPK10MethodInfoPvPS4_
RZc:_GetterAdapter_Invoke_m3767885970
xZd:_String_CreateString_m2818852475
Pdc:__Z22GenerateBoxTilingShapeP22GenerateTilingAreaInfo
rEa:__ZN28EnlightenRendererInformation8TransferI14SafeBinaryReadEEvRT_
jxf:_MessageEvent__ctor_m1231650089
fWa:__ZNK15Lz4Decompressor16DecompressMemoryEPKvPjPvS2_
vha:__Z11IsCoroutine18ScriptingMethodPtrRK22CommonScriptingClasses
t3b:__ZN4core8hash_mapINS_12basic_stringIcNS_20StringStorageDefaultIcEEEE10vector_setI4PPtrI11SpriteAtlasENSt3__24lessIS8_EE13stl_allocatorIS8_L18MemLabelIdentifier81ELi16EEENS_4hashIS4_EENS9_8equal_toIS4_EEEixERKS4_
gGc:__ZN11Rigidbody2D8TransferI24GenerateTypeTreeTransferEEvRT_
Nva:__Z35UnityPropertySheet_MakeSortedColorsRKNSt3__23mapIN9ShaderLab16FastPropertyNameE10ColorRGBAfNS_4lessIS2_EENS_9allocatorINS_4pairIKS2_S3_EEEEEER10vector_mapIS2_S3_S5_NS6_INS7_IS2_S3_EEEEE
Kab:__Z29Transfer_Blittable_ArrayFieldI14SafeBinaryRead8Vector4fEvRT_R9ArrayInfoRK23StaticTransferFieldInfo
mxh:__GLOBAL__sub_I_BoehmGC_cpp
Hfd:_Default_check_arguments_m3882727959
Hhf:_UTF8Encoding_GetMaxCharCount_m3762459613
Igd:_ModuleBuilder_RegisterToken_m4166846047
fFb:__ZZ23InitPlayerLoopCallbacksvEN51PostLateUpdateUpdateCustomRenderTexturesRegistrator7ForwardEv
HEh:_GC_print_finalization_stats
f7g:__ZN6il2cpp2vm13MetadataCache25GetStringLiteralFromIndexEi
d3d:_Hashtable_ToPrime_m33531354
HD:__ZN11AudioModule6UpdateEv
KVg:_Physics2D_GetRayIntersectionNonAlloc_Internal_m177321563
Omf:_TypeInitializationException__ctor_m3546444694
a9e:_Array_InternalArray__IndexOf_TisInt32_t2950945753_m738632427_gshared
rI:__ZN11UnityEngine15CloudWebService23WebRequestUploadHandler17ConsumeUploadDataEj
Fqe:_MemoryStream_set_Position_m3169779190
ASb:__ZN13RenderManager29SetCurrentCameraAndStackStateEP6CameraP25CameraStackRenderingState
Qda:__ZNSt3__26__treeINS_12__value_typeIjN4core12basic_stringIcNS2_20StringStorageDefaultIcEEEEEENS_19__map_value_compareIjS7_NS_4lessIjEELb1EEE13stl_allocatorIS7_L18MemLabelIdentifier7ELi16EEE7destroyEPNS_11__tree_nodeIS7_PvEE
Fnh:__ZN15dense_hashtableINSt3__24pairIK10KeyWrapperINS1_IP11Il2CppClassjEEES4_EES6_N6il2cpp8metadata14ArrayClassHashEN14dense_hash_mapIS6_S4_SB_NS6_14EqualsComparerINSA_17ArrayClassCompareEEENS0_9allocatorIS8_EEE9SelectKeyESF_SH_E12resize_deltaEjj
vh:_JS_WebRequest_Release
qyd:_RSAManaged_get_PublicOnly_m405847294
$G:__ZN11UnityEngine15CloudWebService14DataErrorEventD0Ev
Sqh:__ZN6il2cpp6icalls8mscorlib6System4Type20internal_from_handleEi
q2f:__ZL72RequiredByNativeCodeAttribute_t4130846357_CustomAttributesCacheGeneratorP21CustomAttributesCache
n3c:_Context__ctor_m254302079
W7:__ZN9Scripting11UnityEngine12Experimental9Playables20TextureMixerPlayable9InitProxyEv
xBa:__ZN19ShaderPropertySheet16SetArrayPropertyEN9ShaderLab16FastPropertyNameENS_12PropertyTypeEPKvj
_8:__ZN9Scripting11UnityEngine9BoundsInt9InitProxyEv
zNc:__ZN11UnityEngine15PlatformWrapper16GetApplicationIdEv
Wae:_SimpleEnumerator__cctor_m2844299657
n9c:_LocalDataStoreSlot__ctor_m4104083971
HTg:_AudioSource_ReadExtensionName_m725112169
$Hf:_X509CertificateEnumerator_System_Collections_IEnumerator_Reset_m2039524926
vCg:__Z128RuntimeInvoker_Void_t1185182177_RuntimeObject_BooleanU26_t4125257963_SByte_t1669577662_Int32U26_t1369213839_Int32U26_t1369213839PFvvEPK10MethodInfoPvPS4_
zta:__ZN7Texture21GetMasterTextureLimitEv
eNa:__ZN13dynamic_arrayI9InputAxisLj0EE18resize_initializedEj12ResizePolicy
sUb:__Z12CanAddScriptR10GameObject17ScriptingClassPtrPS1_S2_
qih:__ZN6il2cpp2vm10Reflection12HasAttributeEP12Il2CppObjectP11Il2CppClass
PO:__ZN9ShaderLabL25StaticInitializeShaderLabEPv
U:Math_max
ikh:_il2cpp_class_get_methods
HAf:_HitInfo_SendMessage_m1343099429_AdjustorThunk
vdb:__Z18Transfer_BlittableI24GenerateTypeTreeTransferLb0EN4math12int2_storageEEvRK29SerializationCommandArgumentsR31RuntimeSerializationCommandInfo
wEe:_StackTrace_get_trace_m1194606084
KWd:_Single_CompareTo_m2785801815_AdjustorThunk
Lyh:__ZN6il2cpp2os6Thread16GetCurrentThreadEv
ROc:__ZN11UnityEngine7Connect20RemoteConfigSettings10UnregisterEv
h4b:__ZN10GameObject13ComponentPair15SetComponentPtrEPN5Unity9ComponentE
cUh:_glBlitFramebuffer__wrapper
fjb:__Z29Transfer_Blittable_ArrayFieldI18StreamedBinaryReadILb1EEyEvRT_R9ArrayInfoRK23StaticTransferFieldInfo
YAf:_Transform_INTERNAL_set_position_m3627767375
Wda:__ZN10TagManager8TransferI19StreamedBinaryWriteILb0EEEEvRT_
BTa:__ZN11PreloadData23VirtualRedirectTransferER18StreamedBinaryReadILb0EE
Yyf:_PropertyNameUtils_PropertyNameFromString_Injected_m1259736140
v9:__ZN9Scripting11UnityEngine24AssemblyIsEditorAssembly12CleanupProxyEv
o8d:_Char_System_IConvertible_ToDateTime_m3564102661
Su:__ZN13RuntimeStaticINSt3__26vectorI12WebCamDeviceNS0_9allocatorIS2_EEEELb0EE13StaticDestroyEPv
UEa:__ZN6Sprite17MainThreadCleanupEv
mUh:_glBlendFuncSeparate__wrapper
Hz:__ZN10AudioMixer14UpdateMuteSoloEv
$ia:__ZN12BaseRenderer25FlattenSharedMaterialDataILb0EEEbRKS_R22PerThreadPageAllocatorR10RenderNode
mfa:__ZN9Transform35SetLocalPositionWithoutNotificationERKN4math7_float3Ey
C4f:__ZL101MonoBehaviour_t3962482529_CustomAttributesCacheGenerator_MonoBehaviour_StartCoroutine_Auto_m594129169P21CustomAttributesCache
Ija:__ZN9ShaderLab10SubProgram7CompileEv
Y5a:__ZN7ApiGLES16SetPatchVerticesEi
UPg:_CharacterClass_Compile_m3296067317
nyh:__ZN6il2cpp2gc16GarbageCollector16InvokeFinalizersEv
D7d:_Byte_System_IConvertible_ToInt64_m285584218_AdjustorThunk
W_g:__ZN6il2cpp2vm5Class20FromGenericParameterEPK22Il2CppGenericParameter
aK:__ZN19CloudServiceHandler11FlushEventsEv
DZ:__ZN15GlobalCallbacksC2Ev
Cqc:__Z29Transfer_Blittable_ArrayFieldI8JSONReadxEvRT_R9ArrayInfoRK23StaticTransferFieldInfo
tBg:__Z74RuntimeInvoker_DateTime_t3738529785_DateTime_t3738529785_Int32_t2950945753PFvvEPK10MethodInfoPvPS4_
rqe:_MonoIO_GetFileStat_m678141354
sVc:__Z15CastclassSealedP12Il2CppObjectP11Il2CppClass
jDe:_Decimal_IsZero_m4250358244_AdjustorThunk
Z8c:_UnmanagedMemoryStream_get_CanRead_m3770815400
gTb:__ZN16ReflectionProbes40UpdateRealtimeReflectionProbesTimeslicedEv
iFa:__ZN14SafeBinaryRead21TransferSTLStyleArrayI13dynamic_arrayI8Vector2fLj0EEEEvRT_17TransferMetaFlags
xue:_Decimal_u64_m3374804932
FQb:__Z34PrepareParametersCullShadowCastersRK11ActiveLightRK14ShadowCullDataR22SceneCullingParametersR13ShadowedLight
ePa:__ZNK30RuntimeInitializeOnLoadManager22GetTypeVirtualInternalEv
b4g:__ZN15dense_hashtableINSt3__24pairIK10KeyWrapperIN6il2cpp5utils13dynamic_arrayIPK10Il2CppTypeLj4EEEEPFvvEEESA_NS3_8metadata19Il2CppSignatureHashEN14dense_hash_mapISA_SD_SG_NSA_14EqualsComparerINSF_22Il2CppSignatureCompareEEENS0_9allocatorISE_EEE9SelectKeyESK_SM_E12resize_deltaEjj
rcc:__ZN16ReflectionProbes15InitializeClassEv
qsh:__ZN6il2cpp2vm5Image9GetCorlibEv
Bwh:__ZN6il2cpp2vm11MethodStack17GetStackFramesRawEv
sFh:_GC_reclaim_uninit
Ivf:_Input_GetKeyDown_m17791917
YV:__ZN13RuntimeStaticINSt3__23mapIN4core12basic_stringIcNS2_20StringStorageDefaultIcEEEES6_NS0_4lessIS6_EE13stl_allocatorINS0_4pairIKS6_S6_EEL18MemLabelIdentifier13ELi16EEEELb0EE13StaticDestroyEPv
Msf:_Coroutine_ReleaseCoroutine_m947702340
$td:_MD5CryptoServiceProvider_ProcessFinalBlock_m2241588515
uj:_glIsVertexArray
R1d:_SmallXmlParser_Read_m3485223434
ike:_Int16_Parse_m2276856944
qLc:__ZL42__ManagedRegistrationHelperFunction_CanvasPv
fa:invoke_fff
MNh:_mbsinit
h7e:_Array_InternalArray__ICollection_Remove_TisContactPoint2D_t3390240644_m284878234_gshared
eTh:b14
fTh:b15
n1:__ZN6prcoreL12RemapGenericI17TexFormatARGB155517TexFormatRGBA8888EEvPKNS_9InnerInfoE
P0g:__ZN13Il2CppHashMapIPK19Il2CppGenericMethodPK26Il2CppGenericMethodIndicesN6il2cpp8metadata23Il2CppGenericMethodHashENS7_26Il2CppGenericMethodCompareENSt3__29allocatorINSA_4pairIK10KeyWrapperIS2_ES5_EEEEEC2EjRKS8_RKS9_
JVc:_TypeBuilder_HasElementTypeImpl_m1871001960
PVd:_SecurityFrame__ctor_m2140076703_AdjustorThunk
q6a:__ZN7ApiGLES13CreateProgramEv
Xqa:__ZN11HaloManager7AddHaloEv
tSe:_Enumerator_VerifyState_m4003066746_gshared
Yza:__ZN4crnd12crn_unpackerD2Ev
gv:__ZN9Scripting11UnityEngine12Experimental5Audio19AudioSampleProvider9InitProxyEv
Kj:_emscripten_glTexImage2D
_Re:_Comparer_1_System_Collections_IComparer_Compare_m2537217645_gshared
_ka:__ZN16MeshVertexFormat20GetVertexDeclarationER9GfxDevice16VertexInputMasksPKS_
KP:__ZN18ScriptingArguments9AddStringEPKc
MFh:_setup_header
e9d:_Char_ToString_m3588025615
U2e:_CryptoConvert_ToCapiKeyBlob_m3371450375
pxa:__ZL23stbir__resize_arbitraryPvPKviiiS_iiiffffPfiij14stbir_datatype12stbir_filterS4_10stbir_edgeS5_16stbir_colorspace
Pdb:__Z18Transfer_BlittableI24GenerateTypeTreeTransferLb1E8Vector4fEvRK29SerializationCommandArgumentsR31RuntimeSerializationCommandInfo
Vj:_pthread_detach
j8g:__ZN6il2cpp2vm19SocketPollingThread7RunLoopEv
Smb:__ZNSt3__213__stable_sortIRN10vector_mapI17ScriptingClassPtrPKN5Unity4TypeENS_4lessIS2_EENS_9allocatorINS_4pairIS2_S6_EEEEE13value_compareENS_11__wrap_iterIPSB_EEEEvT0_SJ_T_NS_15iterator_traitsISJ_E15difference_typeEPNSM_10value_typeEi
B$e:_SimpleCollator_FillSurrogateSortKeyRaw_m725998232
CId:_IPAddress_Equals_m1823478787
a4c:_Context_CreateNewContext_m3053563976
L0b:__ZN9ShaderLab25SerializedTextureProperty8TransferI24GenerateTypeTreeTransferEEvRT_
igh:__ZN6il2cpp2gc19AppendOnlyGCHashMapINSt3__24pairIPK14Il2CppAssemblyP11Il2CppClassEEP24Il2CppReflectionAssembly17ReflectionMapHashIS9_ENS2_8equal_toIS9_EEEC2Ev
Bgb:__Z18Transfer_BlittableI19StreamedBinaryWriteILb0EELb0EdEvRK29SerializationCommandArgumentsR31RuntimeSerializationCommandInfo
FK:__GLOBAL__sub_I_Runtime_Camera_RenderLoops_2_cpp
sca:__ZN11NamedObject8TransferI18StreamedBinaryReadILb0EEEEvRT_
Ntf:_InvokableCall_remove_Delegate_m1376110510
_Nd:_Capture_get_Value_m3919646039
qde:_Hashtable_Clear_m3112193608
phf:_UTF8Encoding_InternalGetByteCount_m771565606
ipc:__Z18Transfer_BlittableI8JSONReadLb1EyEvRK29SerializationCommandArgumentsR31RuntimeSerializationCommandInfo
Zgg:_List_1_System_Collections_IList_Remove_m3654336679_gshared
Gag:__ZL51GUILayer_t2783472903_CustomAttributesCacheGeneratorP21CustomAttributesCache
ala:__ZN9GfxDevice20GetVertexDeclarationERK18VertexChannelsInfoNS_30VertexDeclarationMRUCacheIndexE
qk:_emscripten_glMatrixMode
SVd:_SecurityFrame_get_Assembly_m2874566710
Xie:_Guid__ctor_m3562600567_AdjustorThunk
tG:__ZN11UnityEngine15CloudWebService14DataDispatcher16PrepareDataBlockERNS0_16SessionContainerE
hDb:__ZN18GfxFramebufferGLES5ClearE13GfxClearFlagsRK10ColorRGBAffib
K9e:_MonoProperty_StaticGetterAdapterFrame_TisRuntimeObject_m4131530968_gshared
rlb:__ZL26Transfer_SimpleNativeClassI18StreamedBinaryReadILb0EE10RectOffsetLb0EEvRK29SerializationCommandArgumentsR31RuntimeSerializationCommandInfo
DNe:_InternalEnumerator_1_get_Current_m2316281569_gshared
qJb:__ZL12DepthPassJobPN21GfxDeviceAsyncCommand10ArgScratchEPKNS_3ArgE
c$b:__ZNSt3__26vectorIN9ShaderLab20SerializedSubProgram16TextureParameterENS_9allocatorIS3_EEE6assignINS_11__wrap_iterIPS3_EEEENS_9enable_ifIXaasr21__is_forward_iteratorIT_EE5valuesr16is_constructibleIS3_NS_15iterator_traitsISC_E9referenceEEE5valueEvE4typeESC_SC_
zwf:_MonoBehaviour_IsInvoking_m3285132449
zkc:__ZN5Unity9rapidjson6WriterI16TempBufferWriterNS0_4UTF8IcEES4_13JSONAllocatorE11WriteDoubleEd
Zif:_Thread_SetCachedCurrentUICulture_m1729523031
C4a:__ZN14GfxDeviceStats16CopyAllDrawStatsERKS_
TAd:_ClientContext_set_ClientHelloProtocol_m4189379912
pm:FUNCTION_TABLE_iiiiiiiiiiii
Rma:__ZN16GraphicsSettingsD0Ev
FM:__Z12FormatBufferPciPKcz
HOc:__ZNSt3__26__treeINS_12__value_typeIN4core12basic_stringIcNS2_20StringStorageDefaultIcEEEE14CallbackArray3IRKS6_R8JSONReadbEEENS_19__map_value_compareIS6_SD_NS_4lessIS6_EELb1EEE13stl_allocatorISD_L18MemLabelIdentifier6ELi16EEE7destroyEPNS_11__tree_nodeISD_PvEE
n:cttz_i8
CRc:__ZN9Scripting11UnityEngine10Networking29UnityWebRequestAsyncOperation9InitProxyEv
bUg:_AudioListener_INTERNAL_CALL_ReadExtensionPropertyName_m330480156
Eye:_Convert_ToUInt16_m867476252
nl:_emscripten_glViewport
Cdc:__Z21GenerateTilingAreaJobP22GenerateTilingAreaInfoj
pCh:__ZN6il2cpp6icalls8mscorlib6System15MonoCustomAttrs17IsDefinedInternalEP12Il2CppObjectP20Il2CppReflectionType
W8:__ZN9Scripting11UnityEngine10CacheIndex9InitProxyEv
K_e:_MSCompatUnicodeTable_Category_m1834196420
uNa:__ZN14PlayerSettings23VirtualRedirectTransferER18StreamedBinaryReadILb0EE
lFe:_Double_CompareTo_m3151899116
TKh:__ZN6il2cpp2os5Event5ResetEv
vuh:__ZN6il2cpp8metadata15GenericMetadata17InflateParametersEPK13ParameterInfohPK20Il2CppGenericContextb
sAc:__ZN34b2SolveDiscreteIslandBodySleepTask7TaskJobEPS_j
Aqb:__Z25SetNeedToPerformRenderingb
FLc:__ZN8JSONRead12TransferPairINSt3__24pairIN4core12basic_stringIcNS3_20StringStorageDefaultIcEEEEN11UnityEngine9Analytics16LimitEventConfigEEEEEvRT_17TransferMetaFlagsPKN5Unity9rapidjson12GenericValueINSG_4UTF8IcEE13JSONAllocatorEE
wea:__ZN10GameObjectD2Ev
EJb:__ZN14qsort_internal30FindAndMovePivotToLastPositionIP15RODataDepthPassi17ROSorterDepthPassEEvT_S4_T0_T1_
eSb:__ZN12CullingGroup10SendEventsEPK17CullingGroupEventj
Ohe:_NumberFormatInfo_get_PerMilleSymbol_m1360140831
LAf:_SetupCoroutine_InvokeMember_m2661944898
ZCa:__ZThn32_NK8Renderer8GetLayerEv
tke:_Int32_ValidDigit_m1059003769
kYh:_emscripten_glTexParameterfv__wrapper
X7a:__Z18Transfer_BlittableI14SafeBinaryReadLb1E9BoundsIntEvRK29SerializationCommandArgumentsR31RuntimeSerializationCommandInfo
C8b:__ZN2UI13RectTransform17GetLocalPositionZEv
$kh:_il2cpp_method_get_param_count
AV:__ZNK5Unity4Type21FindAllDerivedClassesER13dynamic_arrayIPKS0_Lj0EENS0_17TypeFilterOptionsE
y6b:__ZN10systeminfo19ISOToSystemLanguageERN4core12basic_stringIcNS0_20StringStorageDefaultIcEEEE
bfh:__ZNK15dense_hashtableINSt3__24pairIK10KeyWrapperINS1_IPK12PropertyInfoP11Il2CppClassEEEjEES9_17ReflectionMapHashIS8_EN14dense_hash_mapIS9_jSD_NS9_14EqualsComparerINS0_8equal_toIS8_EEEENS0_9allocatorISB_EEE9SelectKeyESI_SK_E3endEv
iGc:__ZN11Rigidbody2D8TransferI19StreamedBinaryWriteILb0EEEEvRT_
Kpf:_UnauthorizedAccessException__ctor_m40101894
XQc:__ZN22BaseUnityConnectClient14AppRunningTickEj
pFe:_Double_Parse_m4153729520
YDa:__ZN16LightmapSettings8TransferI14SafeBinaryReadEEvRT_
uxb:__ZN17BufferManagerGLES13ReleaseBufferEP14DataBufferGLES
Vzd:_CipherSuite_Write_m1172814058
tN:__ZN9profiling6MarkerC2EPKc13ProfilerGroupNS0_5FlagsE
fpc:__Z18Transfer_BlittableI8JSONReadLb1EjEvRK29SerializationCommandArgumentsR31RuntimeSerializationCommandInfo
Ylf:_Type_internal_from_handle_m3156085815
M7b:__Z13RegisterClassIN2UI13RectTransformEEvPKc
C8:__ZN9Scripting11UnityEngine7Texture9InitProxyEv
Ezg:__Z117RuntimeInvoker_Void_t1185182177_RuntimeObject_Int32_t2950945753_Int32_t2950945753_Int32_t2950945753_Int32_t2950945753PFvvEPK10MethodInfoPvPS4_
iHa:__ZNK13ScreenManager17GetFullscreenModeEv
lA:__Z30GetAudioSpatializerDefinitionsR13dynamic_arrayIP29AudioEffectInternalDefinitionLj0EE31UnityAudioEffectDefinitionFlags
fo:stackSave
TI:__ZN5Unity9rapidjson15GenericDocumentINS0_4UTF8IcEE13JSONAllocatorNS0_12CrtAllocatorEE6StringEPKcjb
gyg:__Z77RuntimeInvoker_Void_t1185182177_Int64_t3736567304_ResourceInfoU26_t1611441338PFvvEPK10MethodInfoPvPS4_
kJa:__ZN14SpriteRenderer23VirtualRedirectTransferER24GenerateTypeTreeTransfer
tuh:__ZNK15dense_hashtableI10KeyWrapperIP18Il2CppGenericClassES3_N6il2cpp8metadata22Il2CppGenericClassHashEN14dense_hash_setIS3_S6_NS3_14EqualsComparerINS5_25Il2CppGenericClassCompareEEENSt3__29allocatorIS3_EEE8IdentityESA_SD_E12test_deletedERK30dense_hashtable_const_iteratorIS3_S3_S6_SF_SA_SD_E
Vxc:__ZNSt3__27__sort3IRN18Overlap2DQueryBase29ColliderHitsByDepthComparitorEPP10Collider2DEEjT0_S7_S7_T_
Ste:_Console_Open_m3077673205
NTb:__ZN6Camera9SetAspectEf
Y8e:_Array_InternalArray__IndexOf_TisDateTime_t3738529785_m2463359116_gshared
uGf:_PKCS12_Decode_m163534693
EZh:_emscripten_glBindVertexArray__wrapper
CQg:_Parser_IsECMAScript_m674158805
jaf:_Array_InternalArray__ICollection_Add_TisMonoResource_t4103430009_m2699164149_gshared
vfa:__ZN9Transform37InitializeTransformHierarchyRecursiveER18TransformHierarchyRii
B6a:__ZN26SinglePassStereoSupportExt23SetupStereoMatrixParamsE21MonoOrStereoscopicEye24BuiltinShaderMatrixParamRK10Matrix4x4f
j3a:__ZN9GfxDevice23CreateAsyncReadbackDataEv
bJd:_ServicePointManager_get_CertificatePolicy_m1966679142
QRc:__ZNK25UnityWebRequestJavaScript16GetUploadedBytesEv
EC:__Z46AudioListener_CUSTOM_GetNumExtensionPropertiesP12Il2CppObject
Ota:__ZN19ShaderPropertySheet38CopyTextureWithAuxiliaryPropertiesFromERKN9ShaderLab16FastPropertyNameERKS_
j9e:_Array_InternalArray__IndexOf_TisMonoResource_t4103430009_m1351751258_gshared
jwb:__ZN13GfxDeviceGLES26SetRandomWriteTargetBufferEi15ComputeBufferID
LFh:_GC_split_block
VEb:__ZZ23InitPlayerLoopCallbacksvEN49EarlyUpdateResetFrameStatsAfterPresentRegistrator7ForwardEv
eOh:_poll
vpf:_UInt64_ToString_m1529093114_AdjustorThunk
l1c:_TypeLibImportClassAttribute__ctor_m2302178978
j0e:_Escape_t3294788190_marshal_pinvoke
ush:__ZN6il2cpp2vmL36AddNestedTypesToNametoClassHashTableEP40Il2CppNameToTypeDefinitionIndexHashTablePKcRKNSt3__212basic_stringIcNS5_11char_traitsIcEENS5_9allocatorIcEEEEP11Il2CppClass
fAa:__ZN4crnd12crn_unpacker11unpack_dxt1EPPhjjj
pq:__ZL55__ManagedRegistrationHelperFunction_CoordinateFramePairPv
j3b:__ZNK11ICallString6ToUTF8Ev
a$g:__ZN15dense_hashtableINSt3__24pairIK10KeyWrapperIPK22Il2CppGenericParameterEP11Il2CppClassEES6_N6il2cpp5utils11PointerHashIS4_EEN14dense_hash_mapIS6_S9_SE_NS6_14EqualsComparerINS0_8equal_toIS5_EEEENS0_9allocatorISA_EEE9SelectKeyESJ_SL_E15insert_noresizeERKSA_
sUe:_Transform_1_Invoke_m2468053724_gshared
zF:__ZL60__ManagedRegistrationHelperFunction_ClothSkinningCoefficientPv
FJb:__ZNSt3__211__sift_downIR17ROSorterDepthPassP15RODataDepthPassEEvT0_S5_T_NS_15iterator_traitsIS5_E15difference_typeES5_
$ua:__ZN18UnityPropertySheet11UnityTexEnvC2Ev
A3d:_ArgumentException__ctor_m3200406061
nU:__ZN12FileAccessor4ReadEyyPvPy
G_d:_EncoderExceptionFallback__ctor_m3745979420
pTb:__ZN13RenderTexture9SetHeightEi
YVe:_Dictionary_2_OnDeserialization_m1254782141_gshared
Yoh:__ZN6il2cpp6icalls8mscorlib6System2IO6MonoIO17GetFileAttributesEP12Il2CppStringPi
qtd:_HMACMD5__ctor_m3008609295
jve:_DateTime__ParseAmPm_m3478436123
hQ:__Z24scripting_class_get_name17ScriptingClassPtr
NJd:_Oid__ctor_m911618594
uW:__ZN13RuntimeStaticI15GUIEventManagerLb0EE13StaticDestroyEPv
Nad:_ShortComparer_Compare_m1881262465
N9a:__Z29Transfer_Blittable_ArrayFieldI14SafeBinaryReadjEvRT_R9ArrayInfoRK23StaticTransferFieldInfo
Id:_emscripten_set_keydown_callback
V_d:_EncoderReplacementFallback__ctor_m1483565116
jPd:_Interpreter_IsWordChar_m2858055765
ode:_Hashtable_CopyTo_m2905447224
x8:__ZN9Scripting11UnityEngine29CustomRenderTextureUpdateZone12CleanupProxyEv
vU:__ZN12FileAccessorC2Ev
jDa:__ZNK8Renderer29FlattenPerMaterialCustomPropsER22PerThreadPageAllocatorR10RenderNode
B7g:_CertificateHandler_Dispose_m2100863831
HGc:__ZN23ColliderTilingExtensionC2Ev
Jah:__ZN6il2cpp2vm7Runtime12GetConfigDirEv
Cxc:__ZNSt3__27__sort3IR22InverseDepthComparitorP8DepthHitEEjT0_S5_S5_T_
Aeg:_Enumerator_MoveNext_m1177880931_AdjustorThunk
Zzc:__ZN14qsort_internal18QSortSingleJobDataIPN25b2SynchronizeFixturesTask14b2DeferredMoveEiPFbRKS2_S5_EE7SortJobEPS8_
wAf:_SendMouseEvents_SetMouseMoved_m2822596724
t4:__ZL50__ManagedRegistrationHelperFunction_SetupCoroutinePv
_q:__ZN13ConstraintJob23ConstraintComponentDataC2ERKS0_
bpb:__Z39WriteQueueForTransferSignatureIntoCacheRK31TransferFunctionScriptingTraitsRK24TransferRequestSignature17ScriptingClassPtrR23CachedSerializationDataRb
gSa:__ZN13RenderManager18UpdateAllRenderersEv
A$d:_Encoding_get_UTF8UnmarkedUnsafe_m320312322
gjf:_Thread_Thread_free_internal_m333849022
Ulc:__Z35Transfer_Blittable_FixedBufferFieldI9JSONWritexEvRK29SerializationCommandArgumentsR31RuntimeSerializationCommandInfo
QLg:_CostDelegate_BeginInvoke_m2828452701
mMc:__ZN22BaseUnityConnectClient30OnEnteringStatePausedOrStoppedEv
PDc:__ZN10ClipperLib7Clipper18SwapPositionsInAELEPNS_5TEdgeES2_
Leh:__ZN15dense_hashtableINSt3__24pairIK10KeyWrapperINS1_IPK12PropertyInfoP11Il2CppClassEEEjEES9_17ReflectionMapHashIS8_EN14dense_hash_mapIS9_jSD_NS9_14EqualsComparerINS0_8equal_toIS8_EEEENS0_9allocatorISB_EEE9SelectKeyESI_SK_E12resize_deltaEjj
Bgc:__Z25scripting_raise_exception21ScriptingExceptionPtr
zve:_DateTime_ToUniversalTime_m1945318289
X9d:_ArrayList_ToArray_m3827492363
qpf:_UInt64_Parse_m819899889
Wid:_GenericTypeParameterBuilder_GetHashCode_m852224381
Wye:_Convert_ToUInt32_m1453583008
sfe:_CompareInfo_Compare_m894311506
afa:__Z24MergeTransformComponentsR9TransformS0_b
u3g:__ZNK15dense_hashtableI10KeyWrapperIPK19Il2CppGenericMethodES4_N6il2cpp8metadata23Il2CppGenericMethodHashEN14dense_hash_setIS4_S7_NS4_14EqualsComparerINS6_26Il2CppGenericMethodCompareEEENSt3__29allocatorIS4_EEE8IdentityESB_SE_E10test_emptyEj
ZBh:__ZN6il2cpp2vm13ComObjectBase19GetRuntimeClassNameEPP15Il2CppHString__
bma:__Z37GetBarycentricCoordinatesForOuterCellPPK8Vector3fRK13dynamic_arrayIS_Lj0EERS0_RK11TetrahedronR8Vector4f
sj:_emscripten_glVertexAttribPointer
Qrb:__ZN14PreloadManager26UpdatePreloadingSingleStepENS_21UpdatePreloadingFlagsEi
__e:_SimpleCollator__ctor_m1587210019
Nye:_Convert_ToUInt16_m1480956416
J1:__ZN6prcoreL25inner_stretch_i8_bilinearEPKNS_9InnerInfoE
OTa:__ZL30RegisterFilteredObjectCallbackPP12Il2CppObjectiPv
kcg:__ZL54AudioSource_t3935305588_CustomAttributesCacheGeneratorP21CustomAttributesCache
Iuc:__ZN16PhysicsManager2D19ApplyParticleForcesER13dynamic_arrayI21BatchedColliderResultLj0EE
QG:__ZN11UnityEngine15CloudWebService16SessionContainer24GetSessionHeaderJsonDataERKN4core12basic_stringIcNS2_20StringStorageDefaultIcEEEERNS2_13StringBuilderE
MV:__ZN13RuntimeStaticI21AssetReferenceStorageLb0EE13StaticDestroyEPv
Aqd:_SByte_System_IConvertible_ToType_m4075253447_AdjustorThunk
Ccf:_Array_InternalArray__set_Item_TisKeyValuePair_2_t2530217319_m258011711_gshared
uyh:__ZN6il2cpp6icalls8mscorlib6System9AppDomain22InternalGetProcessGuidEP12Il2CppString
C8f:__ZL82NativeContainerNeedsThreadIndexAttribute_t764917452_CustomAttributesCacheGeneratorP21CustomAttributesCache
Ts:__ZN9Scripting11UnityEngine10Animations16ConstraintSource9InitProxyEv
keb:__Z18Transfer_BlittableI24GenerateTypeTreeTransferLb1EjEvRK29SerializationCommandArgumentsR31RuntimeSerializationCommandInfo
__g:__ZN6il2cpp2os12FastAutoLockD2Ev
zoa:__ZN11ColorRGBA328TransferI14SafeBinaryReadEEvRT_
nkg:_Collection_1_Add_m1736908447_gshared
FQa:__ZN15ResourceManager10Dependency8TransferI24GenerateTypeTreeTransferEEvRT_
Ptd:_MACTripleDES_HashFinal_m3613553534
thf:_UTF8Encoding_InternalGetBytes_m1965760031
lf:_emscripten_glClearDepth
S9b:__ZNK8GUILayer22GetTypeVirtualInternalEv
NBa:__ZN14SafeBinaryRead21TransferSTLStyleArrayINSt3__26vectorIN15QualitySettings14QualitySettingENS1_9allocatorIS4_EEEEEEvRT_17TransferMetaFlags
NOa:__ZNSt3__26vectorINS_4pairIPKN5Unity4TypeE7Hash128EENS_9allocatorIS7_EEE8__appendEj
Upc:__ZN8JSONRead21TransferSTLStyleArrayI13dynamic_arrayIaLj0EEEEvRT_17TransferMetaFlags
_yh:__GLOBAL__sub_I_LibraryLoader_cpp
vgc:__Z13IsPathCreatedRKN4core12basic_stringIcNS_20StringStorageDefaultIcEEEE
vxa:__ZL22stbir__encode_scanlineP11stbir__infoiPvPfiii
x0c:_ExternalException__ctor_m2877839282
lUb:__ZN13MonoBehaviour8SetClassE17ScriptingClassPtr18ScriptingObjectPtr
MH:__ZN11UnityEngine15CloudWebService20WebRequestRestClient5AbortEv
OOg:_Regex_Matches_m2080913806
M8b:__ZN9Transform12CleanupClassEv
w$g:__ZN6il2cpp2vmL21SetupPropertiesLockedEP11Il2CppClassRKNS_2os12FastAutoLockE
med:_OperatingSystem_Clone_m1122165140
c1a:__ZN9GfxDevice33ScheduleComputeBufferJobsInternalEPFvP20ComputeBufferJobDataEPFvRK8JobFenceEPK27ComputeBufferJobInstructionj
Blh:__ZN6il2cpp2vmL24thread_cleanup_on_cancelEPv
Rlf:_Type_type_is_subtype_of_m1406623598
x4:__ZL54__ManagedRegistrationHelperFunction_SpriteAtlasManagerPv
Uhf:_Thread_get_CurrentThread_m4142136012
nla:__Z30ProcessDynamicBatchGeometryJobP25DynamicVBOGeometryJobDataj
gKb:__ZNSt3__27__sort4IRNS_6__lessI11CulledLightS2_EEPS2_EEjT0_S6_S6_S6_T_
BR:__Z26scripting_object_get_class18ScriptingObjectPtr
$nh:__ZN6il2cpp6icalls8mscorlib6System10Reflection8Assembly13get_code_baseEP24Il2CppReflectionAssemblyb
GPa:__ZNSt3__26vectorIN4core12basic_stringIcNS1_20StringStorageDefaultIcEEEE13stl_allocatorIS5_L18MemLabelIdentifier13ELi16EEE7reserveEj
Esd:_DSASignatureDeformatter__ctor_m2889130126
Qac:__ZNK28MonoBehaviourPropertyBinding15GenerateBindingERKN4core12basic_stringIcNS0_20StringStorageDefaultIcEEEEbRN11UnityEngine9Animation14GenericBindingE
UMd:_X509ChainElementCollection__ctor_m3424079155
YLg:_LinkStack_Push_m3081279930
ETe:_Enumerator_MoveNext_m1107569389_gshared
cAh:__ZN6il2cpp6icalls8mscorlib6System11Environment15internalGetHomeEv
x$c:_ResourceCacheItem_t51292791_marshal_pinvoke_cleanup
naa:__ZNK5Unity9Component7GetNameEv
mUb:__Z23FindMonoScriptFromClass17ScriptingClassPtr
Rsc:__ZNK11b2RopeJoint16GetReactionForceEf
Lof:_UInt64_System_IConvertible_ToByte_m1501504925_AdjustorThunk
oDd:_TlsClientHello_ProcessAsTls1_m2549285167
K_d:_EncoderExceptionFallback_Equals_m2760188920
WRb:__ZNK15LODGroupManager17CalculateLODMasksERK13LODParametersfPhPf
vy:__ZN4FMOD6System7releaseEv
Y6d:_Boolean_CompareTo_m3665076258
HXd:_String_Split_m3580120853
o4e:_PrivateKeyInfo__ctor_m2811023496
ST:__Z18PathToAbsolutePathRKN4core12basic_stringIcNS_20StringStorageDefaultIcEEEE
vkd:_PropertyBuilder_GetCustomAttributes_m2917594003
K7:__ZN9Scripting11UnityEngine12Experimental10PlayerLoop13PreLateUpdate9InitProxyEv
$wa:__ZL13BlitImageImplR14ImageReferenceiiRKS_NS_10ColorSpaceENS_8BlitModeEb
hFa:__Z14resize_trimmedINSt3__26vectorI13dynamic_arrayI8Vector2fLj0EENS0_9allocatorIS4_EEEEEvRT_j
Z7f:__ZL69PersistentCall_t3407714124_CustomAttributesCacheGenerator_m_ArgumentsP21CustomAttributesCache
lw:__ZN12AudioManager29ShutdownReinitializeAndReloadEv
bqa:__ZN16ReflectionProbes28GetMinBakedCubemapResolutionEv
KBh:__GLOBAL__sub_I_String_cpp
Z_g:__ZN15dense_hashtableINSt3__24pairIK10KeyWrapperIPK22Il2CppGenericParameterEP11Il2CppClassEES6_N6il2cpp5utils11PointerHashIS4_EEN14dense_hash_mapIS6_S9_SE_NS6_14EqualsComparerINS0_8equal_toIS5_EEEENS0_9allocatorISA_EEE9SelectKeyESJ_SL_E6insertERKSA_
QGf:_X509CertificateEnumerator__ctor_m85694331
oxb:__ZN14DataBufferGLES16RecreateWithDataEjPKv
Laa:__Z29GetGlobalAllowNameConversionsv
Abf:_Array_InternalArray__Insert_TisTableRange_t3332867892_m558285859_gshared
cVb:__ZN8Material8SetColorEN9ShaderLab16FastPropertyNameERK10ColorRGBAf
VOc:__ZN11UnityEngine7Connect20RemoteConfigSettings19ConfigUpdatedStaticEPS1_bbi
KMd:_X509CertificateEnumerator__ctor_m943731472
hRh:dynCall_iiifiii
zQc:__Z25GetUnityConnectModuleSpecv
r$d:_Encoding_GetBytes_m3735967069
kCc:__ZN23ColliderTilingExtension5ResetEv
GAb:__ZN14GfxContextGLES43AddRenderSurfaceToDeferredFBOInvalidateListEPK17RenderSurfaceGLES
Boh:__ZN6il2cpp6icalls8mscorlib6System9Threading6Thread15Thread_internalEP12Il2CppThreadP14Il2CppDelegate
Lca:__ZN11NamedObject23VirtualRedirectTransferER14SafeBinaryRead
OQa:__ZN23PreloadManagerOperation6IsDoneEv
Uah:__ZN6il2cpp2vm7Runtime15InvokeWithThrowEPK10MethodInfoPvPS5_
JHc:__ZN10Effector2D10EndContactEP9b2Contact
jBh:__ZN6il2cpp5utils11StringUtils11Utf16ToUtf8ERKNSt3__212basic_stringIDsNS2_11char_traitsIDsEENS2_9allocatorIDsEEEE
lxd:_MD4Managed_Decode_m4273685594
USa:__ZN21LightProbeProxyVolume18HasHardwareSupportEv
sNb:__ZN26LightProbeProxyVolumeCacheC2ER13BatchRendererR15RenderLoopStats
I1:__ZN6prcoreL31inner_stretch_argb8888_bilinearEPKNS_9InnerInfoE
pib:__Z18Transfer_BlittableI18StreamedBinaryReadILb1EELb1E8BitFieldEvRK29SerializationCommandArgumentsR31RuntimeSerializationCommandInfo
Jle:_Int64_System_IConvertible_ToChar_m1509243576_AdjustorThunk
aGf:_GeneralNames_get_IPAddresses_m4242915644
bGh:_GC_init_size_map
Pha:__Z20scripting_object_new17ScriptingClassPtr
J9:__ZN9Scripting5Unity11Collections39NativeMatchesParallelForLengthAttribute12CleanupProxyEv
B4e:_KeyGeneratedEventHandler_Invoke_m2527485594
PKd:_X509Extension_set_Critical_m1180944253
sCe:_Decimal__ctor_m1925875020_AdjustorThunk
xod:_SerializationCallbacks__ctor_m3863304525
P:Math_exp
Kn:FUNCTION_TABLE_iiifi
Qwh:__ZN6il2cpp2os5posix13PosixAutoLockD2Ev
JGc:__ZN13BoxCollider2D15InitializeClassEv
rSg:_SymmetricTransform_OFB_m3690147804
xob:__ZN13MonoBehaviour9SetScriptERK4PPtrI10MonoScriptE18ScriptingObjectPtr
_Af:_Transform_Translate_m1990195114
oYa:__ZNK10FileSystem16LastErrorMessageEv
DFa:__ZN15SerializeTraitsI13dynamic_arrayI12SpriteVertexLj0EEE19ResizeSTLStyleArrayERS2_i
SUd:_SecurityException__ctor_m1631242336
_0g:__ZN15dense_hashtableINSt3__24pairIK10KeyWrapperIPK11Il2CppClassEPKcEES6_N6il2cpp5utils11PointerHashIS3_EEN14dense_hash_mapIS6_S9_SE_NS6_14EqualsComparerINS0_8equal_toIS5_EEEENS0_9allocatorISA_EEE9SelectKeyESJ_SL_E14squash_deletedEv
_Sc:__ZN22UnityWebRequestManager10InitializeEv
CQa:__ZNSt3__26__treeINS_12__value_typeIN4core12basic_stringIcNS2_20StringStorageDefaultIcEEEE4PPtrI6ObjectEEENS_19__map_value_compareIS6_SA_NS_4lessIS6_EELb1EEE13stl_allocatorISA_L18MemLabelIdentifier52ELi16EEE15__emplace_multiIJRNS_4pairIS6_S9_EEEEENS_15__tree_iteratorISA_PNS_11__tree_nodeISA_PvEEiEEDpOT_
rcb:__ZL26Transfer_SimpleNativeClassI17RemapPPtrTransfer8GradientLb1EEvRK29SerializationCommandArgumentsR31RuntimeSerializationCommandInfo
G3b:__ZN12CachedWriter9InitWriteER15CacheWriterBase
rfc:__Z21UnsignedInt64ToStringy
ZMg:_PatternCompiler_BeginLink_m1295557963
Pie:_GuidParser_ThrowFormatException_m3223388534
lQg:_Group_GetAnchorInfo_m3730312864
ilf:_TimeSpan_op_LessThanOrEqual_m300470010
WPd:_Interval_Merge_m3454211016_AdjustorThunk
gY:__ZZN15DirectorManager15InitializeClassEvEN41FixedUpdateDirectorFixedUpdateRegistrator7ForwardEv
Eqe:_MemoryStream_get_Position_m3733941202
nZh:_glLinkProgram__wrapper
IWa:__ZN18ScriptingArguments8AddInt64Ex
T0:__ZN6prcoreL12RemapGenericI17TexFormatARGB888815TexFormatBGR888EEvPKNS_9InnerInfoE
v6a:__ZN26SinglePassStereoSupportExt19SaveStereoConstantsEv
IZ:__ZNSt3__26vectorIP10MemoryPool13stl_allocatorIS2_L18MemLabelIdentifier76ELi16EEE21__push_back_slow_pathIRKS2_EEvOT_
wie:_TextInfo_get_ListSeparator_m1628160079
bif:_EventWaitHandle_Reset_m3348053200
xQc:__ZN28UnityConnectScriptingClasses23CallSessionStateChangedEixxbP21ScriptingExceptionPtr
hrh:__ZN6il2cpp6icalls8mscorlib6System13Globalization11CultureInfo35construct_internal_locale_from_nameEP17Il2CppCultureInfoP12Il2CppString
ILh:_objMovement_Update_m3280649890
zeb:__ZL22Transfer_ManagedObjectI24GenerateTypeTreeTransferLb1EEvRK29SerializationCommandArgumentsR31RuntimeSerializationCommandInfo
FHb:__ZN15RenderNodeQueueC2E10MemLabelId
t$c:_ResourceEnumerator_FillCache_m1661715061
YWf:__ZL72SecuritySafeCriticalAttribute_t3505979402_CustomAttributesCacheGeneratorP21CustomAttributesCache
Cj:_emscripten_set_main_loop_timing
Gye:_Convert_ToUInt16_m3523269149
Eyb:__ZN14DataBufferGLES12RecordRenderEv
ynd:_BinaryFormatter__ctor_m971003555
IUb:__ZN14ImageReference10FlipImageYEv
uga:__ZN21ScalableBufferManager20GetHeightScaleFactorEv
sv:__ZN4FMOD3DSP9setBypassEb
iYb:__Z19NormalizeWheelInputf
Ft:__ZN11KeyframeTplIfE8TransferI14SafeBinaryReadEEvRT_
kOg:_Repetition__ctor_m1672362629
grc:__Z29Transfer_Blittable_ArrayFieldI8JSONReadhEvRT_R9ArrayInfoRK23StaticTransferFieldInfo
WVd:_SecurityFrame_ToString_m339310712_AdjustorThunk
nVc:_TypeBuilder_create_runtime_class_m2581270900
i3b:__ZN11MonoManager25GetImageFromAssemblyIndexEi
FKe:_InternalEnumerator_1_get_Current_m3008260692_gshared
wKh:__ZN6il2cpp2os20ThreadLocalValueImpl8SetValueEPv
wia:__ZN22RenderingCommandBuffer20CleanupCommandBufferEv
xwe:_Decimal_op_Implicit_m2299919277
Wlc:__Z18Transfer_BlittableI9JSONWriteLb1EtEvRK29SerializationCommandArgumentsR31RuntimeSerializationCommandInfo
S8c:_UnexceptionalStreamReader_ReadToEnd_m920589220
mAe:_DateTime_System_IConvertible_ToType_m1242864300
Xj:___syscall85
KHb:__ZNSt3__26__sortIRPFbP10GUIElementS2_EPS2_EEvT0_S7_T_
E9b:__ZN16GraphicsSettings12CleanupClassEv
ahd:_ConstructorBuilder_GetILGenerator_m1750792206
qZd:_EncoderFallback_get_ReplacementFallback_m818398284
Wyh:__ZN6il2cpp2os6Thread19DetachCurrentThreadEv
t$g:__ZN6il2cpp2vmL21SetupInterfacesLockedEP11Il2CppClassRKNS_2os12FastAutoLockE
$6a:__ZN11MonoManager23VirtualRedirectTransferER24GenerateTypeTreeTransfer
Ssf:_CullingGroup_Dispose_m782801025
j9:__ZN9Scripting11UnityEngine9Component12CleanupProxyEv
MG:__ZN11UnityEngine15CloudWebService14DataDispatcher15SetupWebRequestEv
ONc:__ZN11UnityEngine15PlatformWrapper13GetShaderCapsEv
TPb:__ZNSt3__211__sift_downIR26RenderDeferredObjectSorterP16RenderObjectDataEEvT0_S5_T_NS_15iterator_traitsIS5_E15difference_typeES5_
Eid:_GenericTypeParameterBuilder_IsDefined_m98179866
y3e:_KeyPairPersistence_get_MachinePath_m3812267291
Gte:_Stack_Peek_m2216191248
$ze:_DateTime_System_IConvertible_ToDecimal_m1044850612_AdjustorThunk
iac:__ZN21FixedBehaviourManager6UpdateEv
zka:__ZN19ShaderPropertySheet8SetFloatEN9ShaderLab16FastPropertyNameEfNS_8SetFlagsE
qRa:__ZN19RuntimeSceneManager24BeginIntegrateMainThreadEP10UnityScene
Uzh:__ZNSt3__2plIcNS_11char_traitsIcEENS_9allocatorIcEEEENS_12basic_stringIT_T0_T1_EERKS9_S6_
wse:_StringReader_CheckObjectDisposedException_m3796163530
r8b:__ZZL31RegisterRectTransformPropertiesR22GenericPropertyBindingEN32Wrapper_RectTransformAnchorMaxy113GetFloatValueEPv
y$b:__ZN9ShaderLab20SerializedSubProgramaSERKS0_
NQh:_roundf
H7d:_Byte_System_IConvertible_ToSingle_m324484566_AdjustorThunk
wue:_Decimal_op_Explicit_m2848387298
u$g:__ZN6il2cpp2vmL24SetupTypeHierarchyLockedEP11Il2CppClassRKNS_2os12FastAutoLockE
rMb:__ZL24PutAdditionalShadowLightRK4AABBRK11ActiveLightRK10Matrix4x4ffR13dynamic_arrayI16ForwardShadowMapLj0EE
sYb:__ZL11TextHandleriPK23EmscriptenKeyboardEventPv
IVh:_glBlendEquationSeparate__wrapper
zHh:__ZN6il2cpp6icalls8mscorlib6System8Security12Cryptography24RNGCryptoServiceProvider13RngInitializeEP11Il2CppArray
p2f:__ZL68UsedByNativeCodeAttribute_t1703770351_CustomAttributesCacheGeneratorP21CustomAttributesCache
Udd:_NumberFormatter_NumberToString_m3906556024
qjb:__Z19TransferField_ArrayI18StreamedBinaryReadILb1EE27Converter_SimpleNativeClassI17AnimationCurveTplIfEEEvRK23StaticTransferFieldInfoR31RuntimeSerializationCommandInfoRT0_
iHc:__ZN7b2World18SetContactListenerEP17b2ContactListener
Wyb:__ZN18GfxFramebufferGLES22MakeCurrentFramebufferENS_7BuiltinE
Yna:__ZN12CachedReader4ReadEPvj
e0e:_SimpleCollator_MatchesForwardCore_m850743967
oMb:__Z24CalculateLightShadowFadeRK6CamerafffR8Vector4f
rQ:__ZN19RuntimeSceneManagerD2Ev
Nee:_CCGregorianCalendar_GetMonth_m1547203696
aI:__ZN11UnityEngine15CloudWebService25WebRequestDownloadHandler17OnCompleteContentEv
Ixa:__ZN6prcore17GetIntegerBlitterE13TextureFormatS0_N14ImageReference8BlitModeE
kFc:__ZN13BoxCollider2DD0Ev
n4:__ZL51__ManagedRegistrationHelperFunction_ResourceRequestPv
H9e:_Array_LastIndexOf_TisRuntimeObject_m1677937501_gshared
QC:__ZN11AudioSource18IsPlayingScriptingEv
q3e:_KeyBuilder_IV_m2230195376
qtc:__ZNK12b2WheelJoint10GetAnchorAEv
zUh:_glShaderSource__wrapper
c_a:__ZN25MultiBlocksMemoryFileData17AdjustBlocksCountEj
loh:__ZNSt3__214__split_bufferIN6il2cpp2vm22EmbeddedResourceRecordERNS_9allocatorIS3_EEED2Ev
T4b:__Z27CullingGroup_CUSTOM_DisposeP12Il2CppObject
dm:_glStencilMask
uzh:__ZN6il2cpp2os10ThreadImpl16GetCurrentThreadEv
kYb:__ZN15GUIEventManager10QueueEventERK10InputEvent
f0c:_DecimalConstantAttribute__ctor_m3583301917
cFh:_GC_push_conditional_with_exclusions
y6c:_MethodCallDictionary__ctor_m2167303393
oqg:__ZN30GenericInterfaceActionInvoker4IP12Il2CppObjectS1_S1_S1_E6InvokeEPK10MethodInfoS1_S1_S1_S1_S1_
$Ja:__Z31DrawSpriteDeformedFromNodeQueueRK15RenderNodeQueuej16VertexInputMasksi
IEg:__Z109RuntimeInvoker_Void_t1185182177_RuntimeObject_RuntimeObject_SByte_t1669577662_Int32_t2950945753_RuntimeObjectPFvvEPK10MethodInfoPvPS4_
Tic:__Z33Register_UnityEngine_Random_Rangev
oqa:__ZN14RenderSettings27UpdateIndirectSpecularColorEv
WNa:__ZN14PlayerSettings8TransferI18StreamedBinaryReadILb0EEEEvRT_
M9g:__ZN6il2cpp6icalls8mscorlib6System8MonoType16GetMethodsByNameEP20Il2CppReflectionTypeP12Il2CppStringibS5_
wif:_Monitor_Monitor_wait_m3706677354
yCf:_RijndaelTransform__cctor_m2439033240
btb:__ZNSt3__27__sort3IRNS_4lessIN22BuiltinResourceManager8ResourceEEEPS3_EEjT0_S7_S7_T_
T6e:_Array_InternalArray__ICollection_Remove_TisMonoResource_t4103430009_m238733686_gshared
RLa:__ZN10BlendShape8TransferI19StreamedBinaryWriteILb0EEEEvRT_
zxf:_PlayerConnection_DisconnectedCallback_m1697017309
LMa:__Z19GetTimeSinceStartupv
hhd:_ILGenerator_emit_int_m2322014738
Wr:__ZL51__ManagedRegistrationHelperFunction_ScaleConstraintPv
Yta:__ZN9ShaderLab11shaderprops9GetTexEnvEPK19ShaderPropertySheetS3_NS_16FastPropertyNameE16TextureDimensionb
AKb:__ZN29RenderNodeQueuePrepareContextC2Ev
Nkh:_il2cpp_gc_disable
H0b:__ZN9ShaderLab20SerializedSubProgram16TextureParameter8TransferI24GenerateTypeTreeTransferEEvRT_
P9:__ZN9Scripting5Unity11Collections8LowLevel6Unsafe29NativeSetThreadIndexAttribute12CleanupProxyEv
Gsd:_DSASignatureDeformatter_SetKey_m2999549245
ZHh:__ZN6il2cpp2os11MutexHandle4WaitEb
I0a:__ZN9GfxDevice19SaveStereoConstantsEv
YHh:__ZN6il2cpp2os11MutexHandle4WaitEj
a5b:__ZL34GetComponentsImplementationRecurseILb1ELi1ELi1EEbR10GameObjectbRK17CompareParametersRK39GetComponentsImplementation_ReturnValue
yvg:__Z114RuntimeInvoker_Boolean_t97287965_RuntimeObject_RuntimeObject_Int32_t2950945753_Int32_t2950945753_Int32_t2950945753PFvvEPK10MethodInfoPvPS4_
Cgd:_AssemblyBuilder_GetTypes_m3415680380
f0:__ZN6prcoreL17RemapGenericFloatI15TexFormatRGHalf18TexFormatARGBFloatEEvPKNS_9InnerInfoE
Yqb:__Z18SimulateMouseInputi
wGb:__ZN13RenderManager23AddRemoveCamerasDelayedEv
ykc:__ZN5Unity9rapidjson6WriterI16TempBufferWriterNS0_4UTF8IcEES4_13JSONAllocatorE11WriteUint64Ey
k6d:_BitConverter__cctor_m3841343255
due:_Decimal_Compare_m3062820418
bQd:_IntervalCollection_GetMetaCollection_m4029522214
kkf:_TimeSpan__ctor_m2047388489_AdjustorThunk
oTb:__ZN13RenderTexture8SetWidthEi
Jkg:_Collection_1_System_Collections_ICollection_CopyTo_m1516601228_gshared
zW:__ZN23DefaultMeshVertexFormatC2E18VertexChannelsInfo
fO:__ZN9ShaderLab16FastPropertyName4InitEPKc
sta:__ZN6ObjectC2E10MemLabelId18ObjectCreationMode
uOe:_InternalEnumerator_1_get_Current_m3911557813_AdjustorThunk
rNc:__ZN11UnityEngine15PlatformWrapper19GetPhysicalMemoryMBEv
m8d:_Char_System_IConvertible_ToByte_m2347554595_AdjustorThunk
Rra:__ZN13RenderTexture9SetMipMapEb
Yrc:__ZN9Scripting11UnityEngine14ContactPoint2D9InitProxyEv
wZd:_String_CreateString_m860434552
HY:__Z18GetDirectorManagerv
hbg:__ZL99SceneManager_t2787271929_CustomAttributesCacheGenerator_SceneManager_LoadScene_m2298600132____mode1P21CustomAttributesCache
Odh:__ZNK15dense_hashtableINSt3__24pairIK10KeyWrapperINS1_IPK10MethodInfoP11Il2CppClassEEEjEES9_17ReflectionMapHashIS8_EN14dense_hash_mapIS9_jSD_NS9_14EqualsComparerINS0_8equal_toIS8_EEEENS0_9allocatorISB_EEE9SelectKeyESI_SK_E5beginEv
pxb:__ZN7ApiGLES19UploadBufferSubDataEjN2gl12BufferTargetEllPKv
$_:__ZNSt3__216__rotate_forwardINS_11__wrap_iterIPN4core12basic_stringIcNS2_20StringStorageDefaultIcEEEEEEEET_S9_S9_S9_
LBf:_Vector2_GetHashCode_m3916089713
xAf:_SendMouseEvents_HitTestLegacyGUI_m579942228
Qbd:_MulticastDelegate_Equals_m2502840627
FSd:_SymmetricAlgorithm_set_KeySize_m3805756466
L7d:_Byte_System_IConvertible_ToUInt32_m1049546902_AdjustorThunk
IDg:__Z53RuntimeInvoker_Double_t594665363_Interval_t1802865632PFvvEPK10MethodInfoPvPS4_
ltb:__Z21InitializeBatchedJobsv
nRd:_SHA1Internal_ProcessBlock_m1991889327
r9a:__Z19TransferField_ArrayI14SafeBinaryRead27Converter_SimpleNativeClassI8GUIStyleEEvRK23StaticTransferFieldInfoR31RuntimeSerializationCommandInfoRT0_
Ddf:_Array_Sort_TisRuntimeObject_TisRuntimeObject_m1685639929_gshared
IHh:__ZN6il2cpp5utils10MemoryPoolC2Ev
Jpa:__ZN14RenderSettings5ResetEv
v3b:__ZN6Sprite9BindAtlasERK4PPtrI11SpriteAtlasE
Qkc:__ZN5Unity9rapidjson12GenericValueINS0_4UTF8IcEE13JSONAllocatorE10FindMemberIS4_EENS0_21GenericMemberIteratorILb0ES3_S4_EERKNS1_IS3_T_EE
qOe:_InternalEnumerator_1_System_Collections_IEnumerator_get_Current_m3892960115_AdjustorThunk
_2b:__ZN9ShaderLabL18AddPropertyToArrayERK19ShaderPropertySheetR13dynamic_arrayIiLj0EERKNS_8FloatValE
Mph:__ZNSt3__212basic_stringIDsNS_11char_traitsIDsEENS_9allocatorIDsEEE6appendEPKDsj
ktd:_HMAC_HashCore_m3684104066
AQc:__Z13RegisterClassI20UnityConnectSettingsEvPKc
fkc:__ZN5Unity9rapidjson13GenericReaderINS0_4UTF8IcEES3_13JSONAllocatorE11ParseNumberILj1ENS0_25GenericInsituStringStreamIS3_EENS0_15GenericDocumentIS3_S4_S4_EEEEvRT0_RT1_
oJa:__ZN14SpriteRenderer14OnChangeSpriteEv
ezh:__ZN6il2cpp2os10ThreadImplD2Ev
euc:__ZN12b2MouseJoint23InitVelocityConstraintsERK12b2SolverData
dlc:__ZN8Gradient8TransferI9JSONWriteEEvRT_
jSa:__ZN21RendererUpdateManager18OncePerFrameUpdateER13RendererScene
jIf:_X509StoreManager_get_LocalMachine_m269504582
Tca:__ZNK12TLSAllocatorI14StackAllocatorE22GetAllocatedMemorySizeEv
dba:__ZN17RemapPPtrTransfer12PushMetaFlagE17TransferMetaFlags
_Wa:__ZN12HandlerChain4NameEv
Wje:_Int16_System_IConvertible_ToType_m3672347013_AdjustorThunk
gbb:__Z29Transfer_Blittable_ArrayFieldI14SafeBinaryReadN4math12int3_storageEEvRT_R9ArrayInfoRK23StaticTransferFieldInfo
FVd:_SecurityException_ToString_m3228070608
Bke:_Int16_ToString_m2013897809
HVd:_String_Substring_m2848979100
VMc:__ZN11UnityEngine7Connect17XRDeviceInfoEvent12XRDeviceInfoD2Ev
u7a:__Z44InitializeTransferFunctionScriptingTraitsForI17RemapPPtrTransferEvR31TransferFunctionScriptingTraits
R8b:__ZNSt3__26vectorI16MessageForwarder13stl_allocatorIS1_L18MemLabelIdentifier7ELi8EEE6resizeEj
pMd:_X509Chain_SelectBestFromCollection_m1068759221
uSg:_SymmetricTransform_TransformBlock_m851059707
IKf:__ZL68IntPtr_t_CustomAttributesCacheGenerator_IntPtr_ToPointer_m4157623054P21CustomAttributesCache
Big:_Enumerator_System_Collections_IEnumerator_Reset_m2261065994_AdjustorThunk
pRa:__ZN18LoadSceneOperation21MustCompleteNextFrameEv
mZc:_MonoMethodInfo_get_method_info_m88651774
xC:__ZNK12AudioManager16GetAudioListenerEv
Nke:_Int32_System_IConvertible_ToDateTime_m1824716955
$pd:_RuntimeTypeHandle__ctor_m3315980708_AdjustorThunk
TSb:__ZNSt3__26vectorI11CameraStackNS_9allocatorIS1_EEE8__appendEj
Njf:_Scheduler_ShrinkIfNeeded_m820085397
Ckg:_Collection_1_set_Item_m3534473787_gshared
YT:__Z13GetFileSystemv
tW:__ZN13RuntimeStaticI15GUIEventManagerLb0EE16StaticInitializeEPv
Cwf:_MonoBehaviour_IsObjectMonoBehaviour_m2134950949
v4:__ZL45__ManagedRegistrationHelperFunction_Texture2DPv
tqf:_Version_CompareTo_m3146217210
Uuc:__ZN24RigidbodyMovementState2D21ResetAngularMoveStateEv
sJa:__ZThn32_N14SpriteRenderer15AddAsRenderNodeER15RenderNodeQueueRK20DeprecatedSourceData
Qlf:_Type_get_IsSystemType_m624798880
H6a:__ZN19ShaderPropertySheet9SetMatrixEN9ShaderLab16FastPropertyNameERK10Matrix4x4fNS_8SetFlagsE
Sza:__Z29GetTextureSizeAllowedMultiple13TextureFormat
bDe:_Decimal_Subtract_m835601464
a9b:__Z46CleanupSpriteRendererAnimationBindingInterfacev
ikf:_TimeSpan__ctor_m3689759052_AdjustorThunk
Yjh:_il2cpp_array_element_size
Q$b:__ZNSt3__26__treeINS_12__value_typeIN4core12basic_stringIcNS2_20StringStorageDefaultIcEEEEiEENS_19__map_value_compareIS6_S7_NS_4lessIS6_EELb1EEENS_9allocatorIS7_EEE12__find_equalIS6_EERPNS_16__tree_node_baseIPvEENS_21__tree_const_iteratorIS7_PNS_11__tree_nodeIS7_SH_EEiEESK_RKT_
pJf:__ZL62ComVisibleAttribute_t1362837655_CustomAttributesCacheGeneratorP21CustomAttributesCache
Nda:__ZNSt3__26__treeINS_12__value_typeIN4core12basic_stringIcNS2_20StringStorageDefaultIcEEEEjEENS_19__map_value_compareIS6_S7_NS_4lessIS6_EELb1EEE13stl_allocatorIS7_L18MemLabelIdentifier7ELi16EEE25__emplace_unique_key_argsIS6_JNS_4pairIS6_jEEEEENSH_INS_15__tree_iteratorIS7_PNS_11__tree_nodeIS7_PvEEiEEbEERKT_DpOT0_
yf:_glCheckFramebufferStatus
Qbe:_BitArrayEnumerator_get_Current_m4220391712
bfd:__Z37il2cpp_codegen_get_executing_assemblyPK10MethodInfo
wId:_IPAddress_get_ScopeId_m4237202723
J7:__ZN9Scripting11UnityEngine12Experimental10PlayerLoop9PreUpdate12CleanupProxyEv
oOg:_ExpressionCollection_get_Item_m3510736379
yhf:_UTF8Encoding_InternalGetCharCount_m82458470
RBf:_Vector2__cctor_m2108982652
Axf:_U3CBlockUntilRecvMsgU3Ec__AnonStorey2_U3CU3Em__0_m2225790220
A5:__ZN9Scripting11UnityEngine9Rendering20SphericalHarmonicsL29InitProxyEv
xrh:__ZN14dense_hash_mapI10KeyWrapperIP14Il2CppIUnknownEjN6il2cpp5utils11PointerHashIS1_EENS3_14EqualsComparerINSt3__28equal_toIS2_EEEENS9_9allocatorINS9_4pairIKS3_jEEEEE15set_deleted_keyERSF_
rgh:__ZN13Il2CppHashMapIPK14Il2CppAssemblyPK22Il2CppMonoAssemblyNameN6il2cpp5utils11PointerHashIS1_EENSt3__28equal_toIS2_EENSA_9allocatorINSA_4pairIK10KeyWrapperIS2_ES5_EEEEEC2EjRKS9_RKSC_
i3d:_DelegatePInvokeWrapper_AppDomainInitializer_t682969308
kqa:__ZN5Light9SetupHaloEv
bT:__ZN8Remapper6RemoveEi
q$d:_Encoding_GetBytes_m3148649984
Egc:__ZN9Scripting27CreateArgumentNullExceptionEPKc
lTb:__ZN15ReflectionProbe17UseRendererResultEP13ProbeRenderer
gQ:__Z32scripting_class_get_nested_types17ScriptingClassPtrRNSt3__26vectorIS_13stl_allocatorIS_L18MemLabelIdentifier1ELi16EEEE
Rof:_UInt64_System_IConvertible_ToDecimal_m806594027_AdjustorThunk
$2:__ZL58__ManagedRegistrationHelperFunction_MaterialEffectPlayablePv
OQc:__ZN11UnityEngine7Connect20RemoteConfigSettings18StaticCallOnUpdateEPS1_
Qgg:_List_1__ctor_m3395838871_gshared
pu:__ZN9Scripting11UnityEngine18AssetBundleRequest9InitProxyEv
qGf:_PKCS12__ctor_m1854440921
udf:_Array_Resize_TisCustomAttributeNamedArgument_t287865710_m885566878_gshared
bV:__ZN17TransformInternal19FreeTransformThreadER18TransformHierarchyjj
ms:__ZN9Scripting11UnityEngine12SkeletonBone12CleanupProxyEv
woe:_DirectoryInfo__ctor_m481305441
l$g:__ZN6il2cpp2vm5Class15GetElementClassEP11Il2CppClass
eO:__ZN10MemoryPoolC2E10MemLabelIdbPKciii
DRb:__Z40ProcessCameraIndexListIsNodeVisibleInOutRK22SceneCullingParametersPK9SceneNodePK4AABBR9IndexList
Nna:__ZN16GraphicsSettings8TransferI17RemapPPtrTransferEEvRT_
Alg:_ReadOnlyCollection_1_System_Collections_IList_Contains_m1327645028_gshared
mKd:_X509BasicConstraintsExtension_Decode_m120598446
fag:__ZL63SpriteBone_t303320096_CustomAttributesCacheGenerator_m_ParentIdP21CustomAttributesCache
lOc:__ZN11UnityEngine7Connect13ConfigHandler12GetListenersERKN4core12basic_stringIcNS2_20StringStorageDefaultIcEEEE
I1a:__ZN9GfxDevice18AllocRenderSurfaceEb
f8d:_Char__cctor_m2787437263
WP:__ZL27CleanupCoreScriptingClassesv
S6b:__Z26AnimationCurve_CUSTOM_InitP12Il2CppObjectP11Il2CppArray
SXh:_glUniform1uiv__wrapper
$vc:__ZNK14b2PolygonShape5CloneEP16b2BlockAllocator
cgh:__ZN6il2cpp2vm10Reflection7IsEventEP12Il2CppObject
cT:__ZN17PersistentManager26GetStreamNameSpaceInternalEi
tA:__ZN4FMOD6System11createSoundEPKcjP22FMOD_CREATESOUNDEXINFOPPNS_5SoundE
dKc:__ZN13SpeedTreeWind20AdvanceWithoutUpdateEd
_ze:_DateTime_System_IConvertible_ToDecimal_m1044850612
Bgg:_List_1_IndexOf_m2206067159_gshared
WLh:_spawnPlatform_spawnPlatformCoin_m4150135144
aP:__ZN9ShaderLab19CommonPropertyNames13StaticCleanupEPv
rS:__Z31scripting_method_get_returntype18ScriptingMethodPtr
uEa:__ZN15SerializeTraitsI12LightmapDataE8TransferI24GenerateTypeTreeTransferEEvRS0_RT_
bUd:_SecurityElement_AddAttribute_m311510562
N9:__ZN9Scripting5Unity11Collections44NativeDisableParallelForRestrictionAttribute12CleanupProxyEv
BUh:_glStencilOpSeparate__wrapper
eCa:__ZN7Texture13SetAnisoLimitENS_20AnisotropicFilteringE
tSc:__ZN20UnityWebRequestProtoI24UnityWebRequestTransport16AtomicRefCounter14RedirectHelper14ResponseHelper15DownloadHandler13UploadHandler18CertificateHandler12HeaderHelper14AsyncOperationED2Ev
a6d:_Attribute_IsDefined_m4069052474
sh:_emscripten_glCompressedTexSubImage2D
vAb:__ZN13GfxDeviceGLES22MemoryBarrierImmediateEyN2gl17MemoryBarrierTypeE
kIf:_X509Store_BuildCertificatesCollection_m3030935583
J0:__ZN6prcoreL26RemapGenericFloatToIntegerI18TexFormatARGBFloat17TexFormatARGB8888EEvPKNS_9InnerInfoE
Czc:__ZN14qsort_internal5QSortIPN35b2SynchronizeContinuousFixturesTask14b2DeferredMoveEiPFbRKS2_S5_EEEvT_S8_T0_T1_
fgc:__Z46GetShaderModelNumericValueFromRequirementsMask18ShaderRequirements
oXe:_Dictionary_2_Resize_m3287623642_gshared
GDh:_GC_write
Z7c:_SoapTypeAttribute_SetReflectionObject_m1691526413
Pq:__ZN17ConstraintManagerD2Ev
B5c:_ConstructionCallDictionary__ctor_m2541174073
adf:_Array_InternalArray__set_Item_TisMark_t3471605523_m1299772331_gshared
Oqc:__Z29Transfer_Blittable_ArrayFieldI8JSONRead10ColorRGBAfEvRT_R9ArrayInfoRK23StaticTransferFieldInfo
xhb:__Z18Transfer_BlittableI18StreamedBinaryReadILb1EELb1EiEvRK29SerializationCommandArgumentsR31RuntimeSerializationCommandInfo
Evg:__Z173RuntimeInvoker_Int32_t2950945753_RuntimeObject_Int32_t2950945753_Int32_t2950945753_Int32_t2950945753_RuntimeObject_Int32_t2950945753_SByte_t1669577662_ContextU26_t3937453398PFvvEPK10MethodInfoPvPS4_
Teh:__ZN15dense_hashtableINSt3__24pairIK10KeyWrapperINS1_IPK12PropertyInfoP11Il2CppClassEEEjEES9_17ReflectionMapHashIS8_EN14dense_hash_mapIS9_jSD_NS9_14EqualsComparerINS0_8equal_toIS8_EEEENS0_9allocatorISB_EEE9SelectKeyESI_SK_E12maybe_shrinkEv
Yhb:__Z18Transfer_BlittableI18StreamedBinaryReadILb1EELb1EsEvRK29SerializationCommandArgumentsR31RuntimeSerializationCommandInfo
Kff:_StringBuilder_Remove_m940064945
LNa:__ZN14SafeBinaryRead21TransferSTLStyleArrayI13dynamic_arrayI16SplashScreenLogoLj0EEEEvRT_17TransferMetaFlags
n5a:__ZN13dynamic_arrayIN16GeometryJobTasks15GeometryJobTaskELj0EE18resize_initializedEjRKS1_12ResizePolicy
$rd:_DESCryptoServiceProvider_GenerateIV_m683687014
kCa:__ZL21SetAnisoLimitEnumImplN7Texture20AnisotropicFilteringEb
gOc:__ZN22BaseUnityConnectClient17OnEnterStateReadyEv
Bfg:_List_1_System_Collections_IList_get_Item_m995551621_gshared
q7:__ZN9Scripting11UnityEngine12Experimental9Rendering15ShadowSplitData9InitProxyEv
QLa:__ZN16BlendShapeVertex8TransferI19StreamedBinaryWriteILb0EEEEvRT_
kah:__ZN6il2cpp6icalls8mscorlib6System8MonoType16InternalGetEventEP20Il2CppReflectionTypeP12Il2CppStringi
VRg:_UriScheme_t722425697_marshal_pinvoke_back
xzh:__ZN6il2cpp2osL23CleanupThreadIfCanceledEPv
N0e:_BigInteger_ToString_m3475000413
YJa:__ZN19ShaderPropertySheet11ComputeHashEv
v3g:__ZN30dense_hashtable_const_iteratorI10KeyWrapperIPK19Il2CppGenericMethodES4_N6il2cpp8metadata23Il2CppGenericMethodHashEN14dense_hash_setIS4_S7_NS4_14EqualsComparerINS6_26Il2CppGenericMethodCompareEEENSt3__29allocatorIS4_EEE8IdentityESB_SE_EppEv
Fwc:__ZN12b2EPCollider24ComputePolygonSeparationEv
LH:__ZN11UnityEngine15CloudWebService20WebRequestRestClient6IsDoneEv
pi:_llvm_fabs_f32
oH:__ZN11UnityEngine15CloudWebService16SessionContainer16GetJsonDataBlockEjRKN4core12basic_stringIcNS2_20StringStorageDefaultIcEEEERS6_PjSA_
f2e:_ASN1_Decode_m1695284166
A2b:__ZN9ShaderLab20SerializedSubProgram14AddStructParamEPKciii
RFe:_Enum_ToString_m3248653065
X1c:_ChannelServices__cctor_m2475086854
vR:__ZN14SafeBinaryReadD2Ev
mjb:__ZN8Gradient8TransferI18StreamedBinaryReadILb1EEEEvRT_
WNd:_Capture__ctor_m3103117740
Cug:__Z113RuntimeInvoker_Void_t1185182177_RuntimeObject_Int64_t3736567304_RuntimeObject_Int64_t3736567304_Int64_t3736567304PFvvEPK10MethodInfoPvPS4_
p$g:__ZN6il2cpp2vmL17SetupEventsLockedEP11Il2CppClassRKNS_2os12FastAutoLockE
Ri:_SDL_PauseAudio
wde:_Hashtable_Clone_m3078962909
tkh:_il2cpp_class_from_type
dbh:__ZN6il2cpp2os4File11GetStdErrorEv
OZg:_NativeHeaderAttribute__ctor_m457462113
$O:__ZN9ShaderLab19CommonPropertyNames16StaticInitializeEPv
Gsb:__ZN17ShaderPassContext8CopyFromERKS_
BDd:_TlsServerCertificateRequest_Update_m2763887540
Pwa:__ZN14Texture2DArray23VirtualRedirectTransferER14SafeBinaryRead
O9c:_MissingMemberException__ctor_m1220732369
jMb:__ZNK6Camera21CalculateCanDoShadowsEv
Pyh:__ZN6il2cpp2os6Thread12SetStackSizeEj
xef:_Array_InternalArray__get_Item_TisRuntimeObject_m3347010206_gshared
VVc:_TypeBuilder_IsSubclassOf_m3458909121
vkb:__Z18Transfer_BlittableI18StreamedBinaryReadILb0EELb1EhEvRK29SerializationCommandArgumentsR31RuntimeSerializationCommandInfo
d1d:_X509Certificate__cctor_m198658613
uyf:_PlayableHandle_Equals_m1666612586_AdjustorThunk
p0:__ZN6prcoreL27StretchGenericFloatBilinearI15TexFormatRFloatEEvPKNS_9InnerInfoE
v0f:__ZL139ServicePointManager_t170559685_CustomAttributesCacheGenerator_ServicePointManager_t170559685____CheckCertificateRevocationList_PropertyInfoP21CustomAttributesCache
$x:__ZNK11AudioSource19GetFilterComponentsERNSt3__26vectorIPN4FMOD3DSPENS0_9allocatorIS4_EEEEb
nse:_StreamWriter_LowLevelWrite_m1081676583
gGa:__ZN19StreamedBinaryWriteILb0EE21TransferSTLStyleArrayI13dynamic_arrayI8Vector2fLj0EEEEvRT_17TransferMetaFlags
AAa:__Z14PadImageBorderR14ImageReferenceii
tdh:__ZN15dense_hashtableINSt3__24pairIK10KeyWrapperINS1_IPK10MethodInfoP11Il2CppClassEEEjEES9_17ReflectionMapHashIS8_EN14dense_hash_mapIS9_jSD_NS9_14EqualsComparerINS0_8equal_toIS8_EEEENS0_9allocatorISB_EEE9SelectKeyESI_SK_E4findERSA_
F6g:__ZN6il2cpp2vm13MetadataCache28GetFieldDefaultValueForFieldEPK9FieldInfo
$eg:_List_1_GetEnumerator_m2838255531_gshared
W7f:__ZL66PersistentCall_t3407714124_CustomAttributesCacheGenerator_m_TargetP21CustomAttributesCache
rw:__ZN12AudioManager39HandlePendingAudioConfigurationCallbackEv
C4:__ZL43__ManagedRegistrationHelperFunction_Vector3Pv
Qj:_emscripten_glIsFramebuffer
G4e:_RSAManaged_EncryptValue_m799827583
xSb:__ZN12_GLOBAL__N_16qAtan2Eff
Uj:_JS_Sound_SetLoopPoints
mIh:__ZN6il2cpp2vm26MetadataAllocGenericMethodEv
c7e:_Array_InternalArray__ICollection_Remove_TisUInt16_t2177724958_m1766181761_gshared
LCb:__ZN19ConstantBuffersGLES12RecordRenderEv
Vmc:__ZN9JSONWrite8TransferI10RectOffsetEEvRT_PKc17TransferMetaFlags
rAa:__ZN4crnd12symbol_codec11decode_bitsEj
$wc:__ZN15b2CircleContact8EvaluateEP10b2ManifoldRK11b2TransformS4_
MSg:_AesManaged_GenerateIV_m1368817386
kpa:__ZN10Matrix3x4f8TransferI24GenerateTypeTreeTransferEEvRT_
Ev:__ZN4FMOD6System12createReverbEPPNS_6ReverbE
UTa:__Z16MarkDependenciesR27GarbageCollectorThreadStatej
jld:_RemotingServices_DisposeIdentity_m2605848806
m$:__ZNK9Transform11GetPositionEv
Nie:_GuidParser_Reset_m2640004655
u4b:__ZN23SharedMeshRenderingData18UnloadVertexStreamEi
mbc:__ZN19RenderEventsContextC2Ei
lF:__Z6simd4fRKf
wk:_emscripten_glEnable
mMe:_InternalEnumerator_1_System_Collections_IEnumerator_get_Current_m2982675020_gshared
Cda:__ZN10TagManager23VirtualRedirectTransferER14SafeBinaryRead
K4b:__Z15Hash128ToStringRK7Hash128
fPb:__Z15InitLightMeshesv
XXc:_MonoCMethod_ToString_m3992577062
Tm:FUNCTION_TABLE_iifiii
$Ba:__ZN15QualitySettings8TransferI19StreamedBinaryWriteILb0EEEEvRT_
Gef:_Array_InternalArray__get_Item_TisResourceCacheItem_t51292791_m1306056717_gshared
pM:__Z15CleanLogHandler7LogTypePKcz
$cd:_NumberFormatter_NumberToString_m2481532188
k1b:__ZN9ShaderLab19SerializedSubShader8TransferI19StreamedBinaryWriteILb0EEEEvRT_
eaa:__ZN9Scripting5Unity11Collections8LowLevel6Unsafe41NativeContainerIsAtomicWriteOnlyAttribute9InitProxyEv
hob:__ZN6Camera17RemoveImageFilterERK11ImageFilter
T5a:__ZNSt3__218__insertion_sort_3IR25ValueParameterArraySorterPN20GpuProgramParameters14ValueParameterEEEvT0_S6_T_
yDc:__ZN10ClipperLib7Clipper27ProcessEdgesAtTopOfScanbeamEx
Dce:_Comparer__cctor_m3311686689
QLe:_InternalEnumerator_1_get_Current_m3500427238_AdjustorThunk
LN:__Z27LogRepeatingStringWithFlagsRKN4core12basic_stringIcNS_20StringStorageDefaultIcEEEE15LogMessageFlagsi
apf:_UInt64_System_IConvertible_ToSingle_m925613075
cGe:_Enum_IsDefined_m1442314461
Oif:_Thread__cctor_m817723615
DTg:_AudioExtensionManager_RegisterBuiltinDefinitions_m2742744104
D_d:_DecoderReplacementFallbackBuffer_Fallback_m1261056214
Wad:_Binder_get_DefaultBinder_m950908649
Noe:_StreamReader__ctor_m1616861391
dPc:__ZN18UnityConnectClient33OnPlayerSessionStateChangedStaticEPS_jyy
Dyc:__ZN19ProcessContactsDataD2Ev
wQd:_RSA_ToXmlString_m2922661427
vI:__ZNK11UnityEngine15CloudWebService23WebRequestUploadHandler11GetProgressEv
$xb:__ZN7ApiGLES4LoadE16GfxDeviceLevelGL
dwd:_ASN1_Add_m2431139999
Duh:__ZN15dense_hashtableI10KeyWrapperIP18Il2CppGenericClassES3_N6il2cpp8metadata22Il2CppGenericClassHashEN14dense_hash_setIS3_S6_NS3_14EqualsComparerINS5_25Il2CppGenericClassCompareEEENSt3__29allocatorIS3_EEE8IdentityESA_SD_E15insert_noresizeERKS3_
Qcc:__ZZL31RegisterOtherRendererPropertiesR22GenericPropertyBindingEN30Wrapper_RendererReceiveShadows13GetFloatValueEPv
L5e:_Array_InternalArray__ICollection_Contains_TisSlot_t384495010_m688761886_gshared
Qza:__ZN17SharedTextureDataC2E10MemLabelIdii13TextureFormatjiibb
krb:__ZN8Material11SetPassFastEPN9ShaderLab4PassER17ShaderPassContextP6Shaderib
OOc:__ZN11UnityEngine7Connect20BasePersistentValues10SaveValuesER9JSONWrite
aAe:_DateTime_System_IConvertible_ToDouble_m2116720007
o0b:__ZN15SerializeTraitsINSt3__24pairIN4core12basic_stringIcNS2_20StringStorageDefaultIcEEEE4PPtrI7TextureEEEE8TransferI24GenerateTypeTreeTransferEEvRSA_RT_
Qqd:_SByte_Parse_m2899090751
H6:__ZN9Scripting11UnityEngine20ManagedStreamHelpers12CleanupProxyEv
f0d:_X509Certificate_PEM_m1177570576
ZHe:_ArrayReadOnlyList_1_GetEnumerator_m1835926958_gshared
gW:__ZN20GlobalCachingManager7DisposeEv
QIb:__Z12SetupLODFadeR9GfxDeviceR17ShaderPassContextf
Lnc:__ZN9JSONWrite8TransferI13dynamic_arrayI4AABBLj0EEEEvRT_PKc17TransferMetaFlags
UOb:__ZL24CollectForwardObjectsJobP27CollectForwardObjectsHeader
Lpc:__ZN8JSONRead21TransferSTLStyleArrayI13dynamic_arrayIdLj0EEEEvRT_17TransferMetaFlags
oRb:__Z13IsNodeVisibleRK9SceneNodeRK4AABBRK22SceneCullingParameters
h9e:_Array_InternalArray__IndexOf_TisLabelFixup_t858502054_m1491765395_gshared
A$e:_SortKeyBuffer_AppendCJKExtension_m2591091991
shf:_UTF8Encoding_GetByteCount_m4153686982
RZh:_emscripten_glStencilMask__wrapper
qtg:__Z49RuntimeInvoker_Void_t1185182177_Double_t594665363PFvvEPK10MethodInfoPvPS4_
l3g:__ZN15dense_hashtableI10KeyWrapperIPK19Il2CppGenericMethodES4_N6il2cpp8metadata23Il2CppGenericMethodHashEN14dense_hash_setIS4_S7_NS4_14EqualsComparerINS6_26Il2CppGenericMethodCompareEEENSt3__29allocatorIS4_EEE8IdentityESB_SE_EC2ERKSH_j
mia:__ZN15RenderNodeQueue7CleanupEv
XIc:__ZN16NovodexAllocator8allocateEjPKcS1_i
oOb:__Z17PrepareShadowMapsRK11CullResultsRK11ActiveLightRK10MinMaxAABB
EGf:_DeriveBytes_DeriveIV_m973925711
Yke:_Int32_System_IConvertible_ToSByte_m3133688512
yUc:__ZN9Scripting11UnityEngine12Experimental23SubsystemDescriptorBase9InitProxyEv
Lvh:__ZN15dense_hashtableINSt3__24pairIK10KeyWrapperIP12Il2CppObjectEN6il2cpp2gc9CachedCCWEEES5_NS7_5utils11PointerHashIS3_EEN14dense_hash_mapIS5_S9_SD_NS5_14EqualsComparerINS0_8equal_toIS4_EEEENS0_9allocatorISA_EEE9SelectKeyESI_SK_E12expand_arrayEjN21dense_hash_map_traits17integral_constantIbLb0EEE
QOb:__ZN9ShaderLab10GrabPassesD2Ev
Qxa:__ZN14Texture2DArray13UploadTextureEv
RGf:_DeriveBytes_DeriveMAC_m2121691743
URa:__ZN18AwakeFromLoadQueue25RegisterObjectInstanceIDsEv
Vsc:__ZN11b2RopeJoint24SolveVelocityConstraintsERK12b2SolverData
und:_BinaryCommon__cctor_m2978407547
l8d:_Char_System_IConvertible_ToByte_m2347554595
TMb:__Z19GetReflectionSampleRK23ReflectionProbesContextRK22ActiveReflectionProbesRK27PerObjectLightCullingOutputRK10RenderNodejP16ReflectionSample
Bcc:__ZN28ReflectionProbeAnchorManager23HandleAnchorDestructionEPK15TransformAccessj
yRc:__ZL65__ManagedRegistrationHelperFunction_UnityWebRequestAsyncOperationPv
Enf:_UInt16_TryParse_m4139137016
zhc:__Z41MonoBehaviour_Set_Custom_PropUseGUILayoutP12Il2CppObjecth
x5:__ZN9Scripting11UnityEngine15ResourceRequest12CleanupProxyEv
QVh:_glGenRenderbuffers__wrapper
h$d:_Encoding__ctor_m2997749867
gwf:_ManagedStreamHelpers_ManagedStreamSeek_m3158782053
fQg:_ExpressionAssertion_Compile_m2166597834
vWd:_Single_System_IConvertible_ToSByte_m1208276900_AdjustorThunk
CCh:__ZN6il2cpp6icalls8mscorlib6System7Convert24InternalFromBase64StringEP12Il2CppStringb
Rsh:__ZN30dense_hashtable_const_iteratorINSt3__24pairIK10KeyWrapperINS1_IPKcS4_EEEiEES6_24NamespaceAndNamePairHashN14dense_hash_mapIS6_iS9_NS6_14EqualsComparerI26NamespaceAndNamePairEqualsEENS0_9allocatorIS8_EEE9SelectKeyESD_SF_EppEv
Oic:__Z44Register_UnityEngine_Component_get_transformv
Aie:_TextInfo_ToLower_m2744057472
dEb:__ZN17ArchiveFileSystem12MountArchiveEPKcS1_
U1g:__ZN14dense_hash_mapI10KeyWrapperIP9FieldInfoEiN6il2cpp5utils11PointerHashIS1_EENS3_14EqualsComparerINSt3__28equal_toIS2_EEEENS9_9allocatorINS9_4pairIKS3_iEEEEE15set_deleted_keyERSF_
Zlc:__Z18Transfer_BlittableI9JSONWriteLb1E8Vector4fEvRK29SerializationCommandArgumentsR31RuntimeSerializationCommandInfo
ZP:__Z11RequireTypePKcS0_S0_
Gee:_CCGregorianCalendar_year_from_fixed_m463929682
HBd:_ClientSessionInfo__ctor_m2436192270
Uae:_ReadOnlyArrayListWrapper_Sort_m2577012511
Tqf:_Debug_get_unityLogger_m2239795986
axd:_MD2Managed_Initialize_m2341076836
o2a:__ZN9GfxDevice15ImmediateVertexEfff
SDa:__ZNK16LightmapSettings22GetTypeVirtualInternalEv
Jgh:__ZN30dense_hashtable_const_iteratorINSt3__24pairIK10KeyWrapperIPK14Il2CppAssemblyEPK22Il2CppMonoAssemblyNameEES6_N6il2cpp5utils11PointerHashIS4_EEN14dense_hash_mapIS6_SA_SF_NS6_14EqualsComparerINS0_8equal_toIS5_EEEENS0_9allocatorISB_EEE9SelectKeyESK_SM_EppEv
vub:__ZN13GfxDeviceGLES15SetStencilStateEPK18DeviceStencilStatei
sCh:__ZN6il2cpp2vm8Profiler7GCEventE13Il2CppGCEvent
cvg:__Z76RuntimeInvoker_Void_t1185182177_RuntimeObject_RuntimeFieldHandle_t1871169219PFvvEPK10MethodInfoPvPS4_
fd:_emscripten_glUniform1iv
$4a:__ZN13ComputeShader14SetBufferParamEjRKN9ShaderLab16FastPropertyNameE15ComputeBufferIDb
xph:__ZN6il2cpp6icalls8mscorlib6SystemL16ThrowInvalidCastEPK11Il2CppClassS5_
ovc:__ZN15b2DistanceProxy3SetEPK7b2Shapei
g$a:__ZN16MemoryFileSystemD2Ev
tvg:__Z150RuntimeInvoker_Int32_t2950945753_RuntimeObject_Int32_t2950945753_Int32_t2950945753_RuntimeObject_Int32_t2950945753_Int32_t2950945753_Int32_t2950945753PFvvEPK10MethodInfoPvPS4_
n6d:_BitConverter_DoubleToInt64Bits_m3574395137
QNa:__ZN12AspectRatios8TransferI24GenerateTypeTreeTransferEEvRT_
gna:__ZN16GraphicsSettings27SetLightsUseLinearIntensityEb
xBc:__ZN29b2InitializeContactSolverTask7TaskJobEPS_j
Lcc:__ZZN8Renderer15InitializeClassEvEN32FunctorImpl_146kCullSceneChanged4CallEPviR11MessageData
xse:_StringReader_Read_m3322058819
l2c:_CrossAppDomainChannel_get_ChannelPriority_m3418073750
LXb:__Z23ConvertIntegerToTypePtrItEbPvR14SafeBinaryRead
ZDe:_Delegate_CombineImpl_m3572135514
bec:__Z13RegisterClassI15EditorExtensionEvPKc
add:_NumberFormatter_IntegerToString_m1679294587
sff:_Latin1Encoding_GetString_m254210343
wd:_emscripten_glStencilFunc
z2b:__ZN9ShaderLab20SerializedSubProgram14AddMatrixParamEPKcii15ShaderParamTypei
Dd:_glGetActiveUniformBlockName
v6g:__ZN6il2cpp2vm13MetadataCache28GetGenericContainerFromIndexEi
ITa:__ZN27UnloadUnusedAssetsOperationD0Ev
ox:__ZN4FMOD7Channel20set3DConeOrientationEP11FMOD_VECTOR
Jm:FUNCTION_TABLE_iiifii
Bgd:_AssemblyBuilder_not_supported_m1735277432
twh:__ZN6il2cpp2vm12GenericClass11SetupEventsEP11Il2CppClass
hx:__ZN4FMOD7Channel7setModeEj
$rh:__ZN6il2cpp2vm15ReboxIReferenceEP14Il2CppIUnknownP11Il2CppClass
bWg:__ZN6il2cpp6icalls8mscorlib6System7Decimal14decimalCompareEP19il2cpp_decimal_reprS5_
aDh:__ZThn4_N6il2cpp2vm13CachedCCWBaseINS0_13ManagedObjectEE7ReleaseEv
YTf:__ZL62SoapMethodAttribute_t1935009310_CustomAttributesCacheGeneratorP21CustomAttributesCache
XDg:__Z100RuntimeInvoker_Void_t1185182177_RuntimeObject_Int32_t2950945753_Int32_t2950945753_UInt16_t2177724958PFvvEPK10MethodInfoPvPS4_
RWh:_glCopyTexImage2D__wrapper
nHc:__ZN16PhysicsManager2D11CreateWorldERK8Vector2f
dFe:_Double_System_IConvertible_ToUInt32_m271206838
vrb:__Z18ClearByDrawingQuad13GfxClearFlagsRK10ColorRGBAffjR17ShaderPassContext
W$:__ZN6prcoreL17RemapGenericFloatI14TexFormatRHalf15TexFormatRFloatEEvPKNS_9InnerInfoE
Nyg:__Z155RuntimeInvoker_Void_t1185182177_RuntimeObject_SByte_t1669577662_SByte_t1669577662_Int64U26_t200113976_ObjectU26_t2146539884_SerializationInfoU26_t419328957PFvvEPK10MethodInfoPvPS4_
CY:__ZN15DirectorManager21RebuildStageCallbacksEv
Nrb:__ZN19RuntimeSceneManager9LoadSceneERKN4core12basic_stringIcNS0_20StringStorageDefaultIcEEEES6_S6_RK9UnityGUIDiNS_11LoadingModeE
Vqf:_Application_Internal_ApplicationQuit_m2936209313
dxb:__ZN7ApiGLES10DrawArraysE16GfxPrimitiveTypejjj
mA:__ZN10SampleClip13LoadBaseSoundEv
Afe:_CompareInfo_IndexOf_m2631915198
Bab:__ZN14SafeBinaryRead21TransferSTLStyleArrayI13dynamic_arrayI10Matrix4x4fLj0EEEEvRT_17TransferMetaFlags
DGf:_DeriveBytes_DeriveKey_m2933043667
DUc:__ZN9Scripting11UnityEngine12Experimental27Internal_SubsystemInstances12CleanupProxyEv
$C:__Z57AudioSource_CUSTOM_INTERNAL_CALL_ClearExtensionPropertiesP12Il2CppObjectRK12PropertyName
mwh:__ZN15dense_hashtableINSt3__24pairIK10KeyWrapperIP12Il2CppObjectEN6il2cpp2gc9CachedCCWEEES5_NS7_5utils11PointerHashIS3_EEN14dense_hash_mapIS5_S9_SD_NS5_14EqualsComparerINS0_8equal_toIS4_EEEENS0_9allocatorISA_EEE9SelectKeyESI_SK_E15insert_noresizeERKSA_
KLc:__ZL57__ManagedRegistrationHelperFunction_AnalyticsSessionStatePv
iYe:_EqualityComparer_1__cctor_m3962593840_gshared
owa:__ZN22DeviceMVPMatricesStateC2ER9GfxDevice
yIb:__ZNK6Camera32ResolveLastTargetToCurrentTargetEv
Zbe:_Comparer_Compare_m3984347512
y7:__ZN9Scripting11UnityEngine12Experimental9Rendering11CullResults9InitProxyEv
Ba:invoke_viiifi
C7b:__Z13RegisterClassI6SpriteEvPKc
GZc:_MonoProperty_GetCustomAttributes_m3619796755
C6c:_MethodDictionary_System_Collections_IEnumerable_GetEnumerator_m4169036899
_kf:_TimeSpan_Subtract_m1264203589
LXe:_DefaultComparer_Equals_m3257444875_gshared
Me:_JS_Sound_SetPosition
ura:__ZN19RenderBufferManager13GetTempBufferEii17DepthBufferFormat19RenderTextureFormatj22RenderTextureReadWrite14VRTextureUsagei23RenderTextureMemoryless
g6g:__ZL13GetSharedInstPK17Il2CppGenericInst
jma:__Z27ConvertSubMeshesToTrianglesIjEvR13dynamic_arrayI7SubMeshLj0EERS0_IhLj0EE
JMc:__ZN22BaseUnityConnectClient17SaveSessionValuesEv
TJe:_InternalEnumerator_1_get_Current_m476140818_gshared
XOb:__Z24SetupActiveLightsContextR21ActiveLightingContextRK12ActiveLightsRK11CullResultsP14ShadowMapCacheRK10MinMaxAABB
dhh:__ZNK15dense_hashtableINSt3__24pairIK10KeyWrapperIPK22Il2CppGenericParameterEPK24MonoGenericParameterInfoEES6_N6il2cpp5utils11PointerHashIS4_EEN14dense_hash_mapIS6_SA_SF_NS6_14EqualsComparerINS0_8equal_toIS5_EEEENS0_9allocatorISB_EEE9SelectKeyESK_SM_E3endEv
_ga:__ZN6Camera8TransferI24GenerateTypeTreeTransferEEvRT_
Aa:invoke_iiiiiiif
ya:invoke_iiiiiiii
xcf:_Array_InternalArray__set_Item_TisByte_t1134296376_m3104140039_gshared
Uhc:__Z56Register_UnityEngine_MonoBehaviour_IsObjectMonoBehaviourv
Mzf:_Rect_ToString_m447614148
gHf:_PKCS12_GetBytes_m415958948
LGb:__ZN8Renderer17PendingAddToSceneEv
aYd:_String_CompareOrdinalCaseInsensitiveUnchecked_m2925624579
JP:__Z21PostprocessStacktracePKcRN4core12basic_stringIcNS1_20StringStorageDefaultIcEEEE
cdg:__ZL73ContactFilter2D_t3805203441_CustomAttributesCacheGenerator_minNormalAngleP21CustomAttributesCache
hwf:_ManagedStreamHelpers_ManagedStreamLength_m2930872960
SFf:_BasicConstraintsExtension_Encode_m2009213240
U5b:__Z47Register_UnityEngine_Camera_get_allCamerasCountv
HXc:___clang_call_terminate
NMc:__ZN22BaseUnityConnectClient20StartEventDispatcherEv
Tzb:__ZL25ProgramUniformMatrix4x3fvPK7ApiGLESjiihPKv
XFb:__ZN12InputManager13InputEndFrameEv
Jlh:__ZN6il2cpp2vm6Thread5SetupEP12Il2CppThread
yTe:_Enumerator_System_Collections_IDictionaryEnumerator_get_Key_m2500634048_gshared
aOh:___munmap
Ef:_localtime_r
kHb:__ZN22RenderingCommandBuffer13GetAndCheckRTE24BuiltinRenderTextureTypeRKN9ShaderLab16FastPropertyNameEPKcPP13RenderTexture
nL:__Z19free_alloc_internalPv10MemLabelId
Ps:__ZN9Scripting11UnityEngine10Animations18PositionConstraint9InitProxyEv
Hf:_strftime
Lra:__ZN7Texture33SetStoredColorSpaceNoDirtyNoApplyE17TextureColorSpace
M$c:_ResourceSet__ctor_m3618395942
JCe:_Decimal_System_IConvertible_ToDouble_m3125524987_AdjustorThunk
wU:__ZN12FileAccessorD2Ev
yma:__ZN14VertexDataInfoC2Ev
Yxh:__ZN6il2cpp2gc16GarbageCollector14CollectALittleEv
ouf:_UnityEventBase__ctor_m1851535676
Lib:__ZL17Transfer_GUIStyleI18StreamedBinaryReadILb1EELb1EEvRK29SerializationCommandArgumentsR31RuntimeSerializationCommandInfo
MN:__ZNSt3__26__treeINS_12__value_typeIPKciEENS_19__map_value_compareIS3_S4_15compare_tstringIS3_ELb1EEENS_9allocatorIS4_EEE21__emplace_unique_implIJNS_4pairIPciEEEEENSD_INS_15__tree_iteratorIS4_PNS_11__tree_nodeIS4_PvEEiEEbEEDpOT_
aah:__ZN6il2cpp6icalls8mscorlib6SystemL9IsPrivateEPK12PropertyInfo
XO:__ZN9shadertag10InitializeEv
RJc:__GLOBAL__sub_I_Modules_Terrain_Public_1_cpp
YBa:__ZN15QualitySettings14QualitySetting8TransferI24GenerateTypeTreeTransferEEvRT_
oye:_Convert_ToSingle_m835189399
O3b:__ZN22BlockMemoryCacheWriter14LockCacheBlockEjPPhS1_
bLc:__ZN9Scripting11UnityEngine8Tilemaps8TileData12CleanupProxyEv
js:__ZN9Scripting11UnityEngine21StateMachineBehaviour9InitProxyEv
Kpc:__Z22TransferField_NonArrayI8JSONRead27Converter_SimpleNativeClassI8GUIStyleEEvRK23StaticTransferFieldInfoR31RuntimeSerializationCommandInfoRT0_
g8:__ZN9Scripting11UnityEngine26ExcludeFromPresetAttribute9InitProxyEv
mg:_llvm_eh_typeid_for
mmd:_RemotingServices_FindInterfaceMethod_m2125212568
fse:_StreamWriter__cctor_m1229272693
NFe:_Enum_System_IConvertible_ToSByte_m779472798
Flf:_Type_get_IsInterface_m3284996719
mZe:_GenericEqualityComparer_1_Equals_m1218735909_gshared
alb:__Z18Transfer_BlittableI18StreamedBinaryReadILb0EELb1E8Vector4fEvRK29SerializationCommandArgumentsR31RuntimeSerializationCommandInfo
zXe:_Dictionary_2_U3CCopyToU3Em__0_m2023886030_gshared
rZh:_glBindVertexArray__wrapper
pod:_SerializationInfo__ctor_m2923079689
Gua:__ZN8Material8TransferI14SafeBinaryReadEEvRT_
Sya:__ZN12CubemapArray17UploadToGfxDeviceEv
qke:_Int32_JumpOverWhite_m208298144
ODf:_X509CertificateCollection_get_Item_m3285563224
pYh:_emscripten_glGetUniformiv__wrapper
VCh:__ZN6il2cpp2vm13ManagedObject14QueryInterfaceERK10Il2CppGuidPPv
Xx:__ZN11AudioSource4StopEb
LMh:_frexp
Izc:__ZN39b2ClearContinuousContactIslandFlagsTask7ExecuteEv
r6a:__ZN18GlslGpuProgramGLESD2Ev
lVb:__ZN13RenderTexture14SetVolumeDepthEi
fWc:_EventInfo_get_EventHandlerType_m420690865
nDg:__Z86RuntimeInvoker_Void_t1185182177_UInt16_t2177724958_SByte_t1669577662_SByte_t1669577662PFvvEPK10MethodInfoPvPS4_
m2b:__Z22LoadGpuProgramFromDataPKhS0_Rj
oqc:__ZN10Matrix4x4f8TransferI8JSONReadEEvRT_
Yce:_Hashtable__ctor_m1941859523
pMb:__Z26FindForwardLightsForObjectR13dynamic_arrayIhLj0EEPK11CulledLightjRK12ActiveLightsRK10RenderNodePK19ShaderPropertySheetbRK23FindForwardLightsParamsf
i4:__ZL44__ManagedRegistrationHelperFunction_GPUFencePv
gBb:__ZN25TransformFeedbackSkinning31CleanupTransformFeedbackShadersEv
Hha:__Z22scripting_object_unbox18ScriptingObjectPtr
_Fa:__ZN10VertexData8TransferI18StreamedBinaryReadILb0EEEEvRT_
hLh:__ZN6il2cpp8metadata25Il2CppGenericClassCompare7CompareEPK18Il2CppGenericClassS4_
wbd:_MonoType_get_Assembly_m4290914179
h0d:_Array_Reverse_m816310962
wVb:__ZN14PreloadManager16UpdatePreloadingEv
Jfa:__ZN12BaseRendererD2Ev
Poa:__ZN14SafeBinaryRead21TransferSTLStyleArrayI19StaticArrayTransferIiLi4EEEEvRT_17TransferMetaFlags
uYd:_String_LastIndexOf_m95398196
IYb:__ZNK21UnityDefaultAllocatorI17LowLevelAllocatorE8ContainsEPKv
bqd:_RuntimeTypeHandle_Equals_m2857439487
wh:_emscripten_get_main_loop_timing
k1c:_SafeHandle_Finalize_m3866180675
XBa:__ZN24GenerateTypeTreeTransfer21TransferSTLStyleArrayINSt3__26vectorIN15QualitySettings14QualitySettingENS1_9allocatorIS4_EEEEEEvRT_17TransferMetaFlags
Oqe:_MemoryStream_ToArray_m3911744835
ZSe:_Enumerator_System_Collections_IDictionaryEnumerator_get_Entry_m859540448_AdjustorThunk
zUb:__ZN23ManagedAttributeManager52CallManagedGetParentTypeDisallowingMultipleInclusionE17ScriptingClassPtr
$Ma:__Z10AddGUIAxesR13dynamic_arrayI9InputAxisLj0EE
hmf:_Type_GetHashCode_m1947148725
jzg:__Z91RuntimeInvoker_Void_t1185182177_RuntimeObject_RuntimeObject_RuntimeObject_SByte_t1669577662PFvvEPK10MethodInfoPvPS4_
cVa:__ZNK2UI13RectTransform22GetTypeVirtualInternalEv
ko:getTempRet0
Xxf:_Object_Destroy_m565254235
XCd:_HandshakeMessage_Update_m2417837686
Goh:__ZN6il2cpp6icalls8mscorlib6System9ThreadingL21lookup_cached_cultureEP12Il2CppThreadi
Mtf:_NetFxCoreExtensions_CreateDelegate_m751211712
UPb:__ZN18DeferredRenderLoopD2Ev
Haa:__ZNK16TypeTreeIterator4NameEv
WT:__ZN15FileSystemEntry3SetEPKc
Sgd:_ConstructorBuilder_Invoke_m3010446651
BId:_IPv6Address_set_ScopeId_m3907190992
Xw:__ZN20SoundChannelInstance15ParameterBuffer5ApplyEPN4FMOD7ChannelE
pId:_IPv6Address__ctor_m4117281080
PQh:_sbrk
bv:__ZL49__ManagedRegistrationHelperFunction_AudioSettingsPv
hOc:__ZN11UnityEngine15PlatformWrapper24GetRuntimePlatformStringEv
gi:_glIsEnabled
n9a:__Z25scripting_class_get_image17ScriptingClassPtr
wVd:_SecurityException__ctor_m836898292
Vfg:_List_1_RemoveAt_m2730968292_gshared
JPa:__ZNSt3__26vectorIN4core12basic_stringIcNS1_20StringStorageDefaultIcEEEE13stl_allocatorIS5_L18MemLabelIdentifier13ELi16EEEC2INS_11__wrap_iterIPS5_EEEET_SE_RKS8_PNS_9enable_ifIXaasr21__is_forward_iteratorISE_EE5valuesr16is_constructibleIS5_NS_15iterator_traitsISE_E9referenceEEE5valueEvE4typeE
ki:_emscripten_glDrawElementsInstanced
P3f:__ZL79Camera_t4157153871_CustomAttributesCacheGenerator_Camera_RaycastTry_m3913529496P21CustomAttributesCache
Uqa:__ZN18JobBatchDispatcherD2Ev
ZUa:__ZN9Transform17MainThreadCleanupEv
IFh:_GC_clear_hdr_marks
l_h:_emscripten_glCreateShader__wrapper
xKd:_OidEnumerator_MoveNext_m3138911739
WHg:__Z53RuntimeInvoker_Boolean_t97287965_Keyframe_t4206410242PFvvEPK10MethodInfoPvPS4_
vi:_emscripten_glGetShaderiv
oy:__ZN4FMOD6System10getVersionEPj
Snc:__ZN9JSONWrite8TransferIN4math12int2_storageEEEvRT_PKc17TransferMetaFlags
l1a:__ZN9GfxDevice21ReleaseSharedMeshDataEP14SharedMeshData
qRg:_Uri_IsDomainAddress_m2867513594
KOa:__ZNSt3__27__sort5IRNS_6__lessINS_4pairIPKN5Unity4TypeE7Hash128EES8_EEPS8_EEjT0_SC_SC_SC_SC_T_
PEh:_GC_unreachable_finalize_mark_proc
Myf:_PlayerConnectionInternal_PollInternal_m3759016321
ULd:_X509Chain_ProcessCrlExtensions_m236234529
lGh:_maybe_finalize
K0g:__ZN6il2cpp2vm5Class40GetInterfaceInvokeDataFromVTableSlowPathEPK12Il2CppObjectPK11Il2CppClassj
g9e:_Array_InternalArray__IndexOf_TisLabelData_t360167391_m1826525656_gshared
Vld:_RemotingConfiguration_RegisterChannelTemplate_m3105688054
gka:__ZN8Material28UpdateHashesOnPropertyChangeEN9ShaderLab16FastPropertyNameE
lkg:_Collection_1_System_Collections_IList_get_Item_m1368877441_gshared
eQf:__ZL56MethodBuilder_t2807316753_CustomAttributesCacheGeneratorP21CustomAttributesCache
g8a:__Z18Transfer_BlittableI14SafeBinaryReadLb1E8Vector4fEvRK29SerializationCommandArgumentsR31RuntimeSerializationCommandInfo
oTc:__ZN13RuntimeStaticINSt3__26vectorI23UnityVRDeviceDefinition13stl_allocatorIS2_L18MemLabelIdentifier90ELi16EEEELb0EE13StaticDestroyEPv
Wsh:__ZN6il2cpp2vm5Image13ClassFromNameEPK11Il2CppImagePKcS6_
nRh:dynCall_vdddddd
u0b:__ZN24GenerateTypeTreeTransfer21TransferSTLStyleArrayINSt3__26vectorIN9ShaderLab14SerializedPassENS1_9allocatorIS4_EEEEEEvRT_17TransferMetaFlags
xP:__ZL32MarkLevelGameManagerDependenciesR27GarbageCollectorThreadState
lwb:__ZNK13GfxDeviceGLES26HasActiveRandomWriteTargetEv
zlh:__GLOBAL__sub_I_Thread_cpp
LMf:__ZL54_MemberInfo_t3922476713_CustomAttributesCacheGeneratorP21CustomAttributesCache
qVh:_glGetActiveUniformsiv__wrapper
SR:__ZN13MonoBehaviour19SetupScriptingCacheE17ScriptingClassPtrP10MonoScript
Kcc:__ZZN8Renderer15InitializeClassEvEN28FunctorImpl_145kLayerChanged4CallEPviR11MessageData
r7:__ZN9Scripting11UnityEngine12Experimental9Rendering15ShadowSplitData12CleanupProxyEv
mY:__ZZN15DirectorManager15InitializeClassEvEN52PreLateUpdateDirectorUpdateAnimationBeginRegistrator7ForwardEv
Fqh:__ZN6il2cpp2vm13LivenessState18ShouldProcessValueEP12Il2CppObjectP11Il2CppClass
qFf:_TlsStream_get_Position_m1904146856
zYe:_EqualityComparer_1_System_Collections_IEqualityComparer_Equals_m1672604045_gshared
L$b:__ZNSt3__26vectorIN9ShaderLab14SerializedPassENS_9allocatorIS2_EEE8__appendEj
__b:__ZNSt3__26vectorIN9ShaderLab20SerializedSubProgram13BufferBindingENS_9allocatorIS3_EEEC2INS_11__wrap_iterIPS3_EEEET_SB_RKS5_PNS_9enable_ifIXaasr21__is_forward_iteratorISB_EE5valuesr16is_constructibleIS3_NS_15iterator_traitsISB_E9referenceEEE5valueEvE4typeE
lZd:_Encoding_get_ISOLatin1_m2107621369
Nuc:__ZNK16PhysicsManager2D21GetAutoSyncTransformsEv
wtc:__ZN12b2WheelJoint24SolveVelocityConstraintsERK12b2SolverData
Apb:__ZNK25PathNamePersistentManager30PathIDToFileIdentifierInternalEi
bBa:__ZN9Texture2D23VirtualRedirectTransferER18StreamedBinaryReadILb0EE
tEc:__ZN10Collider2D8TransferI24GenerateTypeTreeTransferEEvRT_
Obe:_BitArrayEnumerator__ctor_m2359341397
zeg:_Enumerator_MoveNext_m1177880931_gshared
xS:__ZN16ScriptingManager27NativeTypeForScriptingClassE17ScriptingClassPtr
Oof:_UInt64_System_IConvertible_ToDateTime_m3434604642
Plf:_Type_get_IsSerializable_m1040556850
NCa:__ZN8Renderer20RendererAddedToSceneEv
wRb:__ZL22ScheduleSceneNodesJobsP25ScheduleSceneNodesJobDataj
nk:_emscripten_set_canvas_size
Jfe:_CultureInfo__ctor_m3285927757
Wrc:__ZN9Scripting11UnityEngine9Physics2D9InitProxyEv
dbc:__ZN12MeshRenderer27PrepareSingleRendererUpdateER13RendererSceneRS_10MemLabelId
r$b:__ZNSt3__26vectorIN9ShaderLab20SerializedSubProgramENS_9allocatorIS2_EEE8__appendEj
AL:__ZN20DynamicHeapAllocatorI17LowLevelAllocatorE8AllocateEji
fSg:_Locale_GetText_m2427493201
zJb:__ZN20DynamicPropertySheet15SetVectorQueuedERKN9ShaderLab16FastPropertyNameERK8Vector4fN19ShaderPropertySheet8SetFlagsE
Oih:__ZNSt3__26vectorIN6il2cpp2vm17TypeNameParseInfoENS_9allocatorIS3_EEE7reserveEj
Lpa:__ZN14RenderSettings23VirtualRedirectTransferER19StreamedBinaryWriteILb0EE
omc:__ZL26Transfer_SimpleNativeClassI9JSONWrite10RectOffsetLb0EEvRK29SerializationCommandArgumentsR31RuntimeSerializationCommandInfo
hFh:_GC_push_conditional
EIa:__ZN17GenericDynamicVBO10AllocateVBEjR21DynamicVBOChunkHandle
lCe:_DBNull_ToString_m3638608738
quh:__ZN30dense_hashtable_const_iteratorI10KeyWrapperIP18Il2CppGenericClassES3_N6il2cpp8metadata22Il2CppGenericClassHashEN14dense_hash_setIS3_S6_NS3_14EqualsComparerINS5_25Il2CppGenericClassCompareEEENSt3__29allocatorIS3_EEE8IdentityESA_SD_EppEv
Lbe:_BitArray_Clone_m3537018332
Tnd:_ObjectRecord_UnchainFixup_m3191243952
nFf:_TlsStream_get_CanWrite_m16389328
IKc:__ZN9Scripting11UnityEngine8UIVertex9InitProxyEv
Mk:_glMapBufferRange
VAa:__ZN9Texture2D8TransferI18StreamedBinaryReadILb0EEEEvRT_
$6b:__Z31Input_CUSTOM_GetMouseButtonDowni
KYd:_String_Format_m3339413201
zbd:_MonoType_get_BaseType_m1098640416
RQa:__ZN13LoadOperation19IntegrateTimeSlicedEi
GFf:_TlsStream_Read_m3392972801
vwb:__ZN13GfxDeviceGLES22DispatchComputeProgramE12ObjectHandleI18ComputeProgram_TagPvE15ComputeBufferIDj
TSa:__Z17TransformAABBSlowRK4AABBRK10Matrix4x4fRS_
f5d:_Array_combsort_m4052486289
lz:__ZN24AudioScriptBufferManager27InitialCompleteDomainReloadEv
RZb:__ZN9ShaderLab21SerializedShaderState8TransferI14SafeBinaryReadEEvRT_
CGe:_Environment_GetWindowsFolderPath_m1738399646
GOh:_ftruncate
xrd:_CryptoConfig_EncodeOID_m2635914623
vva:__ZN15SerializeTraitsINSt3__24pairIN4core12basic_stringIcNS2_20StringStorageDefaultIcEEEES6_EEE8TransferI24GenerateTypeTreeTransferEEvRS7_RT_
D_h:b89
C_h:b88
u_h:b81
t_h:b80
IBb:__ZN7ApiGLES19CreateSparseTextureEjj14GraphicsFormatiiiiRiS1_S1_
lT:__ZN18ResourceImageGroup7CleanupEv
z_h:b85
x_h:b84
B_h:b87
AZd:_String_CharCopy_m3838781968
q7c:_RemotingSurrogateSelector_GetSurrogate_m3900875713
kDg:__Z69RuntimeInvoker_Boolean_t97287965_UInt16_t2177724958_Int16_t2552820387PFvvEPK10MethodInfoPvPS4_
gzd:_CertificateValidationCallback_Invoke_m1014111289
KLh:_playerScript__ctor_m1687851810
Rka:__Z20RenderMultipleMeshesRK15RenderNodeQueueRK18RenderMultipleData16VertexInputMasks
Al:_glDeleteShader
c0:__ZN6prcoreL17RemapGenericFloatI15TexFormatRGHalf16TexFormatRGFloatEEvPKNS_9InnerInfoE
ZQd:_RSAPKCS1SignatureDeformatter_SetHashAlgorithm_m1602190713
FFe:_Enum_System_IConvertible_ToByte_m1219166845
c3b:__Z27scripting_add_internal_callPKcPKv
Lhh:__ZN13Il2CppHashMapINSt3__24pairIPK9EventInfoP11Il2CppClassEEj17ReflectionMapHashIS7_ENS0_8equal_toIS7_EENS0_9allocatorINS1_IK10KeyWrapperIS7_EjEEEEEC2EjRKS9_RKSB_
wvh:__GLOBAL__sub_I_GarbageCollector_cpp
BGc:__Z13RegisterClassI11Rigidbody2DEvPKc
Ojc:__ZN9Scripting11UnityEngine3GUI9InitProxyEv
gTe:_Enumerator_MoveNext_m1556953412_AdjustorThunk
Lsa:__ZN13RenderTexture8TransferI24GenerateTypeTreeTransferEEvRT_
pQg:_Literal_GetAnchorInfo_m810577400
qse:_StreamWriter_Write_m1660535366
eJh:__ZN6il2cpp2vm9Parameter30GetDefaultParameterValueObjectEPK10MethodInfoPK13ParameterInfoPb
rhf:_UTF8Encoding_GetByteCount_m4152118078
O3e:_KeyPairPersistence__CanSecure_m3516574278
Uzg:__Z95RuntimeInvoker_Void_t1185182177_RuntimeObject_RuntimeObject_Int32_t2950945753_SByte_t1669577662PFvvEPK10MethodInfoPvPS4_
Xtd:_MD5CryptoServiceProvider_Dispose_m3502499818
zqa:__ZN12LightManager28IsLightTransformDataUpToDateEPK5Light
bIe:_ArrayReadOnlyList_1_RemoveAt_m2104218585_gshared
QFa:__ZN12BoneWeights48TransferI24GenerateTypeTreeTransferEEvRT_
g3:__ZL49__ManagedRegistrationHelperFunction_PreLateUpdatePv
qqb:__Z19scripting_gc_enablev
LQe:_InternalEnumerator_1_get_Current_m2907722321_gshared
PEb:__ZZ23InitPlayerLoopCallbacksvEN41InitializationPlayerUpdateTimeRegistrator7ForwardEv
Us:__ZN9Scripting11UnityEngine10Animations16ConstraintSource12CleanupProxyEv
$kf:_TimeSpan_Subtract_m1264203589_AdjustorThunk
cyc:__ZN19OverlapPointQuery2D14InitializeAABBER6b2AABB
ceb:__ZL26Transfer_SimpleNativeClassI24GenerateTypeTreeTransfer8GradientLb0EEvRK29SerializationCommandArgumentsR31RuntimeSerializationCommandInfo
ALe:_InternalEnumerator_1_System_Collections_IEnumerator_get_Current_m888718134_gshared
Ovg:__Z175RuntimeInvoker_Void_t1185182177_SByte_t1669577662_SByte_t1669577662_SByte_t1669577662_SByte_t1669577662_SByte_t1669577662_SByte_t1669577662_SByte_t1669577662_SByte_t1669577662PFvvEPK10MethodInfoPvPS4_
Wxf:_Object_Destroy_m3118546832
zAe:_DateTime_FromTicks_m4059645178_AdjustorThunk
b3c:_ConfigHandler_ParseTime_m1787834288
e2b:__ZN9ShaderLab7Program27CreateFromSerializedProgramERKNS_17SerializedProgramE10ShaderTypeiP16PropertyNamesSetPK6Shader
$ed:_Assembly_Load_m3487507613
LRh:dynCall_viiiifii
ngh:__ZN6il2cpp2gc19AppendOnlyGCHashMapINSt3__24pairIPK11Il2CppImageP11Il2CppClassEEP22Il2CppReflectionModule17ReflectionMapHashIS9_ENS2_8equal_toIS9_EEEC2Ev
DQ:__Z20GetPersistentManagerv
YM:__ZN21SystemInfoStringCache16StaticInitializeEPv
gyh:__ZN6il2cpp2gc16GarbageCollector23MakeDescriptorForObjectEPji
U_b:__ZNSt3__26vectorIN9ShaderLab20SerializedSubProgram15StructParameterENS_9allocatorIS3_EEE6assignIPS3_EENS_9enable_ifIXaasr21__is_forward_iteratorIT_EE5valuesr16is_constructibleIS3_NS_15iterator_traitsISA_E9referenceEEE5valueEvE4typeESA_SA_
SLc:__ZN9Scripting11UnityEngine9Analytics21AnalyticsSessionState12CleanupProxyEv
Rnb:__ZNK13MonoBehaviour7GetNameEv
_Ta:__ZN19ScriptingInvocation28AdjustArgumentsToMatchMethodEv
Buh:__ZN15dense_hashtableI10KeyWrapperIP18Il2CppGenericClassES3_N6il2cpp8metadata22Il2CppGenericClassHashEN14dense_hash_setIS3_S6_NS3_14EqualsComparerINS5_25Il2CppGenericClassCompareEEENSt3__29allocatorIS3_EEE8IdentityESA_SD_E6insertERKS3_
xw:__Z15_CheckFMODError11FMOD_RESULTPKciS1_
htd:_HMAC_KeySetup_m661741544
BQe:_InternalEnumerator_1_get_Current_m1506120701_gshared
gff:_Latin1Encoding__ctor_m498920120
sjh:__ZN6il2cpp2vm4Type19GetGenericParameterEPK10Il2CppType
Tre:_StreamReader_Peek_m2272511193
ahe:_DateTimeFormatInfo_FillAllDateTimePatterns_m2683124783
Pcd:_NumberFormatter_get_IsFloatingSource_m3714711779
vmf:_Type_GetConstructor_m1195697116
Wc:_glBeginQuery
s3:__ZL48__ManagedRegistrationHelperFunction_VisibleLightPv
yHc:__ZN10Effector2D25CheckEffectorColliderMaskEP10Collider2DS1_
EGb:__ZN6Camera12RenderStereoENS_10RenderFlagE8CullFlagPNS_24PerformEyeRenderFunctionE
JXa:__ZN20LocalFileSystemPosix10ToAbsoluteEPKc
coa:__ZN20TierGraphicsSettings8TransferI19StreamedBinaryWriteILb0EEEEvRT_
ZSa:__Z23CollectSceneGameObjectsR13dynamic_arrayIiLj0EE
fCh:__ZN6il2cpp2vm13ComObjectBase16DisconnectObjectEj
fm:f0
vNh:_getcwd
Hvc:__ZN16b2CapsuleContact6CreateEP9b2FixtureiS1_iP16b2BlockAllocator
_ca:__ZN25ThreadsafeLinearAllocatorD2Ev
kgc:__ZL50GetAndClearChangedTransformsForMultilpleSystemsJobP45GetChangedTransformsForMultipleSystemsJobDatajPK23TransformAccessReadOnlyPKyj
ZRa:__Z21SendMessageToEveryoneRK17MessageIdentifier11MessageData
QW:__ZN21BillboardBatchManager16StaticInitializeEPv
Hve:_DateTime_AbsoluteDays_m4235097773
tO:__ZN12_GLOBAL__N_138ArchiveRedirectFileSystemStaticDestroyEPv
_qg:__Z74RuntimeInvoker_RuntimeObject_RuntimeObject_RuntimeObject_SByte_t1669577662PFvvEPK10MethodInfoPvPS4_
Qrc:__ZL55__ManagedRegistrationHelperFunction_PhysicsJobOptions2DPv
Pya:__ZN12CubemapArray34UpdateFileTextureUploadInstructionEP26FileAssetUploadInstructionj
HBb:__Z23CreateSparseTextureGLES9TextureIDii14GraphicsFormati
Gyc:__Z18AddCollisionReportP11Collision2DR13dynamic_arrayINS_15CollisionReportELj0EE
Cee:_CCMath_mod_m3631663509
Zkf:_TimeSpan_Negate_m1889505500_AdjustorThunk
h$a:__ZN16MemoryFileSystemD0Ev
aPc:__ZN11UnityEngine7Connect20RemoteConfigSettings7SetJSONER8JSONReadb
Hsc:__ZNK12b2MotorJoint16GetReactionForceEf
m$g:__ZN6il2cpp2vm5Class15GetEnumBaseTypeEP11Il2CppClass
qCd:_Context_set_WriteSequenceNumber_m942577065
zd:_glVertexAttrib4fv
oza:__ZNK9Texture2D16GetNpotTexelSizeEv
Dcd:_NumberFormatter_Init_m3576155222
HYa:__ZL33FileEntryInfoListToFolderContentsRKN4core12basic_stringIcNS_20StringStorageDefaultIcEEEERK19dynamic_block_arrayI13FileEntryInfoLj32EERNSt3__23setIS3_NSB_4lessIS3_EENSB_9allocatorIS3_EEEE
pae:_ArrayListWrapper_IndexOf_m3692065720
Kef:_Array_InternalArray__get_Item_TisX509ChainStatus_t133602714_m2237651489_gshared
_0a:__ZN9GfxDevice22GetDefaultVertexBufferE26GfxDefaultVertexBufferTypej
R5e:_Array_InternalArray__ICollection_Contains_TisInt64_t3736567304_m2911357929_gshared
xrb:__Z17BeginSplashScreenb
QNh:___fseeko_unlocked
V7:__ZN9Scripting11UnityEngine12Experimental9Playables21TexturePlayableOutput12CleanupProxyEv
ced:_Object_ToString_m1740002499
INh:_sscanf
cLa:__ZN14SafeBinaryRead21TransferSTLStyleArrayINSt3__26vectorI17BlendShapeChannelNS1_9allocatorIS3_EEEEEEvRT_17TransferMetaFlags
Tqd:_SByte_ToString_m3584531119_AdjustorThunk
h1b:__ZN9ShaderLab16SerializedShader8TransferI19StreamedBinaryWriteILb0EEEEvRT_
_ud:_ModulusRing__ctor_m2420310199
Mve:_Convert_ToDateTime_m626620011
ATe:_Enumerator_System_Collections_IDictionaryEnumerator_get_Key_m2500634048_AdjustorThunk
Jmh:__ZN14dense_hash_mapI10KeyWrapperIP11Il2CppClassES2_N6il2cpp8metadata16SZArrayClassHashENS3_14EqualsComparerINS5_19SZArrayClassCompareEEENSt3__29allocatorINSA_4pairIKS3_S2_EEEEE15set_deleted_keyERSD_
izb:__ZN18GfxFramebufferGLES18GetFramebufferNameERK20GfxRenderTargetSetup
M5:__ZN9Scripting11UnityEngine9Transform9InitProxyEv
BFh:_GC_print_block_list
Mih:__ZN6il2cpp2vm14TypeNameParser12ParseVersionERKNSt3__212basic_stringIcNS2_11char_traitsIcEENS2_9allocatorIcEEEERtSB_SB_SB_
yY:__ZN13PlayableGraph27SchedulePlayableDestructionERK9HPlayable
sUh:_glGetFramebufferAttachmentParameteriv__wrapper
V1c:_ChannelServices_GetCurrentChannelInfo_m3041604116
k9a:__Z22scripting_array_length17ScriptingArrayPtr
Cse:_SynchronizedReader_Peek_m148942882
Iug:__Z95RuntimeInvoker_Void_t1185182177_RuntimeObject_Int32_t2950945753_Int32_t2950945753_RuntimeObjectPFvvEPK10MethodInfoPvPS4_
Zxa:__ZN14SafeBinaryRead20TransferTypelessDataEjPvi
pJa:__ZN14SpriteRenderer18UpdateCachedSpriteEb
Sxh:__ZN15dense_hashtableINSt3__24pairIK10KeyWrapperIPcES3_EES4_N6il2cpp5utils15PassThroughHashIS3_EEN14dense_hash_mapIS4_S3_SA_NS4_14EqualsComparerINS0_8equal_toIS3_EEEENS0_9allocatorIS6_EEE9SelectKeyESF_SH_E3endEv
kka:__Z19GetActiveColorSpacev
RXc:_MonoMethodInfo_GetDeclaringType_m2924452727
Tsb:__ZN13sorted_vectorINSt3__24pairIiN17InstancingBatcher12PropertyTypeEEEN10vector_mapIiS3_NS0_4lessIiEE13stl_allocatorIS4_L18MemLabelIdentifier1ELi16EEE13value_compareESA_E21sort_clear_duplicatesEv
KN:__Z6StrCmpPKcS0_
P9e:_Array_InternalArray__ICollection_Add_TisByte_t1134296376_m2816118303_gshared
W2b:__Z21CheckGpuProgramUsable20ShaderGpuProgramType
pac:__ZN13ProduceHelperI14Texture2DArrayLb0EE7ProduceE10MemLabelId18ObjectCreationMode
Rzh:__ZN6il2cpp2os9Directory20GetFileSystemEntriesERKNSt3__212basic_stringIcNS2_11char_traitsIcEENS2_9allocatorIcEEEESA_iiPi
T3d:_Array_System_Collections_IList_Add_m1063688101
sOb:__ZNK15SharedLightData24GetFinalShadowResolutionEv
ZNa:__ZN12AspectRatios8TransferI18StreamedBinaryReadILb0EEEEvRT_
g4b:__ZN10GameObject14CopyPropertiesERS_
D6e:_Array_InternalArray__ICollection_Remove_TisLink_t544317964_m1280781374_gshared
l6d:_BitConverter_DoubleWordsAreSwapped_m1474345095
KGg:__Z114RuntimeInvoker_Int32_t2950945753_Vector2_t2156229523_Vector2_t2156229523_ContactFilter2D_t3805203441_RuntimeObjectPFvvEPK10MethodInfoPvPS4_
Iae:_FixedSizeArrayListWrapper_set_Capacity_m4221053039
jOh:_rand
WUh:_emscripten_glFramebufferRenderbuffer__wrapper
jab:__ZN14SafeBinaryRead21TransferSTLStyleArrayINSt3__26vectorI17AnimationCurveTplIfE13stl_allocatorIS4_L18MemLabelIdentifier1ELi16EEEEEEvRT_17TransferMetaFlags
jbe:_SynchronizedArrayListWrapper_Contains_m3809499313
Q6e:_Array_InternalArray__ICollection_Remove_TisLabelData_t360167391_m3556246844_gshared
BSd:_SymmetricAlgorithm_set_IV_m3196220308
RQb:__Z22PrepareOptimizedPlanesPK5PlaneiPKN4math7_float4E
jK:__ZN11UnityEngine15CloudWebService17WebFileDownloaderINS0_20WebRequestRestClientENS0_23WebRequestRestHeaderMapEE10InitializeERKN4core12basic_stringIcNS5_20StringStorageDefaultIcEEEE
OW:__ZN17UniqueIDGenerator15CreatePureIndexEv
d8b:__Z48InitializeRectTransformAnimationBindingInterfacev
wQa:__ZNSt3__26vectorIN15ResourceManager10DependencyE13stl_allocatorIS2_L18MemLabelIdentifier52ELi16EEE6assignINS_11__wrap_iterIPS2_EEEENS_9enable_ifIXaasr21__is_forward_iteratorIT_EE5valuesr16is_constructibleIS2_NS_15iterator_traitsISC_E9referenceEEE5valueEvE4typeESC_SC_
B_g:__ZN15dense_hashtableINSt3__24pairIK10KeyWrapperIPK22Il2CppGenericParameterEP11Il2CppClassEES6_N6il2cpp5utils11PointerHashIS4_EEN14dense_hash_mapIS6_S9_SE_NS6_14EqualsComparerINS0_8equal_toIS5_EEEENS0_9allocatorISA_EEE9SelectKeyESJ_SL_E14squash_deletedEv
Jta:__ZN9ShaderLabL27GetDesiredRenderTextureDescEPK6Camera
wQe:_InternalEnumerator_1_get_Current_m1523142935_AdjustorThunk
buc:__ZNK12b2MouseJoint17GetReactionTorqueEf
gcf:_Array_InternalArray__Insert_TisMark_t3471605523_m2854535880_gshared
Z6c:_MethodReturnDictionary__cctor_m278392388
oIb:__ZNK9Transform18TransformDirectionERK8Vector3f
rEf:_SslStreamBase_get_CanWrite_m1622082918
u1e:_PrimalityTests_RabinMillerTest_m1471415870
I9a:__Z29Transfer_Blittable_ArrayFieldI14SafeBinaryReaddEvRT_R9ArrayInfoRK23StaticTransferFieldInfo
Gid:_GenericTypeParameterBuilder_GetCustomAttributes_m580748276
q5g:__ZN15dense_hashtableINSt3__24pairIK10KeyWrapperIPK11Il2CppClassEPKcEES6_N6il2cpp5utils11PointerHashIS3_EEN14dense_hash_mapIS6_S9_SE_NS6_14EqualsComparerINS0_8equal_toIS5_EEEENS0_9allocatorISA_EEE9SelectKeyESJ_SL_E12resize_deltaEjj
SPh:__ZNK10__cxxabiv120__si_class_type_info27has_unambiguous_public_baseEPNS_19__dynamic_cast_infoEPvi
aB:__ZN9AudioClip23VirtualRedirectTransferER14SafeBinaryRead
dvd:_Kernel_LeftShift_m4140742987
Oed:_Assembly_GetManifestResourceInternal_m1224391897
Zka:__Z30AddDefaultStreamsToMeshBuffersR9GfxDeviceR11MeshBuffersj17ShaderChannelMaskS3_
WN:__ZL16GetInterfaceImpl18UnityInterfaceGUID
oCh:__ZN6il2cpp6icalls8mscorlib6System15MonoCustomAttrs27GetCustomAttributesInternalEP12Il2CppObjectP20Il2CppReflectionTypeb
$Jb:__ZN13dynamic_arrayI11CulledLightLj0EE6insertEPS0_PKS0_S4_
w9:__ZN9Scripting11UnityEngine11Application9InitProxyEv
Prb:__ZN14PreloadManager35WaitForAllAsyncOperationsToCompleteEv
Q0g:__ZN13Il2CppHashMapIP9FieldInfoiN6il2cpp5utils11PointerHashIS0_EENSt3__28equal_toIS1_EENS6_9allocatorINS6_4pairIK10KeyWrapperIS1_EiEEEEEC2EjRKS5_RKS8_
UO:__ZNSt3__26__treeINS_12__value_typeIPKc11ShaderTagIDEENS_19__map_value_compareIS3_S5_27compare_tstring_insensitiveIS3_ELb1EEENS_9allocatorIS5_EEE7destroyEPNS_11__tree_nodeIS5_PvEE
tw:__ZL31InitializeAudioScriptingClassesv
JHb:__Z14SortGUIByDepthP10GUIElementS0_
dxf:_PlayerConnection_OnEnable_m4286555589
fEg:__Z69RuntimeInvoker_UInt32_t2560061978_Int32_t2950945753_SByte_t1669577662PFvvEPK10MethodInfoPvPS4_
$Rg:_UriParser__cctor_m3655686731
jYa:__ZNK20LocalFileSystemPosix21GetAvailableDiskSpaceEPKcRy
Hu:__ZNSt3__26__treeIiNS_4lessIiEENS_9allocatorIiEEE7destroyEPNS_11__tree_nodeIiPvEE
L0a:__ZNK9GfxDevice14GetWorldMatrixEv
JUg:_AudioSampleProvider_InternalSetScriptingPtr_m3742743270
HWa:__Z19scripting_array_new17ScriptingClassPtrjj
jxa:__ZN6prcoreL10inner_flipILj4EEEvPhS1_j
z$b:__ZNSt3__26vectorIN9ShaderLab20SerializedSubProgram16TextureParameterENS_9allocatorIS3_EEE6assignIPS3_EENS_9enable_ifIXaasr21__is_forward_iteratorIT_EE5valuesr16is_constructibleIS3_NS_15iterator_traitsISA_E9referenceEEE5valueEvE4typeESA_SA_
T3g:__ZN13Il2CppHashMapIN6il2cpp5utils13dynamic_arrayIPK10Il2CppTypeLj4EEEPFvvENS0_8metadata19Il2CppSignatureHashENS9_22Il2CppSignatureCompareENSt3__29allocatorINSC_4pairIK10KeyWrapperIS6_ES8_EEEEEC2EjRKSA_RKSB_
Scg:__ZL104Physics2D_t1528932956_CustomAttributesCacheGenerator_Physics2D_GetRayIntersectionAll_Internal_m643548862P21CustomAttributesCache
Vgh:__ZN15dense_hashtableINSt3__24pairIK10KeyWrapperIPK22Il2CppGenericParameterEPK24MonoGenericParameterInfoEES6_N6il2cpp5utils11PointerHashIS4_EEN14dense_hash_mapIS6_SA_SF_NS6_14EqualsComparerINS0_8equal_toIS5_EEEENS0_9allocatorISB_EEE9SelectKeyESK_SM_E15set_deleted_keyERKSB_
Rqd:_SByte_TryParse_m2431806379
jra:__ZN6prcoreL11inner_clearILj2EEEvPhjjj
gaa:__ZN9Scripting5Unity11Collections8LowLevel6Unsafe24NativeContainerAttribute9InitProxyEv
tsd:_DSACryptoServiceProvider_get_KeySize_m786836990
xtc:__ZN12b2WheelJoint24SolvePositionConstraintsERK12b2SolverData
kg:_emscripten_exit_fullscreen
j8b:__ZZL31RegisterRectTransformPropertiesR22GenericPropertyBindingEN39Wrapper_RectTransformAnchoredPositiony113GetFloatValueEPv
Ydd:_Object_MemberwiseClone_m1474068832
yyh:__ZN6il2cpp6icalls8mscorlib6System6String19InternalAllocateStrEi
Qqc:__Z29Transfer_Blittable_ArrayFieldI8JSONRead11QuaternionfEvRT_R9ArrayInfoRK23StaticTransferFieldInfo
idc:__ZNK24RendererAnimationBinding15GenerateBindingERKN4core12basic_stringIcNS0_20StringStorageDefaultIcEEEEbRN11UnityEngine9Animation14GenericBindingE
Xfa:__ZN33RendererCullingCallbackPropertiesC2ERK6CameraRK10Matrix4x4f
FId:_IPv6Address__ctor_m3704187391
xqa:__Z15GetFlareManagerv
maf:_Array_InternalArray__ICollection_Add_TisResourceCacheItem_t51292791_m3851804827_gshared
qMh:___toread
Epb:__ZNSt3__26vectorI10vector_mapIiiNS_4lessIiEE13stl_allocatorINS_4pairIiiEEL18MemLabelIdentifier38ELi16EEES4_IS9_LS7_38ELi16EEE26__swap_out_circular_bufferERNS_14__split_bufferIS9_RSA_EE
Bud:_BigInteger_get_Rng_m3283260184
tQh:___cxa_is_pointer_type
IAb:__ZN4gles20DestroyRenderSurfaceEP7ApiGLESP17RenderSurfaceGLES
mef:_Array_InternalArray__get_Item_TisKeyValuePair_2_t2530217319_m2886833132_gshared
T2:__ZL50__ManagedRegistrationHelperFunction_UnityEventBasePv
Hld:_RemotingConfiguration_get_ProcessId_m2180277012
HG:__ZN11UnityEngine15CloudWebService17SessionEventQueue14ParseEventDataERKN4core12basic_stringIcNS2_20StringStorageDefaultIcEEEE
byb:__ZN13TranslateGLES4InitERK12GraphicsCaps16GfxDeviceLevelGL
bme:_Int64_System_IConvertible_ToUInt16_m848637338_AdjustorThunk
V8e:_Array_InternalArray__IndexOf_TisLink_t544317964_m455584088_gshared
Iig:_Enumerator_get_Current_m2282646120_AdjustorThunk
Unc:__ZN9JSONWrite8TransferI13dynamic_arrayIN4math12int3_storageELj0EEEEvRT_PKc17TransferMetaFlags
mDh:__ZN6il2cpp8metadataL7CompareEPK10Il2CppTypeS3_
TFd:_HybridDictionary__ctor_m1681134385
sga:__ZN21ScalableBufferManager11GetInstanceEv
Nkb:__Z18Transfer_BlittableI18StreamedBinaryReadILb0EELb1E10ColorRGBAfEvRK29SerializationCommandArgumentsR31RuntimeSerializationCommandInfo
hlf:_TimeSpan_op_LessThan_m1594498345
e5b:__ZL27GetComponentsImplementationILb0ELi0EEbR10GameObjectbRK17CompareParametersRK39GetComponentsImplementation_ReturnValue
Dob:__ZN9Scripting36IsSystemCollectionsGenericDictionaryE17ScriptingClassPtr
Dqg:_UnityEvent_1_FindMethod_Impl_m322741469_gshared
gBf:_Enumerator_get_Current_m2591725252
QT:__ZL16ReadTypeTreeImplILb0EEbR8TypeTreeRK16TypeTreeIteratorRPKhS6_i
SPd:_Interval_Contains_m110351300_AdjustorThunk
pxe:_Convert_ToInt32_m3048308591
JBe:_DateTimeOffset_Equals_m3030958070
aqa:__ZNK22BuiltinResourceManager21GetResourceInstanceIDEPKN5Unity4TypeERKN4core12basic_stringIcNS4_20StringStorageDefaultIcEEEE
Gge:_DateTimeFormatInfo_GetMonthName_m2034512315
OJb:__ZN28LightProbeProxyVolumeContext8CopyFromERKS_
zfa:__ZN23TransformChangeDispatch32QueueTransformChangeIfHasChangedER18TransformHierarchy
m$e:_SimpleCollator_ToDashTypeValue_m6184468
TGg:__Z105RuntimeInvoker_RuntimeObject_Vector3_t3722313464_Vector3_t3722313464_Single_t1397266774_Int32_t2950945753PFvvEPK10MethodInfoPvPS4_
JAb:__ZN7ApiGLES18DeleteRenderbufferERj
Uzb:__ZL23ProgramUniformMatrix4fvPK7ApiGLESjiihPKv
Wtb:__ZN7ApiGLES13CreateTextureEjj14GraphicsFormatiiiii
k5d:_Array_new_gap_m262136975
f$b:__ZN9ShaderLab20SerializedSubProgram15MatrixParameter8TransferI14SafeBinaryReadEEvRT_
g5b:__ZL27GetComponentsImplementationILb0ELi1EEbR10GameObjectbRK17CompareParametersRK39GetComponentsImplementation_ReturnValue
ZLd:_X509Store__ctor_m275383717
T$e:_SimpleCollator_LastIndexOfOrdinalIgnoreCase_m2984667899
M6g:__ZN6il2cpp2vm13MetadataCache40AddThreadLocalStaticOffsetForFieldLockedEP9FieldInfoiRKNS_2os12FastAutoLockE
Sha:__ZN13RenderTexture7ReleaseEv
noc:__Z18Transfer_BlittableI8JSONReadLb1EN4math12int3_storageEEvRK29SerializationCommandArgumentsR31RuntimeSerializationCommandInfo
RIa:__ZN10MeshFilter23VirtualRedirectTransferER14SafeBinaryRead
iMa:__ZN12MeshRenderer17MainThreadCleanupEv
q$g:__ZN6il2cpp2vmL10InitLockedEP11Il2CppClassRKNS_2os12FastAutoLockE
u5a:__ZN22CreateGpuProgramOutput12CreateParamsEv
as:__ZL62__ManagedRegistrationHelperFunction_AnimatorOverrideControllerPv
cMe:_InternalEnumerator_1_System_Collections_IEnumerator_get_Current_m548105685_gshared
Uxb:__ZNK14GfxContextGLES13GetDefaultFBOEv
l7d:_Byte_System_IConvertible_ToType_m2251112646
Xhc:__Z55Register_UnityEngine_MonoBehaviour_StopCoroutineManagedv
DAe:_DateTime_get_Hour_m4153505178_AdjustorThunk
XTg:_AudioExtensionManager_WriteExtensionProperties_m3028464154
CUd:_Evidence_Equals_m1478353107
wkh:_il2cpp_class_is_enum
Plh:__ZN6il2cpp2vm6Thread49CheckCurrentThreadForInterruptAndThrowIfNecessaryEv
lge:_CultureInfo_construct_datetime_format_m1928121315
Eka:__ZNSt3__23mapIN9ShaderLab16FastPropertyNameEN18UnityPropertySheet11UnityTexEnvENS_4lessIS2_EENS_9allocatorINS_4pairIKS2_S4_EEEEEixERS9_
Xtb:__ZNK13TranslateGLES25GetTextureTargetDimensionEj
cmg:_ReadOnlyCollection_1_System_Collections_IList_Remove_m1842121503_gshared
Loe:_File_OpenRead_m2936789020
nte:_Enumerator_get_Entry_m3561948123
NFg:__Z94RuntimeInvoker_Void_t1185182177_RuntimeObject_PlayableGraph_t3515989261_RuntimeObject_IntPtr_tPFvvEPK10MethodInfoPvPS4_
li:_emscripten_glVertexAttrib4f
hbb:__ZN14SafeBinaryRead21TransferSTLStyleArrayI13dynamic_arrayIN4math12int3_storageELj0EEEEvRT_17TransferMetaFlags
t2b:__ZNSt3__26vectorIN20GpuProgramParameters14ConstantBufferENS_9allocatorIS2_EEE8__appendEj
HMd:_X509CertificateCollection_AddRange_m3683116910
w2c:_SinkProviderData__ctor_m1624738837
fLg:__Z88RuntimeInvoker_RuntimeObject_RuntimeObject_SByte_t1669577662_RuntimeObject_RuntimeObjectPFvvEPK10MethodInfoPvPS4_
igd:_CustomAttributeTypedArgument_Equals_m2261980307
F2a:__ZN9GfxDevice18SetGlobalDepthBiasEff
$8g:__ZN6il2cpp6icalls8mscorlib6System8MonoType12get_AssemblyEP20Il2CppReflectionType
Cn:FUNCTION_TABLE_vi
zi:_emscripten_glGetPointerv
Odf:_Dictionary_2_Do_CopyTo_TisKeyValuePair_2_t3842366416_TisRuntimeObject_m1564656153_gshared
lrb:__Z26ApplyMaterialPassWithCacheRK18SharedMaterialDataR17ShaderPassContextP6ShaderPN9ShaderLab4PassEibPKNS6_10GrabPassesEPNS6_11SubProgramsEPK22DeviceRenderStateBlock
Q3f:__ZL81Camera_t4157153871_CustomAttributesCacheGenerator_Camera_RaycastTry2D_m2460696262P21CustomAttributesCache
Vbd:_MulticastDelegate_KPM_m22863605
KPe:_InternalEnumerator_1_get_Current_m1897120917_AdjustorThunk
sbd:_MonoType_ReorderParamArrayArguments_m2458683451
qnd:_FormatterConverter_ToInt16_m4282804414
Zyg:__Z81RuntimeInvoker_Void_t1185182177_Int64_t3736567304_RuntimeObject_Int64_t3736567304PFvvEPK10MethodInfoPvPS4_
Lrh:__ZN30dense_hashtable_const_iteratorINSt3__24pairIK10KeyWrapperIP14Il2CppIUnknownEjEES5_N6il2cpp5utils11PointerHashIS3_EEN14dense_hash_mapIS5_jSB_NS5_14EqualsComparerINS0_8equal_toIS4_EEEENS0_9allocatorIS7_EEE9SelectKeyESG_SI_EppEv
Hoe:_FileStream__ctor_m3151488352
j5d:_Array_swap_m547389985
FCa:__ZN8Renderer23VirtualRedirectTransferER14SafeBinaryRead
Fof:_UInt32_ToString_m2420423038
Vgg:_List_1_System_Collections_IList_Add_m634558835_gshared
jpe:_FileStream_get_Length_m426703983
ffc:__Z13RegisterClassI10TagManagerEvPKc
$v:__ZN12AudioManager5ResetEv
A3f:__ZL68DisallowMultipleComponent_t1422053217_CustomAttributesCacheGeneratorP21CustomAttributesCache
o0:__ZN6prcoreL17RemapGenericFloatI17TexFormatRGBAHalf15TexFormatRGHalfEEvPKNS_9InnerInfoE
bAh:__ZN6il2cpp6icalls8mscorlib6System11Environment20GetWindowsFolderPathEi
Vrc:__ZN9Scripting11UnityEngine19PhysicsJobOptions2D12CleanupProxyEv
IGh:_GC_is_heap_ptr
g2e:_ASN1_DecodeTLV_m1200977460
xuf:_UnityEventBase_PrepareInvoke_m1785382128
kMa:__ZNK12MeshRenderer22GetTypeVirtualInternalEv
G8d:_Char_System_IConvertible_ToUInt32_m3901815580
IGc:__ZN13ProduceHelperI13BoxCollider2DLb0EE7ProduceE10MemLabelId18ObjectCreationMode
xBg:__Z157RuntimeInvoker_Int32_t2950945753_RuntimeObject_Int32_t2950945753_Int32_t2950945753_Int32_t2950945753_SByte_t1669577662_SByte_t1669577662_Int32U26_t1369213839PFvvEPK10MethodInfoPvPS4_
D2e:_BitConverterLE_ToInt16_m1855092160
Hua:__ZN14SafeBinaryRead19TransferSTLStyleMapINSt3__23mapIN4core12basic_stringIcNS3_20StringStorageDefaultIcEEEES7_NS1_4lessIS7_EE13stl_allocatorINS1_4pairIKS7_S7_EEL18MemLabelIdentifier1ELi16EEEEEEvRT_17TransferMetaFlags
Kr:__ZL49__ManagedRegistrationHelperFunction_AimConstraintPv
OG:__ZN11UnityEngine15CloudWebService16SessionContainer21PrepareDataErrorEventERN4core12basic_stringIcNS2_20StringStorageDefaultIcEEEE
w9d:_ArrayList_set_Item_m2003485935
c0c:_SatelliteContractVersionAttribute__ctor_m3630863995
Ogb:__Z19TransferField_ArrayI19StreamedBinaryWriteILb0EE27Converter_SimpleNativeClassI8GUIStyleEEvRK23StaticTransferFieldInfoR31RuntimeSerializationCommandInfoRT0_
smg:_ReadOnlyCollection_1_System_Collections_Generic_IListU3CTU3E_RemoveAt_m3969985996_gshared
jpa:__ZN24GenerateTypeTreeTransfer8TransferI13dynamic_arrayI8Vector3fLj0EEEEvRT_PKc17TransferMetaFlags
bxf:_PlayerConnection_get_isConnected_m911966057
ncd:_NumberFormatter_FastToDecHex_m699829267
boc:__Z35Transfer_Blittable_FixedBufferFieldI8JSONReadiEvRK29SerializationCommandArgumentsR31RuntimeSerializationCommandInfo
r7g:__ZNSt3__213__vector_baseIN6il2cpp2os19SocketHandleWrapperENS_9allocatorIS3_EEED2Ev
NMf:__ZL48_Type_t3588564251_CustomAttributesCacheGeneratorP21CustomAttributesCache
mDa:__ZN28ReflectionProbeAnchorManager18RemoveCachedAnchorERK4PPtrI9TransformE
Hb:invoke_viiffi
cme:_Int64_System_IConvertible_ToUInt32_m109903525
orc:__ZN5Unity9rapidjson13GenericReaderINS0_4UTF8IcEES3_13JSONAllocatorE10ParseFalseILj0ENS0_19GenericStringStreamIS3_EENS0_15GenericDocumentIS3_S4_S4_EEEEvRT0_RT1_
dla:__ZL13MeshExtractorPv16VertexInputMasksiR11MeshBuffersR16DrawBuffersRangeRiS5_
Eya:__ZNK12CubemapArray20GetRuntimeMemorySizeEv
Myb:__ZN7ApiGLES11BindTextureEjj
b0b:__Z14resize_trimmedINSt3__26vectorIN9ShaderLab18SerializedPropertyENS0_9allocatorIS3_EEEEEvRT_j
Z4g:__ZN6il2cpp2vm13MetadataCache38GetMethodInfoFromMethodDefinitionIndexEi
Khc:__Z39MonoBehaviour_CUSTOM_GetScriptClassNameP12Il2CppObject
RLg:_CostDelegate_EndInvoke_m2797921932
OFa:__ZN10VertexData8TransferI24GenerateTypeTreeTransferEEvRT_
Aue:_Double_IsInfinity_m820013146
rAh:__ZN13Il2CppHashMapIPK19Il2CppGenericMethodP10MethodInfoN6il2cpp8metadata23Il2CppGenericMethodHashENS6_26Il2CppGenericMethodCompareENSt3__29allocatorINS9_4pairIK10KeyWrapperIS2_ES4_EEEEEC2EjRKS7_RKS8_
qhf:_UTF8Encoding_InternalGetByteCount_m2120178851
pQb:__ZL10CullLightsRK22SceneCullingParametersR11CullResults
uze:_Convert_ToUInt64_m3170916409
tUc:__ZN9Scripting11UnityEngine12Experimental2XR14ReferencePoint12CleanupProxyEv
Rle:_Int64_System_IConvertible_ToInt16_m4062196970_AdjustorThunk
Pbd:_MonoType_GetGenericTypeDefinition_m3201894896
o6b:__Z40GetTemporaryCachePathApplicationSpecificv
g1a:__ZN9GfxDevice16EndAsyncJobFrameEv
SGg:__Z99RuntimeInvoker_Int32_t2950945753_Ray_t3785851493_RuntimeObject_Single_t1397266774_Int32_t2950945753PFvvEPK10MethodInfoPvPS4_
kz:__ZN12AudioManager27InitialCompleteDomainReloadEv
xk:___syscall3
IGg:__Z135RuntimeInvoker_RaycastHit2D_t2279581989_Vector2_t2156229523_Vector2_t2156229523_Single_t1397266774_Int32_t2950945753_Single_t1397266774PFvvEPK10MethodInfoPvPS4_
Ak:___syscall6
Ck:___syscall4
s7c:_ReturnMessage__ctor_m2352989078
c0a:__ZNSt3__26__treeINS_12__value_typeIN4core12basic_stringIcNS2_20StringStorageDefaultIcEEEEPN16MemoryFileSystem4NodeEEENS_19__map_value_compareIS6_SA_NS_4lessIS6_EELb1EEE13stl_allocatorISA_L18MemLabelIdentifier55ELi16EEE7destroyEPNS_11__tree_nodeISA_PvEE
iwh:__ZN6il2cpp2vm3RCW14QueryInterfaceILb1EEEP14Il2CppIUnknownP15Il2CppComObjectRK10Il2CppGuid
CBd:_TlsServerCertificateRequest__ctor_m1334974076
hEa:__ZN14SafeBinaryRead21TransferSTLStyleArrayI13dynamic_arrayI33EnlightenTerrainChunksInformationLj0EEEEvRT_17TransferMetaFlags
sxe:_Convert_ToInt32_m1613163543
v6:__ZN9Scripting11UnityEngine9Playables8Playable12CleanupProxyEv
Xlg:_ReadOnlyCollection_1_System_Collections_ICollection_CopyTo_m3127175806_gshared
Rk:_emscripten_glShaderBinary
Mnf:_UInt16_ToString_m760649087
bYa:__ZNK20LocalFileSystemPosix6ExistsERK13FileEntryData
vsf:_Camera_GetAllCameras_m668492922
glf:_TimeSpan_op_Inequality_m2467851530
rjb:__ZN17AnimationCurveTplIfE8TransferI18StreamedBinaryReadILb1EEEEvRT_
ddg:__ZL73ContactFilter2D_t3805203441_CustomAttributesCacheGenerator_maxNormalAngleP21CustomAttributesCache
D5d:_Swapper_BeginInvoke_m1688449973
Ojh:_il2cpp_set_data_dir
sEg:__Z81RuntimeInvoker_Void_t1185182177_RuntimeObject_Int32_t2950945753_Int64_t3736567304PFvvEPK10MethodInfoPvPS4_
du:__ZNSt3__26vectorIN4core12basic_stringIcNS1_20StringStorageDefaultIcEEEE13stl_allocatorIS5_L18MemLabelIdentifier1ELi16EEE21__push_back_slow_pathIS5_EEvOT_
Bzg:__Z86RuntimeInvoker_Boolean_t97287965_Int16_t2552820387_Int16_t2552820387_Int32_t2950945753PFvvEPK10MethodInfoPvPS4_
NNc:__ZN11UnityEngine15PlatformWrapper30GetGraphicsDriverLibraryStringEv
Xpd:_RuntimeMethodHandle_Equals_m3301340296_AdjustorThunk
bpf:_UInt64_System_IConvertible_ToSingle_m925613075_AdjustorThunk
Okb:__Z18Transfer_BlittableI18StreamedBinaryReadILb0EELb0E4AABBEvRK29SerializationCommandArgumentsR31RuntimeSerializationCommandInfo
DQa:__ZN24GenerateTypeTreeTransfer19TransferSTLStyleMapINSt3__28multimapIN4core12basic_stringIcNS3_20StringStorageDefaultIcEEEE4PPtrI6ObjectENS1_4lessIS7_EE13stl_allocatorINS1_4pairIKS7_SA_EEL18MemLabelIdentifier52ELi16EEEEEEvRT_17TransferMetaFlags
kGb:__Z14DrawGUITextureRK5RectTIfEP7Texture11ColorRGBA32P8Materiali
omg:_ReadOnlyCollection_1_System_Collections_Generic_ICollectionU3CTU3E_Add_m2686599243_gshared
Kwc:__ZNK11b2EdgeShape7RayCastEP15b2RayCastOutputRK14b2RayCastInputRK11b2Transformi
Mnc:__ZN9JSONWrite8TransferI4AABBEEvRT_PKc17TransferMetaFlags
e_b:__ZN15dense_hashtableINSt3__24pairIKiN4core17string_with_labelILi1EEEEEi18SInt32HashFunctionN14dense_hash_mapIiS5_S7_NS0_8equal_toIiEE13stl_allocatorIS6_L18MemLabelIdentifier1ELi16EEE9SelectKeyESA_SD_E12expand_arrayEjN21dense_hash_map_traits17integral_constantIbLb0EEE
cJg:__Z58RuntimeInvoker_Void_t1185182177_ContactPoint2D_t3390240644PFvvEPK10MethodInfoPvPS4_
l7b:__Z13RegisterClassI15QualitySettingsEvPKc
$q:__ZN13ConstraintJob17ConstraintJobDataD2Ev
oCc:__ZN10Collider2D13AwakeFromLoadE17AwakeFromLoadMode
KSg:_Aes__ctor_m178909601
eza:__ZNK9Texture2D20GetRuntimeMemorySizeEv
fu:__ZN11Marshalling39CreateNullExceptionForUnityEngineObjectE18ScriptingObjectPtr
nrc:__ZN5Unity9rapidjson13GenericReaderINS0_4UTF8IcEES3_13JSONAllocatorE9ParseTrueILj0ENS0_19GenericStringStreamIS3_EENS0_15GenericDocumentIS3_S4_S4_EEEEvRT0_RT1_
_l:_emscripten_glUniform2iv
G2:__ZL46__ManagedRegistrationHelperFunction_ColorGamutPv
igf:_UnicodeEncoding_CopyChars_m785272451
T$g:__ZN6il2cpp2vm5Class10GetMethodsEP11Il2CppClassPPv
WLb:__Z30AddDefaultStreamsToMeshBuffersR9GfxDeviceR11MeshBuffersRK16DrawBuffersRange17ShaderChannelMaskS6_
kAb:__ZN7ApiGLES17DeleteFramebufferERN2gl6HandleILNS0_10ObjectTypeE9EEES3_
DCb:__ZN15UniformTFMethod13MapBoneBufferEj
Fef:_Array_InternalArray__get_Item_TisParameterModifier_t1461694466_m29553316_gshared
hme:_Int64_CompareTo_m1928360444_AdjustorThunk
Phh:__ZN15dense_hashtableINSt3__24pairIK10KeyWrapperINS1_IPK9EventInfoP11Il2CppClassEEEjEES9_17ReflectionMapHashIS8_EN14dense_hash_mapIS9_jSD_NS9_14EqualsComparerINS0_8equal_toIS8_EEEENS0_9allocatorISB_EEE9SelectKeyESI_SK_E15set_deleted_keyERKSB_
bqb:__Z9SetupArgviPPKc
Nxe:_Convert_ToInt64_m2075031821
OXh:_glTexParameteri__wrapper
Iya:__ZN12CubemapArray23VirtualRedirectTransferER24GenerateTypeTreeTransfer
uU:__ZN12FileAccessor4OpenER15FileSystemEntry14FilePermission16FileAutoBehavior
Qzh:__ZN6il2cpp2os9Directory6CreateERKNSt3__212basic_stringIcNS2_11char_traitsIcEENS2_9allocatorIcEEEEPi
wfa:__ZN23TransformChangeDispatch32QueueTransformChangeIfHasChangedERK15TransformAccess
Ked:_Assembly_get_FullName_m293988418
EHc:__ZN22WorldContactListener2D8PreSolveEP9b2ContactPK10b2Manifold
yob:__ZN14SafeBinaryRead20OverrideRootTypeNameEPKc
B:tempValue
uKh:__ZN6il2cpp8metadata24Il2CppGenericContextHash4HashEPK20Il2CppGenericContext
SNe:_InternalEnumerator_1_get_Current_m356936020_AdjustorThunk
UGb:__ZN6Camera21RenderODSWorldTextureERK11CullResultsRK19SharedRendererSceneR17ShaderPassContextNS_10RenderFlagE
xle:_Int32_ToString_m141394615_AdjustorThunk
xae:_ArrayListWrapper_CopyTo_m498486826
eoe:_Directory_GetCurrentDirectory_m219218555
bBf:_Transform_TransformDirection_m3784028109
Z1d:_SmallXmlParser_UnexpectedEndError_m1914362401
W4a:__ZN14DelayedDeletorI15dense_hashtableINSt3__24pairIK9TextureIDiEES3_14GfxGenericHashIS3_EN14GfxDoubleCacheIS3_iS7_NS1_8equal_toIS3_EEN31GfxDoubleCacheConcurrencyPolicy11LocklessGetE42GfxDoubleCacheDefaultEmptyDeletedGeneratorIS3_EE9SelectKeyESA_13stl_allocatorIS5_L18MemLabelIdentifier24ELi16EEEEclEv
fkf:_TimeSpan__ctor_m1896986612_AdjustorThunk
g4g:__ZN15dense_hashtableINSt3__24pairIK10KeyWrapperIN6il2cpp5utils13dynamic_arrayIPK10Il2CppTypeLj4EEEEPFvvEEESA_NS3_8metadata19Il2CppSignatureHashEN14dense_hash_mapISA_SD_SG_NSA_14EqualsComparerINSF_22Il2CppSignatureCompareEEENS0_9allocatorISE_EEE9SelectKeyESK_SM_E9set_valueEPSE_RKSE_
$$d:_ArgumentException__ctor_m1216717135
xzf:_Ray_ToString_m1732834890_AdjustorThunk
Anc:__ZN9JSONWrite8TransferI13dynamic_arrayI5RectTIfELj0EEEEvRT_PKc17TransferMetaFlags
QD:__ZN11AudioModule22CreateAudioClipFromWWWEP10IWWWStreamPKcbbi
sac:__ZN9Texture2DC2E10MemLabelId18ObjectCreationMode
vtb:__Z17DebugStringToFileIA59_cEvRKT_iPKci15LogMessageFlagsiiPFvRK11CppLogEntryE
ui:_emscripten_glRotatef
Qnf:_UInt32_System_IConvertible_ToBoolean_m1763673183_AdjustorThunk
lra:__ZN6prcoreL11inner_clearILj4EEEvPhjjj
x6e:_Array_InternalArray__ICollection_Remove_TisByte_t1134296376_m2266787817_gshared
a_g:_NativeTypeAttribute__ctor_m1677513894
XK:__GLOBAL__sub_I_Runtime_SceneManager_0_cpp
Ztg:__Z74RuntimeInvoker_Void_t1185182177_RuntimeObject_StreamingContext_t3711869237PFvvEPK10MethodInfoPvPS4_
aGh:_GC_initialize_offsets
xY:__ZNK8Playable6HandleEv
uS:__ZN14MessageHandler28MessageIDToMessageIdentifierEi
rGa:__ZNK11SpriteAtlas20GetRuntimeRenderDataEPK6Sprite
Wne:_FileSystemInfo__ctor_m3035148496
Qke:_Int32_System_IConvertible_ToDecimal_m2190376994_AdjustorThunk
E4:__ZL43__ManagedRegistrationHelperFunction_Vector4Pv
gd:emscriptenWebGLGetUniform
Dn:FUNCTION_TABLE_iiiiiiiiiii
hSb:__ZL10CleanUpJobP20CullingGroupsJobData
Rne:_DirectoryInfo_get_Exists_m3142069876
QIa:__ZN10MeshFilter23VirtualRedirectTransferER24GenerateTypeTreeTransfer
m7b:__Z13RegisterClassI16LightmapSettingsEvPKc
bGb:__ZN13RenderManager15BatchModeUpdateEv
WLd:_X509Chain_get_CertificateAuthorities_m804805415
Wcg:__ZL71ContactFilter2D_t3805203441_CustomAttributesCacheGenerator_useLayerMaskP21CustomAttributesCache
bEc:__ZN10ClipperLib7Clipper15SetWindingCountERNS_5TEdgeE
RLc:__ZN9Scripting11UnityEngine9Analytics21AnalyticsSessionState9InitProxyEv
Lc:_glVertexAttribIPointer
Iff:_StringBuilder_ToString_m3317489284
d7e:_Array_InternalArray__ICollection_Remove_TisUInt32_t2560061978_m733727733_gshared
krd:_CryptographicException__ctor_m503735289
jc:_emscripten_glUniform1f
Dpe:_Stream_EndRead_m1896469262
rrg:__Z93RuntimeInvoker_Boolean_t97287965_Int32_t2950945753_SByte_t1669577662_ExceptionU26_t3600731591PFvvEPK10MethodInfoPvPS4_
DJb:__ZN14qsort_internal5QSortIP15RODataDepthPassi17ROSorterDepthPassEEvT_S4_T0_T1_
aFd:_RSASslSignatureDeformatter_SetHashAlgorithm_m895570787
EO:__ZL36TransformAccessArray_InitializeClassPv
yIf:_X509CrlEntry__ctor_m4013514048
t1a:__ZN9GfxDevice27UpdateComputeSkinPoseBufferEP9GfxBufferP12SkinMeshInfo
aPh:__ZNKSt3__221__basic_string_commonILb1EE20__throw_length_errorEv
l9e:_Array_InternalArray__IndexOf_TisParameterModifier_t1461694466_m1227120810_gshared
VAb:__ZN18GfxFramebufferGLES13ReadbackImageER14ImageReferenceiiiiii
kOd:_FactoryCache__ctor_m206337971
qpd:_SerializationInfo_SetType_m3923964808
P0:__ZN6prcoreL12RemapGenericI17TexFormatARGB888815TexFormatRGB565EEvPKNS_9InnerInfoE
kx:__ZN4FMOD7Channel19setReverbPropertiesEPK29FMOD_REVERB_CHANNELPROPERTIES
OJc:__GLOBAL__sub_I_artifacts_WebGL_codegenerator_0_cpp_5769
Qre:_StreamReader_Dispose_m156389394
VR:__ZN13MonoBehaviour22GetScriptFullClassNameEv
xec:__ZN13ProduceHelperI11MonoManagerLb0EE7ProduceE10MemLabelId18ObjectCreationMode
TCf:_RIPEMD160Managed_JJ_m112143231
PIb:__ZN13BatchRendererC2ER15RenderLoopStatsRK15RenderNodeQueuebb
S$a:__ZNK16MemoryFileSystem9EnumerateEPKcP19dynamic_block_arrayI13FileEntryInfoLj32EEbPPv19FileEnumerationFlag
lob:__ZN13MonoBehaviour9CallAwakeEv
$qa:__ZN20SphericalHarmonicsL211AddWeightedERKS_f
tug:__Z82RuntimeInvoker_RuntimeObject_Int64_t3736567304_Int64_t3736567304_Int64_t3736567304PFvvEPK10MethodInfoPvPS4_
Scb:__Z19TransferField_ArrayI17RemapPPtrTransfer27Converter_SimpleNativeClassI8GUIStyleEEvRK23StaticTransferFieldInfoR31RuntimeSerializationCommandInfoRT0_
elc:__ZN9JSONWrite8TransferI10ColorRGBAfEEvRT_PKc17TransferMetaFlags
oS:__Z25scripting_method_get_name18ScriptingMethodPtr
lFd:_SslCipherSuite_ComputeKeys_m661027754
jbb:__Z19TransferField_ArrayI14SafeBinaryRead16Converter_StringEvRK23StaticTransferFieldInfoR31RuntimeSerializationCommandInfoRT0_
vDe:_Decimal_Equals_m2486655999
cGh:_GC_exit_check
WMb:__Z34SetupObjectBakedOcclusionInForwardbRK15SharedLightDataRK26SharedLightmapSettingsDataRK15LightmapIndicesR17ShaderPassContext
b3e:_DSAManaged_get_Random_m923751780
IO:__ZL29TransformAccessChangeCallbackPK15TransformAccessj
LOd:_Interpreter_PopulateGroup_m4042796257
GRc:__ZN9Scripting11UnityEngine10Networking18CertificateHandler9InitProxyEv
oUc:__ZN9Scripting11UnityEngine12Experimental2XR13TrackableType9InitProxyEv
kWb:__ZNSt3__26vectorINS_4pairIN4core12basic_stringIcNS2_20StringStorageDefaultIcEEEES6_EE13stl_allocatorIS7_L18MemLabelIdentifier38ELi16EEE6insertENS_11__wrap_iterIPKS7_EERSD_
Zuf:_RenderPipelineManager_DoRenderLoop_Internal_m3799666479
iec:__Z13RegisterClassI14PlayerSettingsEvPKc
Ie:_emscripten_glStencilOpSeparate
EGd:_NameObjectCollectionBase_Init_m2525481323
VLb:__ZN15SkyboxGenerator28GetCubemapSkyboxVertexFormatEv
e4a:__ZN19ShaderPropertySheet24SetTextureWithExplicitIDERK23FastTexturePropertyNameP7Texture9TextureID
PBh:__ZN6il2cpp2vm6String8NewUtf16EPKDsi
lzh:__ZN6il2cpp2os10ThreadImpl12QueueUserAPCEPFvPvES2_
uQg:_RegularExpression__ctor_m119502265
pmg:_ReadOnlyCollection_1_System_Collections_Generic_ICollectionU3CTU3E_Clear_m522482168_gshared
I5c:_ConstructionCall_InitMethodProperty_m2021094586
Myc:__ZN7b2World19ContactsCollideTaskEv
qkh:_il2cpp_class_is_abstract
$e:_emscripten_glGetError
ygh:__ZN15dense_hashtableINSt3__24pairIK10KeyWrapperIPK14Il2CppAssemblyEPK22Il2CppMonoAssemblyNameEES6_N6il2cpp5utils11PointerHashIS4_EEN14dense_hash_mapIS6_SA_SF_NS6_14EqualsComparerINS0_8equal_toIS5_EEEENS0_9allocatorISB_EEE9SelectKeyESK_SM_E14squash_deletedEv
my:__Z14FMOD_FILE_SeekPvjS_
Ura:__ZN7TextureC2E10MemLabelId18ObjectCreationMode
H4g:__ZN14dense_hash_mapI10KeyWrapperIN6il2cpp5utils13dynamic_arrayIPK10Il2CppTypeLj4EEEEPFvvENS1_8metadata19Il2CppSignatureHashENS8_14EqualsComparerINSB_22Il2CppSignatureCompareEEENSt3__29allocatorINSG_4pairIKS8_SA_EEEEEC2EjRKSC_RKSF_
sTb:__ZNK13RenderTexture32CalculateNeedsInvertedProjectionEv
xYb:__ZN10systeminfo18GetOperatingSystemEv
hf:emscriptenWebGLGet
JU:__Z19CanReplaceComponentRN5Unity9ComponentEPKNS_4TypeEPN4core12basic_stringIcNS5_20StringStorageDefaultIcEEEE
j9c:_UnmanagedMemoryStream_Flush_m1540584491
Oie:_GuidParser_ParseGuid2_m1914838819
dcc:__ZN12CubemapArray11InitTextureEiii13TextureFormatb
y4b:__Z17GetSceneBuildInfoRKN4core12basic_stringIcNS_20StringStorageDefaultIcEEEEiR14SceneBuildInfo
uye:_Convert_ToSingle_m3983149863
WIe:_InternalEnumerator_1_System_Collections_IEnumerator_get_Current_m55999184_gshared
PMd:_X509CertificateEnumerator_get_Current_m364341970
yKg:__Z57RuntimeInvoker_RaycastHit2D_t2279581989_Int32_t2950945753PFvvEPK10MethodInfoPvPS4_
JMb:__ZL24AssignProjectorQueuesJobP30AssignProjectorQueuesJobHeader
t_c:_ParameterModifier_t1461694466_marshal_pinvoke
K2b:__ZNSt3__26vectorIN9ShaderLab20SerializedSubProgram15StructParameterENS_9allocatorIS3_EEE21__push_back_slow_pathIS3_EEvOT_
Zje:_Int16_System_IConvertible_ToUInt32_m3410279543
x2b:__ZN9ShaderLab20SerializedSubProgram14SetConstBufferEPKci
pbh:__ZN6il2cpp2os4File5CloseEPNS0_10FileHandleEPi
O3g:__ZNSt3__27__sort5IRN6il2cpp5utils11collections13ArrayValueMapIPK10Il2CppType17Il2CppInteropData26InteropDataToTypeConverterNS1_8metadata14Il2CppTypeLessENSA_26Il2CppTypeEqualityComparerEE12SortComparerEPS8_EEjT0_SH_SH_SH_SH_T_
unf:_UInt16_CompareTo_m2664746316_AdjustorThunk
p0a:__ZN9GfxDevice13SetActiveTierE12GraphicsTier
Spc:__Z29Transfer_Blittable_ArrayFieldI8JSONReadjEvRT_R9ArrayInfoRK23StaticTransferFieldInfo
iGh:_GC_check_finalizer_nested
Qf:__setLetterbox
X9f:__ZL72FormerlySerializedAsAttribute_t2859083114_CustomAttributesCacheGeneratorP21CustomAttributesCache
jNg:_PatternCompiler_EmitFastRepeat_m3012952683
gLa:__ZNSt3__26vectorI17BlendShapeChannelNS_9allocatorIS1_EEE6assignINS_11__wrap_iterIPS1_EEEENS_9enable_ifIXaasr21__is_forward_iteratorIT_EE5valuesr16is_constructibleIS1_NS_15iterator_traitsISA_E9referenceEEE5valueEvE4typeESA_SA_
wtb:__Z12SetGfxDeviceP9GfxDevice
qYb:__ZN11TimeManager11GetRealtimeEv
Iy:__ZN29AudioEffectInternalDefinitionC2EP26UnityAudioEffectDefinitionb
jGa:__ZN10VertexData8TransferI19StreamedBinaryWriteILb0EEEEvRT_
eUe:_ShimEnumerator_get_Value_m1878724567_gshared
IPd:_Interval_get_IsSingleton_m3386290029
Ljh:__ZNSt3__2plIcNS_11char_traitsIcEENS_9allocatorIcEEEENS_12basic_stringIT_T0_T1_EERKS9_PKS6_
NRd:_SHA384Managed__ctor_m3220477113
oxa:_stbir_resize
K8e:_Array_IndexOf_TisCustomAttributeTypedArgument_t2723150157_m3158556463_gshared
yGe:_Environment_GetOSVersionString_m407782784
l_d:_DecoderExceptionFallback_Equals_m1082173956
DQf:__ZL69Assembly_t_CustomAttributesCacheGenerator_Assembly_GetName_m981771927P21CustomAttributesCache
j3:__ZL59__ManagedRegistrationHelperFunction_AsyncGPUReadbackRequestPv
Pvc:__ZN24b2ChainAndCapsuleContact6CreateEP9b2FixtureiS1_iP16b2BlockAllocator
f_a:__Z37ReadDirectoryInfo_UnityWebAndUnityRawR12FileAccessorRKN20ArchiveStorageHeader6HeaderERNS1_13DirectoryInfoE
YGf:_PKCS12_get_Keys_m3893933360
VO:__ZNSt3__26__treeINS_12__value_typeIPKciEENS_19__map_value_compareIS3_S4_15compare_tstringIS3_ELb1EEENS_9allocatorIS4_EEE7destroyEPNS_11__tree_nodeIS4_PvEE
Hle:_Int64_System_IConvertible_ToByte_m375085029_AdjustorThunk
sCf:_RijndaelManaged_CreateEncryptor_m263736311
AJb:__ZN20DynamicPropertySheet14SetValueQueuedEN9ShaderLab16FastPropertyNameEN19ShaderPropertySheet12PropertyTypeEjNS2_8SetFlagsE
Wtf:_InvokableCallList_ClearPersistent_m1904264973
vpb:__ZN25PathNamePersistentManagerD2Ev
YQa:__ZN17PersistentManager48IntegrateObjectAndUnlockIntegrationMutexInternalEi
k$:__ZZ29InitializeSortingGroupManagerPvEN44PostLateUpdateSortingGroupsUpdateRegistrator7ForwardEv
tVd:_SecurityElement_SearchForChildByTag_m900466299
Co:__ZN6Object12SetHideFlagsENS_9HideFlagsE
Xuc:__ZN9b2Fixture11SynchronizeEP12b2BroadPhaseRK11b2TransformS4_
nye:_Convert_ToSingle_m3227075028
XUh:_emscripten_glGetFramebufferAttachmentParameteriv__wrapper
Xgf:_UTF7Encoding_GetByteCount_m3616172568
loa:__Z28CalculateGlobalMatrixInverse23TransformAccessReadOnly
BZe:_GenericEqualityComparer_1_Equals_m3457564127_gshared
Vud:_BigInteger_ModInverse_m2426215562
h_d:_DecoderExceptionFallback__ctor_m4044614564
o9c:_LocalDataStoreSlot__cctor_m644942532
qZc:_MonoProperty_CachePropertyInfo_m2968057423
ORc:__ZNK25UnityWebRequestJavaScript18GetDownloadedBytesEv
zrb:__Z21BeginSplashScreenFadev
_Rc:__ZN12HeaderHelper14SetUnvalidatedERKN4core12basic_stringIcNS0_20StringStorageDefaultIcEEEES6_b
Qw:__ZN4FMOD6SoundI7releaseEv
cJa:__ZN14SpriteRenderer13AwakeFromLoadE17AwakeFromLoadMode
J_a:__ZN10MemoryFile9SetLengthEy
Yeb:__ZN5RectTIiE8TransferI24GenerateTypeTreeTransferEEvRT_
TGe:_Exception_get_ClassName_m2428844642
Qob:__Z28scripting_class_is_interface17ScriptingClassPtr
fh:_glTexStorage2D
MZc:_MonoProperty_GetOptionalCustomModifiers_m62958967
iua:__ZNK9ShaderLab10SubProgram14EnsureCompiledEv
Ejd:_MethodBuilder_GetGenericArguments_m1765425737
UAe:_DateTime_CompareTo_m3687348273
ZEh:_GC_push_marked
rBe:_DateTime_ToUniversalTime_m1945318289_AdjustorThunk
Y0e:_Kernel_modInverse_m668448880
eS:__Z18BuildScriptClassId17ScriptingClassPtr
rYa:__ZL31DeleteLastPathNameComponentImplRKN4core12basic_stringIcNS_20StringStorageDefaultIcEEEEPKc
kCe:_DBNull_System_IConvertible_ToUInt64_m4072736670
hMc:__ZN18UnityConnectClient15GetCloudServiceEv
Cab:__Z29Transfer_Blittable_ArrayFieldI14SafeBinaryRead5RectTIiEEvRT_R9ArrayInfoRK23StaticTransferFieldInfo
RMe:_InternalEnumerator_1_get_Current_m2698009637_gshared
l7g:__ZN6il2cpp2os19SocketHandleWrapperD2Ev
tvc:__ZN15b2CircleContact6CreateEP9b2FixtureiS1_iP16b2BlockAllocator
Kob:__ZL28SerializationCommandGroupForRK31TransferFunctionScriptingTraits17ScriptingClassPtr17ScriptingFieldPtrRK20CoreScriptingClasses
Eda:__ZN10TagManager32RegisterDefaultTagsAndLayerMasksEv
$jf:_WaitHandle_Dispose_m738127030
xAg:__Z50RuntimeInvoker_Double_t594665363_Int32_t2950945753PFvvEPK10MethodInfoPvPS4_
x5g:__ZN15dense_hashtableINSt3__24pairIK10KeyWrapperIPKcEP11Il2CppClassEES5_N6il2cpp5utils11StringUtils12StringHasherIS4_EEN14dense_hash_mapIS5_S8_SE_NS5_14EqualsComparerINSB_13VmStringUtils21CaseSensitiveComparerEEENS0_9allocatorIS9_EEE9SelectKeyESJ_SL_E15insert_noresizeERKS9_
pWd:_Single_System_IConvertible_ToInt16_m809233024_AdjustorThunk
rNh:_fmodf
tIc:__Z75Register_UnityEngine_Physics2D_GetRayIntersectionNonAlloc_Internal_Injectedv
ayb:__ZN4gles8InitCapsEP7ApiGLESP12GraphicsCapsR16GfxDeviceLevelGL
Gxa:__ZN6prcore14BlitImageFloatERK14ImageReferenceRS0_NS0_8BlitModeE
Hqa:__Z24CalculateVertexLightDataRK15SharedLightDataR14GfxVertexLight
Ph:_glEnable
eua:__ZNK9ShaderLab7Program28BeginReadUnsupportedVariantsEv
pba:__ZN12CachedWriter11Align4WriteEv
BPa:__ZNSt3__26vectorIN30RuntimeInitializeOnLoadManager9ClassInfoE13stl_allocatorIS2_L18MemLabelIdentifier13ELi16EEE7reserveEj
qlc:__Z35Transfer_Blittable_FixedBufferFieldI9JSONWriteiEvRK29SerializationCommandArgumentsR31RuntimeSerializationCommandInfo
whh:__ZN14dense_hash_mapI10KeyWrapperINSt3__24pairIPK10MethodInfoP11Il2CppClassEEEj17ReflectionMapHashIS8_ENS9_14EqualsComparerINS1_8equal_toIS8_EEEENS1_9allocatorINS2_IKS9_jEEEEEC2EjRKSB_RKSF_
N8c:_UnexceptionalStreamReader_Peek_m1842169584
lNc:__ZN11UnityEngine7Connect15DeviceInfoEvent16CollectExtraInfoEv
Orf:_Bounds_GetHashCode_m1844059663_AdjustorThunk
Brd:_CryptographicException__ctor_m1422015889
wze:_Convert_ChangeType_m739676612
cDh:__ZThn8_N6il2cpp2vm13CachedCCWBaseINS0_13ManagedObjectEE6AddRefEv
Wyd:_Alert_GetAlertMessage_m1942367141
tld:_RemotingServices_GetRealProxy_m2081098851
K2e:_BlockProcessor_Core_m189015002
dVh:_emscripten_glScissor__wrapper
Gn:FUNCTION_TABLE_viifi
Hn:FUNCTION_TABLE_viiff
b1d:_X501__cctor_m1166912714
CMf:__ZL37Type_t_CustomAttributesCacheGeneratorP21CustomAttributesCache
Js:__ZN9Scripting11UnityEngine14AnimationState9InitProxyEv
Uxc:__ZNSt3__26__sortIRN18Overlap2DQueryBase29ColliderHitsByDepthComparitorEPP10Collider2DEEvT0_S7_T_
Xrf:_Bounds_ToString_m4208690781
vih:__ZN6il2cpp2vm14TypeNameParser5ParseEb
E9c:_Math_Sqrt_m1297338011
ese:_StreamWriter_Initialize_m3490883444
ymf:_Type_GetGenericArguments_m3500465462
P6g:__ZN15dense_hashtableINSt3__24pairIK10KeyWrapperIP9FieldInfoEiEES5_N6il2cpp5utils11PointerHashIS3_EEN14dense_hash_mapIS5_iSB_NS5_14EqualsComparerINS0_8equal_toIS4_EEEENS0_9allocatorIS7_EEE9SelectKeyESG_SI_E12resize_deltaEjj
IQc:__ZN23UnityPurchasingSettingsC2Ev
xXc:_Module_IsDefined_m2423524910
uMd:_X509Certificate2Enumerator__ctor_m1083666285
tia:__ZN17GPUFenceInternals7ReleaseEv
tTb:__ZL10RenderFaceR9GfxDeviceR18MaterialStateCacheP13RenderTextureiif
H8e:_Array_IndexOf_TisCustomAttributeNamedArgument_t287865710_m2817957199_gshared
Elg:_ReadOnlyCollection_1_System_Collections_IList_RemoveAt_m1980090087_gshared
ZFf:_ExtendedKeyUsageExtension_ToString_m2116504780
dUa:__ZNK5Unity9Component38MarkGameObjectAndComponentDependenciesER27GarbageCollectorThreadState
une:_BinaryReader_Read_m3708759962
FS:__ZNK11TypeManager15ClassNameToRTTIEPKcb
P2:__ZL57__ManagedRegistrationHelperFunction_DefaultExecutionOrderPv
vWh:_emscripten_glVertexAttrib2fv__wrapper
Ese:_SynchronizedReader_ReadToEnd_m2160105378
cFe:_Double_System_IConvertible_ToUInt16_m4132603953_AdjustorThunk
qAa:__ZN4crnd12symbol_codec32decode_receive_static_data_modelERNS_25static_huffman_data_modelE
Sac:__ZN18ScriptingArguments8AddFloatEf
$Mc:__ZN11UnityEngine15PlatformWrapper16GetVRRenderScaleEv
qmc:__Z18Transfer_BlittableI9JSONWriteLb0EaEvRK29SerializationCommandArgumentsR31RuntimeSerializationCommandInfo
hG:__ZN11UnityEngine15CloudWebService14DataDispatcher34OnSessionContainerArchivedAndReadyERNS0_16SessionContainerE
Ywf:_ConnectionChangeEvent__ctor_m764126802
ysc:__ZN7b2World11CreateJointEPK10b2JointDef
T_c:_ResolveEventHandler_Invoke_m1337322179
oRg:_UriParser_InternalRegister_m3643767086
PZb:__ZN14SafeBinaryRead19TransferSTLStyleMapINSt3__23mapIN4core12basic_stringIcNS3_20StringStorageDefaultIcEEEEiNS1_4lessIS7_EENS1_9allocatorINS1_4pairIKS7_iEEEEEEEEvRT_17TransferMetaFlags
gCe:_DBNull_System_IConvertible_ToSingle_m13713620
kfh:__ZN6il2cpp2vm10Reflection14GetEventObjectEP11Il2CppClassPK9EventInfo
Pmf:_TypeLoadException__ctor_m1154572625
Sva:__ZNSt3__27__sort4IRPFbRKNS_4pairIN9ShaderLab16FastPropertyNameE10ColorRGBAfEES7_EPS5_EEjT0_SC_SC_SC_T_
pCd:_Context_get_WriteSequenceNumber_m1115956887
Tdf:_Dictionary_2_Do_ICollectionCopyTo_TisKeyValuePair_2_t2401056908_m1169495264_gshared
hkd:_OpCodes__cctor_m3821715395
vla:__Z26TransformVerticesInnerLoopILb1ELb0ELb0EEvPhRK10Matrix4x4fRK10Matrix3x3fjPKhiS8_ii25GfxTransformVerticesFlagsj
Jqc:__ZN8JSONRead8TransferI9BoundsIntEEvRT_PKc17TransferMetaFlagsb
ab:invoke_viidi
jqd:_SByte_System_IConvertible_ToChar_m1489191771_AdjustorThunk
Gw:__ZN9AudioClip7CleanupEv
dec:__Z13RegisterClassI18DelayedCallManagerEvPKc
Cnh:__ZNK15dense_hashtableINSt3__24pairIK10KeyWrapperIP11Il2CppClassES4_EES5_N6il2cpp8metadata16SZArrayClassHashEN14dense_hash_mapIS5_S4_SA_NS5_14EqualsComparerINS9_19SZArrayClassCompareEEENS0_9allocatorIS7_EEE9SelectKeyESE_SG_E12test_deletedEj
kpc:__Z18Transfer_BlittableI8JSONReadLb0EdEvRK29SerializationCommandArgumentsR31RuntimeSerializationCommandInfo
N4c:_SynchronizationAttribute_EnterContext_m1660729920
p8g:__ZN6il2cpp2vm21ThreadPoolCompartment13QueueWorkItemEP17Il2CppAsyncResult
M0a:__ZNK9GfxDevice13GetViewMatrixEv
k9c:_UnmanagedMemoryStream_Dispose_m2681886347
cTa:__ZN17RemapPPtrTransferC2E24TransferInstructionFlagsb
uwe:_Convert_ToDecimal_m889385228
IT:__ZN8TypeTree8BlobReadERPKhS1_ib
b5d:_Array_Reverse_m3714848183
jRa:__ZN18LoadSceneOperation23GetAllowSceneActivationEv
yga:__ZN6CameraD0Ev
_Z:__ZN31CanvasBatchIntermediateRenderer16StaticInitializeEPv
pPa:__ZN14SafeBinaryRead21TransferSTLStyleArrayINSt3__26vectorIi13stl_allocatorIiL18MemLabelIdentifier13ELi16EEEEEEvRT_17TransferMetaFlags
T_d:_EncoderFallback__cctor_m3806755293
Azb:__ZL18ProgramUniform1uivPK7ApiGLESjiihPKv
mcc:__ZN14Texture2DArray13RebuildMipMapEv
O0g:__ZN13Il2CppHashSetIPK17Il2CppGenericInstN6il2cpp8metadata21Il2CppGenericInstHashENS4_24Il2CppGenericInstCompareENSt3__29allocatorI10KeyWrapperIS2_EEEEC2EjRKS5_RKS6_
A8a:__Z18Transfer_BlittableI14SafeBinaryReadLb1EaEvRK29SerializationCommandArgumentsR31RuntimeSerializationCommandInfo
y2b:__ZN9ShaderLab20SerializedSubProgram14AddVectorParamEPKcii15ShaderParamTypei
Fte:_Enumerator__ctor_m3362421874
Ruh:__ZN6il2cpp2vm6Object3BoxEP11Il2CppClassPv
amh:__ZN6il2cpp2vm6Thread7SetNameEP12Il2CppThreadP12Il2CppString
CH:__ZN11UnityEngine15CloudWebService10RestClientINS0_23WebRequestRestHeaderMapEE16SetRequestHeaderERKN4core12basic_stringIcNS4_20StringStorageDefaultIcEEEESA_
uPa:__ZN30RuntimeInitializeOnLoadManager15ClassMethodInfo8TransferI14SafeBinaryReadEEvRT_
A5c:_ConstructionCall_InitDictionary_m2824447813
IE:__ZL22InitializeModule_Audiov
E$a:__ZN16MemoryFileSystem8IsLockedERK13FileEntryData
gph:__ZN6il2cpp6icalls8mscorlib6System2IO6MonoIO5WriteEiP11Il2CppArrayiiPi
Kxg:__Z92RuntimeInvoker_RuntimeObject_RuntimeObject_RuntimeObject_SByte_t1669577662_SByte_t1669577662PFvvEPK10MethodInfoPvPS4_
Dk:_emscripten_glBindRenderbuffer
ZFh:_GC_dirty_init
wth:__ZN6il2cpp2vm5Image33GetCachedMemoryMappedResourceFileEP24Il2CppReflectionAssembly
Nth:__ZN6il2cpp2vm5Field14GetValueObjectEP9FieldInfoP12Il2CppObject
Jkf:_TimeSpan_CompareTo_m3633415627_AdjustorThunk
dlg:_Collection_1_Remove_m3611142372_gshared
fob:__ZN13MonoBehaviour17RemoveFromManagerEv
mha:__ZN12ImageFilters14AddImageFilterERK11ImageFilter
N5b:__ZN19RuntimeSceneManager32LoadSceneAsyncByNameOrBuildIndexERKN4core12basic_stringIcNS0_20StringStorageDefaultIcEEEEiNS_11LoadingModeEb
J3c:_Context_NotifyDynamicSinks_m1841702879
fVd:_WindowsIdentity_System_Runtime_Serialization_IDeserializationCallback_OnDeserialization_m3428853631
oL:__ZN13MemoryManagerC2Ev
cMa:__ZN12SkinMeshInfo10DeallocateEPS_
Y_a:__ZN20ArchiveStorageReader28AcquireAndPrefillUnusedBlockEjPNS_11CacheResultE
C6d:_Boolean_System_IConvertible_ToDateTime_m603510836
hcc:__Z12NHxRoughnessIA4_tEvP9Texture2DPT_iiii
l2e:_ASN1_get_Value_m1857007406
oF:__Z6simd4iiiii
RVa:__ZN9Transform5ResetEv
qxe:_Decimal_op_Explicit_m1842265407
mfb:__Z22TransferField_NonArrayI24GenerateTypeTreeTransfer16Converter_StringEvRK23StaticTransferFieldInfoR31RuntimeSerializationCommandInfoRT0_
d3:__ZL47__ManagedRegistrationHelperFunction_FixedUpdatePv
Cqb:__Z17MainLoopKeepalivePv
UPe:_InternalEnumerator_1_get_Current_m1588647567_AdjustorThunk
BMh:_printf_core
hSf:__ZL51GCHandle_t3351438187_CustomAttributesCacheGeneratorP21CustomAttributesCache
vJb:__Z19SetupLODFadeKeywordR17ShaderPassContexti
bRd:_RSAPKCS1SignatureFormatter_CreateSignature_m3191980616
Zta:__ZN10builtintex16GetDefaultTexEnvE16TextureDimensionb
JBb:__ZL25CheckCopyTextureArgumentsRK7ApiGLESP11GLESTextureS3_
dZh:_glDeleteShader__wrapper
kZ:__ZNK15PlayableMethods18InvokeOnGraphStartER18ScriptingObjectPtrRK9HPlayable
Keb:__Z29Transfer_Blittable_ArrayFieldI24GenerateTypeTreeTransferyEvRT_R9ArrayInfoRK23StaticTransferFieldInfo
Ax:__ZN4FMOD7SystemI9playSoundE17FMOD_CHANNELINDEXPNS_5SoundEbPPNS_7ChannelE
kme:_Int64_GetHashCode_m703091690
k4:__ZL60__ManagedRegistrationHelperFunction_ReflectionProbeBlendInfoPv
zwe:_Decimal_op_Implicit_m4256234411
c9a:__Z24TransferPPtrToMonoObjecti17ScriptingClassPtrP23DataToCreateNullWrapper24TransferInstructionFlags
cw:__ZN12AudioManager23VirtualRedirectTransferER18StreamedBinaryReadILb0EE
lug:__Z60RuntimeInvoker_RuntimeObject_RuntimeObject_Int16_t2552820387PFvvEPK10MethodInfoPvPS4_
RKa:__ZN10VertexData13SwapEndianessEv
Mre:_StreamReader__ctor_m3941437302
jSh:dynCall_viif
gSh:dynCall_viii
k7b:__Z13RegisterClassIN5Unity9ComponentEEvPKc
zse:_StringReader_ReadLine_m2337102945
qcb:__ZL26Transfer_SimpleNativeClassI17RemapPPtrTransfer8GradientLb0EEvRK29SerializationCommandArgumentsR31RuntimeSerializationCommandInfo
q8b:__ZZL31RegisterRectTransformPropertiesR22GenericPropertyBindingEN32Wrapper_RectTransformAnchorMaxx013SetFloatValueEPvf
eee:_SyncHashtable_Add_m3016107307
$6d:_Boolean_Equals_m2410333903_AdjustorThunk
a9g:__ZN6il2cpp6icalls8mscorlib6System8MonoType14get_attributesEP20Il2CppReflectionType
xI:__ZN13UploadHandlerD2Ev
ju:__GLOBAL__sub_I_Modules_AssetBundle_Public_1_cpp
$b:_emscripten_glBlendFuncSeparate
OP:__Z20scripting_string_newPKc
zQg:_Parser_IsSingleline_m326238187
oce:_CollectionBase_get_Count_m1708965601
Ysd:_HMAC__ctor_m97939284
Xkc:__ZN9JSONWrite12AppendToNodeEPN5Unity9rapidjson12GenericValueINS1_4UTF8IcEE13JSONAllocatorEEPKcRS6_
s2e:_ASN1_ToString_m1340204511
Juc:__ZN16PhysicsManager2D20GetRigidBodyVelocityERK11Rigidbody2D
aMd:_X509Store_get_Certificates_m2149701265
L8:__ZN9Scripting11UnityEngine13ComputeBuffer12CleanupProxyEv
hbh:__ZN6il2cpp2os4File17GetFileAttributesERKNSt3__212basic_stringIcNS2_11char_traitsIcEENS2_9allocatorIcEEEEPi
_B:__ZN17AudioCustomFilterD2Ev
VIg:__Z56RuntimeInvoker_Void_t1185182177_MonoResource_t4103430009PFvvEPK10MethodInfoPvPS4_
SDh:_GC_unpromote_black_lists
Dq:__ZN9Scripting11UnityEngine2XR5Tango9GridIndex9InitProxyEv
FAb:__ZN18GfxFramebufferGLES18ReleaseFramebufferEP17RenderSurfaceBaseP14GfxContextGLES
aoc:__Z18Transfer_BlittableI8JSONReadLb1EiEvRK29SerializationCommandArgumentsR31RuntimeSerializationCommandInfo
$I:__ZN19CloudServiceHandler34HandleSaveFileWebRequestPlayerLoopEv
vTc:__ZL47__ManagedRegistrationHelperFunction_XRNodeStatePv
rB:__Z31GetParentSampleClipFromInstancePN11SoundHandle8InstanceE
S7b:__ZNK28RectTransformPropertyBinding13GetFloatValueERKN11UnityEngine9Animation10BoundCurveE
QTb:__ZN6Camera22StandaloneCustomRenderENS_10RenderFlagEP6ShaderRKN4core12basic_stringIcNS3_20StringStorageDefaultIcEEEEPNS_21PerformRenderFunctionE
T8e:_Array_InternalArray__IndexOf_TisKeyValuePair_2_t2401056908_m4118889689_gshared
tQa:__ZNSt3__26vectorI4PPtrI6ObjectE13stl_allocatorIS3_L18MemLabelIdentifier52ELi16EEE6assignINS_11__wrap_iterIPS3_EEEENS_9enable_ifIXaasr21__is_forward_iteratorIT_EE5valuesr16is_constructibleIS3_NS_15iterator_traitsISD_E9referenceEEE5valueEvE4typeESD_SD_
NKh:__ZN6il2cpp2os16ThreadLocalValue8GetValueEPPv
dLd:_X509Certificate2_get_PublicKey_m370665820
F5g:__ZN6il2cpp2vm13MetadataCache14GetGenericInstEPKPK10Il2CppTypej
HC:__ZN13AudioListener17ReadExtensionNameEi
Cc:_glUniform1uiv
WOc:__ZN11UnityEngine7Connect20RemoteConfigSettings35CallConfigUpdatedOnMainThreadStaticEPS1_
io:setThrew
$bc:__ZL21BuildEmptyCubeTexturePKci11ColorRGBA3217TextureColorSpace
SZb:__ZN14SafeBinaryRead21TransferSTLStyleArrayINSt3__26vectorIN9ShaderLab20SerializedSubProgramENS1_9allocatorIS4_EEEEEEvRT_17TransferMetaFlags
q9e:_Array_InternalArray__IndexOf_TisX509ChainStatus_t133602714_m48896230_gshared
tYa:__ZN19dynamic_block_arrayI13FileEntryInfoLj32EE4growEj
joc:__Z15Transfer_StringI8JSONReadLb1EEvRK29SerializationCommandArgumentsR31RuntimeSerializationCommandInfo
GRa:__ZN16LightmapSettings15AppendLightmapsEiRK13dynamic_arrayI12LightmapDataLj0EE
G$:__ZN6prcoreL17RemapGenericFloatI17TexFormatRGBFloat15TexFormatRGHalfEEvPKNS_9InnerInfoE
Sph:__ZNSt3__212basic_stringIDsNS_11char_traitsIDsEENS_9allocatorIDsEEE21__grow_by_and_replaceEjjjjjjPKDs
mtd:_HMAC_Initialize_m3157696427
ANh:___strchrnul
xM:__ZN13BaseAllocator13TryDeallocateEPv
ZJd:_X509SubjectKeyIdentifierExtension__ctor_m2055934916
Ujc:__ZN9Scripting19UnityEngineInternal5Input17NativeInputSystem9InitProxyEv
xMh:_sprintf
e3b:__ZN9Scripting25CreateNullExceptionObjectE18ScriptingObjectPtr
u4e:_PrivateKeyInfo_DecodeRSA_m2889346634
NB:__ZN13AudioListener17RemoveFromManagerEv
Xc:_glAttachShader
CBg:__Z241RuntimeInvoker_Boolean_t97287965_RuntimeObject_RuntimeObject_RuntimeObject_SByte_t1669577662_DateTimeU26_t882461807_DateTimeOffsetU26_t3960159525_RuntimeObject_Int32_t2950945753_SByte_t1669577662_BooleanU26_t4125257963_BooleanU26_t4125257963PFvvEPK10MethodInfoPvPS4_
jga:__ZNK6Camera19GetProjectionMatrixEv
fCc:__ZN21b2FindNewContactsTask15AddContactPairsERK16b2ContactManagerP14b2FixtureProxyS4_R13dynamic_arrayINS_17b2DeferredContactELj0EE
hje:_Guid_GetHashCode_m3042133858_AdjustorThunk
Faa:__Z38PreallocateObjectFromPersistentManagerib
wrd:_CryptoConfig_MapNameToOID_m2044758263
TOd:_Interpreter_Backtrack_m2828876822
lza:__ZNK9Texture2D20GetUnscaledTextureIDEv
zqd:_SByte_System_IConvertible_ToType_m4075253447
v5e:_StrongName_get_PublicKey_m1841537984
rXh:_glFenceSync__wrapper
T0a:__ZN9GfxDevice16CreateGpuProgramE20ShaderGpuProgramTypeRK13dynamic_arrayIhLj0EER22CreateGpuProgramOutput
I5d:_AssemblyLoadEventHandler_Invoke_m1462077361
qza:__ZNK9Texture2D26CanReuploadDataToGfxDeviceEv
KWf:__ZL63CodeAccessPermission_t2681295399_CustomAttributesCacheGeneratorP21CustomAttributesCache
dSa:__Z29ClearRepeatingLogMessageStatev
fOe:_InternalEnumerator_1_get_Current_m3191242573_gshared
R7d:_Byte_Equals_m1161982810_AdjustorThunk
cX:__ZN21EnlightenSceneMappingaSERKS_
Ida:__ZN14SafeBinaryRead21TransferSTLStyleArrayI13dynamic_arrayI17SortingLayerEntryLj0EEEEvRT_17TransferMetaFlags
kJc:__ZL48__ManagedRegistrationHelperFunction_MeshColliderPv
xDb:__ZN7ApiGLESD2Ev
ffa:__ZN9Transform47ClearTransformHierarchyAndApplyToSerializedDataEv
ypc:__ZN8JSONRead21TransferSTLStyleArrayINSt3__26vectorI8MonoPPtr13stl_allocatorIS3_L18MemLabelIdentifier1ELi16EEEEEEvRT_17TransferMetaFlags
Ega:__ZN6Camera23VirtualRedirectTransferER19StreamedBinaryWriteILb0EE
xSh:dynCall_fidi
kch:__ZN15dense_hashtableINSt3__24pairIK10KeyWrapperINS1_IPK9FieldInfoP11Il2CppClassEEEjEES9_17ReflectionMapHashIS8_EN14dense_hash_mapIS9_jSD_NS9_14EqualsComparerINS0_8equal_toIS8_EEEENS0_9allocatorISB_EEE9SelectKeyESI_SK_E12resize_deltaEjj
Eja:__ZN15dense_hashtableINSt3__24pairIKN9ShaderLab7Program23ShaderKeywordSetAndHashEPKNS2_10SubProgramEEES4_NS3_24ShaderKeywordHashFunctorEN14dense_hash_mapIS4_S8_SA_NS0_8equal_toIS4_EE13stl_allocatorIS9_L18MemLabelIdentifier67ELi16EEE9SelectKeyESD_SG_E15insert_noresizeERKS9_
Sra:__ZN13RenderTexture12SetDimensionE16TextureDimension
W2e:_DSAManaged_add_KeyGenerated_m2286864968
a7:__ZN9Scripting11UnityEngine16GradientColorKey9InitProxyEv
Nd:_SDL_FreeRW
BJg:__Z79RuntimeInvoker_Void_t1185182177_Int32_t2950945753_ParameterModifier_t1461694466PFvvEPK10MethodInfoPvPS4_
afh:__ZNK15dense_hashtableINSt3__24pairIK10KeyWrapperINS1_IPK12PropertyInfoP11Il2CppClassEEEjEES9_17ReflectionMapHashIS8_EN14dense_hash_mapIS9_jSD_NS9_14EqualsComparerINS0_8equal_toIS8_EEEENS0_9allocatorISB_EEE9SelectKeyESI_SK_E5beginEv
EA:__ZN20SoundChannelInstance8getDelayE14FMOD_DELAYTYPEPjS1_
Vja:__ZNSt3__26vectorIN20GpuProgramParameters15StructParameterENS_9allocatorIS2_EEEC2ERKS5_
lIe:_ArrayReadOnlyList_1_Contains_m232667507_gshared
aAg:__Z77RuntimeInvoker_Boolean_t97287965_IntPtr_t_Int32_t2950945753_SByte_t1669577662PFvvEPK10MethodInfoPvPS4_
v:tempBigInt
pcf:_Array_InternalArray__Insert_TisKeyframe_t4206410242_m1558638568_gshared
Vd:_emscripten_glVertexAttrib1fv
y_b:__ZNSt3__26vectorIN9ShaderLab20SerializedSubProgram12UAVParameterENS_9allocatorIS3_EEE7reserveEj
XPh:__ZSt11__terminatePFvvE
qy:__ZN12AudioManager14systemCallbackEP11FMOD_SYSTEM24FMOD_SYSTEM_CALLBACKTYPEPvS3_
Gng:_Nullable_1_Equals_m4046255732_gshared
OA:__ZN10SampleClip23VirtualRedirectTransferER24GenerateTypeTreeTransfer
pqa:__ZN16ReflectionProbes16UpdateSampleDataEv
U2:__ZL46__ManagedRegistrationHelperFunction_UnityEventPv
uge:_CultureInfo_GetCultureInfo_m56098747
DQb:__Z20AddActiveLocalLightsR11CullResultsR27LocalLightCullingParametersPPK15SharedLightDataPK8Vector4fRK9IndexListPfRSA_R12ActiveLightsSG_P5RectTIfEP13TargetEyeMask
dOf:__ZL80Hashtable_t1853889766_CustomAttributesCacheGenerator_Hashtable__ctor_m1763145853P21CustomAttributesCache
kwe:_Convert_ToDecimal_m1284148187
fVh:_emscripten_glRenderbufferStorage__wrapper
m2:__ZL52__ManagedRegistrationHelperFunction_AndroidJNIHelperPv
qe:_JS_Sound_Play
PSf:__ZL56_MethodBuilder_t600455149_CustomAttributesCacheGeneratorP21CustomAttributesCache
pZb:__ZN9ShaderLab16SerializedShader8TransferI14SafeBinaryReadEEvRT_
T5c:_ConstructionCallDictionary_SetMethodProperty_m3145285304
ele:_Int32_System_IConvertible_ToUInt32_m3557270157
nEg:__Z243RuntimeInvoker_Void_t1185182177_Int16_t2552820387_RuntimeObject_Int32_t2950945753_Int32_t2950945753_Int32_t2950945753_SByte_t1669577662_SByte_t1669577662_SByte_t1669577662_SByte_t1669577662_Int16_t2552820387_SByte_t1669577662_SByte_t1669577662PFvvEPK10MethodInfoPvPS4_
eJe:_InternalEnumerator_1_System_Collections_IEnumerator_get_Current_m1503522504_gshared
bdc:__ZN19ShaderPropertySheet16SetVectorIndexedEN9ShaderLab16FastPropertyNameEifRK8Vector4fNS_8SetFlagsE
Blf:_Type_get_IsAbstract_m1120089130
Np:__ZN14SafeBinaryRead21TransferSTLStyleArrayIN4core12basic_stringIcNS1_20StringStorageDefaultIcEEEEEEvRT_17TransferMetaFlags
YRg:_UriFormatException__ctor_m1115096473
TJ:__ZN11UnityEngine15CloudWebService14DataDispatcher4StopEv
$je:_Int16_System_IConvertible_ToUInt64_m134975563
A_b:__ZNSt3__26vectorIN9ShaderLab20SerializedSubProgram12UAVParameterENS_9allocatorIS3_EEE8__appendEj
RFh:_GC_maybe_gc
lWd:_Single_System_IConvertible_ToDecimal_m325860800_AdjustorThunk
lbf:_Array_InternalArray__ICollection_CopyTo_TisSingle_t1397266774_m455540885_gshared
U1:__ZN17ScriptingGCHandle7AcquireE18ScriptingObjectPtr25ScriptingGCHandleWeakness
oCg:__Z74RuntimeInvoker_RuntimeObject_RuntimeObject_Int64_t3736567304_RuntimeObjectPFvvEPK10MethodInfoPvPS4_
FRh:dynCall_iifiii
exa:__Z21HasAlphaTextureFormat13TextureFormat
yE:__ZN12AudioManager6UpdateEv
_wa:__ZN14ImageReference9BlitImageERKS_NS_8BlitModeE
GK:__GLOBAL__sub_I_Runtime_Core_Callbacks_0_cpp
$ob:__ZN23CachedSerializationDataD2Ev
PSb:__ZNK25CameraStackRenderingState31CalculateStereoCameraTargetTypeEv
Ppa:__ZN14RenderSettings23VirtualRedirectTransferER14SafeBinaryRead
kxc:__ZNK13b2CircleShape5CloneEP16b2BlockAllocator
tzh:__ZN6il2cpp2os10ThreadImpl15CurrentThreadIdEv
CSd:_SymmetricAlgorithm_get_Key_m3241860519
AK:__GLOBAL__sub_I_Runtime_Camera_5_cpp
FGc:__ZN10Collider2DC2E10MemLabelId18ObjectCreationMode
_ea:__Z17IsObjectAvailablei
QMa:__ZN12InputManagerD0Ev
HSa:__ZNK16LightmapSettings14GetLightProbesEv
UJe:_InternalEnumerator_1_System_Collections_IEnumerator_get_Current_m2889979481_AdjustorThunk
SOh:_posix_memalign
p2e:_ASN1_GetBytes_m3305539297
RR:__ZNK15MonoScriptCache7ReleaseEv
D$g:__ZN6il2cpp2vm5Class13HasReferencesEP11Il2CppClass
Ff:_glBindTexture
kNh:_snprintf
uWh:_emscripten_glVertexAttrib1fv__wrapper
Ccc:__ZN16LevelGameManagerC2E10MemLabelId18ObjectCreationMode
hUg:_AudioExtensionManager_RemoveExtensionFromManager_m442924172
pwf:_MonoBehaviour_Internal_IsInvokingAll_m2820042090
VUh:_emscripten_glGetProgramInfoLog__wrapper
nHa:__ZN13ScreenManager20SetScreenOrientationE17ScreenOrientation
mUd:_String_Equals_m1744302937
ktf:_Display__ctor_m501911701
Rlg:_ReadOnlyCollection_1_System_Collections_Generic_IListU3CTU3E_Insert_m1020890112_gshared
$ce:_Hashtable__cctor_m4112166779
jLb:__Z19SetupMotionMatricesR6CameraR18RPDataMotionVector
hWg:__ZL7log2_64y
Lze:_CurrentSystemTimeZone_GetUtcOffset_m340358963
zGf:_PKCS12_Decrypt_m1280162536
bKe:_InternalEnumerator_1_get_Current_m3081223448_gshared
pma:__ZN10VertexDataC2ERKS_17ShaderChannelMask10MemLabelId
$be:_CaseInsensitiveHashCodeProvider_AreEqual_m1790260777
Yja:__ZN22CreateGpuProgramOutputC2Ev
iuf:_PersistentCallGroup_Initialize_m4253175514
B6d:_Boolean_System_IConvertible_ToChar_m4279513009_AdjustorThunk
Uce:_Hashtable__ctor_m1763145853
ucd:_NumberFormatter_ScaleOrder_m3813786990
v4e:_PrivateKeyInfo_DecodeDSA_m771724585
_mb:__ZNK35ScriptingManagedObjectProxyRegistry11InitProxiesEv
O9b:__ZN8GUILayer12CleanupClassEv
fof:_UInt32_System_IConvertible_ToSByte_m1061556466
Tmd:_WellKnownClientTypeEntry__ctor_m2471908952
ha:invoke_vidi
Kdd:_NumberFormatter_FormatRoundtrip_m19342689
pmd:_RemotingServices_CreateClientProxyForContextBound_m783705199
sDf:_InternalAsyncResult_get_ProceedAfterHandshake_m2508379800
rSe:_Enumerator_System_Collections_IEnumerator_get_Current_m3816090481_gshared
zBh:__ZN6il2cpp5utils11StringUtils15StringDuplicateEPKc
oja:__ZNK9ShaderLab21ShaderRasterStateDesc16ToGfxRasterStateEPK19ShaderPropertySheetS3_R14GfxRasterState
XKh:__ZN6il2cpp2os9EventImplC2Ebb
kFa:__ZNSt3__26vectorI13dynamic_arrayI8Vector2fLj0EENS_9allocatorIS3_EEE6assignINS_11__wrap_iterIPS3_EEEENS_9enable_ifIXaasr21__is_forward_iteratorIT_EE5valuesr16is_constructibleIS3_NS_15iterator_traitsISC_E9referenceEEE5valueEvE4typeESC_SC_
hO:__Z20IsMatrixBuiltinParamPKcPi
hgf:_UnicodeEncoding_GetBytesInternal_m1902824297
Fcc:__ZN8Renderer19PostInitializeClassEv
z8e:_Array_FindIndex_TisRuntimeObject_m2504082708_gshared
qIf:_X509Chain_FindCertificateRoot_m1937726457
fNc:__ZN11UnityEngine15PlatformWrapper21GetVRPlayAreaGeometryER13dynamic_arrayI8Vector3fLj0EE
lHh:__ZN6il2cpp6icalls8mscorlib6System8Delegate23CreateDelegate_internalEP20Il2CppReflectionTypeP12Il2CppObjectP22Il2CppReflectionMethodb
sTe:_Enumerator_System_Collections_IEnumerator_get_Current_m921113401_AdjustorThunk
LRb:__ZNK13RendererScene22GetStaticBoundingBoxesEv
sob:__ZN18DelayedCallManager18CancelCallDelayed2E4PPtrI6ObjectEPF15CallObjectStatePS1_PvES7_
bda:__ZN25ThreadsafeLinearAllocator10ReallocateEPvji
R7a:__Z18Transfer_BlittableI14SafeBinaryReadLb1E11QuaternionfEvRK29SerializationCommandArgumentsR31RuntimeSerializationCommandInfo
g$:__ZN18SpriteAtlasManagerD0Ev
KGh:_GC_disable
wFa:__ZN10Matrix4x4f8TransferI14SafeBinaryReadEEvRT_
yrd:_CryptographicUnexpectedOperationException__ctor_m2381988196
Tgh:__ZN14dense_hash_mapI10KeyWrapperIPK22Il2CppGenericParameterEPK24MonoGenericParameterInfoN6il2cpp5utils11PointerHashIS2_EENS4_14EqualsComparerINSt3__28equal_toIS3_EEEENSD_9allocatorINSD_4pairIKS4_S7_EEEEE15set_deleted_keyERSJ_
GMe:_InternalEnumerator_1_System_Collections_IEnumerator_get_Current_m4213507601_gshared
uV:__Z6AppendRKN4core12basic_stringIcNS_20StringStorageDefaultIcEEEEPKc
cvh:__ZN6il2cpp2vm6Object12NullableInitEPhP12Il2CppObjectP11Il2CppClass
f5:__ZN9Scripting11UnityEngine16TrackedReference12CleanupProxyEv
sxb:__ZN7ApiGLES18ClearBufferSubDataEjN2gl12BufferTargetEll
R5b:__Z37Camera_Get_Custom_PropAllCamerasCountv
hya:__ZN14Texture2DArray8TransferI18StreamedBinaryReadILb0EEEEvRT_
Ra:invoke_fiiii
iRg:_Uri_CheckHostName_m2213216182
rWh:_emscripten_glBindRenderbuffer__wrapper
vzh:__ZN6il2cpp2os10ThreadImpl22CreateForCurrentThreadEv
bqf:_ValueType_InternalEquals_m1384040357
nae:_ArrayListWrapper_Contains_m2641184447
Hef:_Array_InternalArray__get_Item_TisResourceInfo_t2872965302_m3865610257_gshared
tRh:dynCall_viiifi
fAb:__ZN18GfxFramebufferGLES20ActiveContextChangedEPP17RenderSurfaceBaseS2_
A4a:__Z19PluginsRenderMarkeri
H_b:__ZNSt3__26vectorIN9ShaderLab20SerializedSubProgram15StructParameterENS_9allocatorIS3_EEE6assignINS_11__wrap_iterIPS3_EEEENS_9enable_ifIXaasr21__is_forward_iteratorIT_EE5valuesr16is_constructibleIS3_NS_15iterator_traitsISC_E9referenceEEE5valueEvE4typeESC_SC_
Bth:__ZNSt3__214__split_bufferIN6il2cpp2vm5Image20EmbeddedResourceDataERNS_9allocatorIS4_EEEC2EjjS7_
bMd:_X509Certificate2Collection_Add_m3151757943
SKc:__ZN9Scripting11UnityEngine13CharacterInfo9InitProxyEv
Jxc:__ZNSt3__227__insertion_sort_incompleteIR15DepthComparitorP8DepthHitEEbT0_S5_T_
dce:_CaseInsensitiveHashCodeProvider_get_DefaultInvariant_m4264275163
Pzg:__Z195RuntimeInvoker_Int32_t2950945753_RuntimeObject_Int32_t2950945753_Int32_t2950945753_Int32_t2950945753_RuntimeObject_DecoderFallbackBufferU26_t3866396827_ByteU5BU5DU26_t4057885439_SByte_t1669577662PFvvEPK10MethodInfoPvPS4_
qMg:_MatchCollection_get_Count_m1586545784
vF:__ZN5physx14PxLightCpuTask12addReferenceEv
Kla:__ZNK15InstancingProps35FillInstanceBufferDispatchConstantsIN10Instancing14RenderLoopArgsEEEvPPvjjRK19ShaderPropertySheetRKT_
KEa:__ZN21EnlightenSceneMapping8TransferI19StreamedBinaryWriteILb0EEEEvRT_
Xvh:__ZN6il2cpp2gc16GarbageCollector19InitializeFinalizerEv
nlg:_ReadOnlyCollection_1__ctor_m2122524688_gshared
Kdb:__Z35Transfer_Blittable_FixedBufferFieldI24GenerateTypeTreeTransferxEvRK29SerializationCommandArgumentsR31RuntimeSerializationCommandInfo
Dcf:_Array_InternalArray__set_Item_TisLink_t544317964_m1234244240_gshared
Hfc:__Z20CalculateSqrDistanceRK8Vector3fRK4AABB
spd:_SerializationInfo_GetBoolean_m1756153320
fA:__Z32AudioMixerDuckingProcessCallbackP21UnityAudioEffectStatePfS1_jii
HUh:_glGetUniformIndices__wrapper
Ilg:_ReadOnlyCollection_1_Contains_m2979956790_gshared
Dbc:__ZN26CustomRenderTextureManagerD2Ev
hw:__ZN12AudioManager8TransferI24GenerateTypeTreeTransferEEvRT_
nra:__Z25GetBytesFromTextureFormat13TextureFormat
Doh:__ZN6il2cpp6icalls8mscorlib6System9Threading6Thread20Thread_free_internalEP12Il2CppThreadi
dsb:__ZNK11PreloadData18GetInstanceIDArrayER13dynamic_arrayIiLj0EE
WGd:__KeysEnumerator_get_Current_m2996478063
OS:__Z32scripting_class_get_assemblyname17ScriptingClassPtr
gxc:__ZN9b2Simplex9ReadCacheEPK14b2SimplexCachePK15b2DistanceProxyRK11b2TransformS5_S8_
vIc:__Z50Register_UnityEngine_Rigidbody2D_AddForce_Injectedv
mLe:_InternalEnumerator_1_get_Current_m2128158355_AdjustorThunk
V1a:__ZN9GfxDevice21RegisterNativeTextureE9TextureIDi16TextureDimension
FDe:_Decimal_decimal2double_m2573538823
vIh:__ZN6il2cpp6icalls8mscorlib6System10Reflection4Emit11TypeBuilder20create_generic_classEP27Il2CppReflectionTypeBuilder
qAb:__ZNK16UniformCacheGLES6SubmitEjRK13dynamic_arrayIN20GpuProgramParameters14ValueParameterELj0EERKS0_IiLj0EE
fD:__Z60Register_UnityEngine_AudioListener_GetNumExtensionPropertiesv
yi:_emscripten_glUniformMatrix4fv
Emh:__ZN15dense_hashtableINSt3__24pairIK10KeyWrapperINS1_IP11Il2CppClassjEEES4_EES6_N6il2cpp8metadata14ArrayClassHashEN14dense_hash_mapIS6_S4_SB_NS6_14EqualsComparerINSA_17ArrayClassCompareEEENS0_9allocatorIS8_EEE9SelectKeyESF_SH_E13set_empty_keyERKS8_
CUa:__ZN12ScriptMapperD2Ev
P_h:b100
cUc:__ZL59__ManagedRegistrationHelperFunction_SubsystemDescriptorBasePv
Qqf:_AnimationCurve_Finalize_m2397002729
Zod:_SerializationCallbacks__cctor_m1674315180
g5g:__ZNK15dense_hashtableI10KeyWrapperIPK19Il2CppGenericMethodES4_N6il2cpp8metadata23Il2CppGenericMethodHashEN14dense_hash_setIS4_S7_NS4_14EqualsComparerINS6_26Il2CppGenericMethodCompareEEENSt3__29allocatorIS4_EEE8IdentityESB_SE_E23find_position_with_hashERKS4_j
Oia:__ZNSt3__26vectorIN12FlareManager10FlareEntryENS_9allocatorIS2_EEE21__push_back_slow_pathIS2_EEvOT_
v1b:__ZN9ShaderLab20SerializedSubProgram16TextureParameter8TransferI19StreamedBinaryWriteILb0EEEEvRT_
dca:__ZNK7Hash12812PackToUInt32Ev
mbe:_SynchronizedArrayListWrapper_IndexOf_m3642674350
GU:__ZNSt3__227__insertion_sort_incompleteIRNS_6__lessI14ObjectLoadDataS2_EEPS2_EEbT0_S6_T_
$J:__ZN11UnityEngine15CloudWebService16SessionContainer8AddEventEPNS0_14CloudEventInfoE
$5a:__Z4TrimRKN4core12basic_stringIcNS_20StringStorageDefaultIcEEEES5_
gJd:_SPKey_Equals_m4205549017
Pdf:_Dictionary_2_Do_ICollectionCopyTo_TisKeyValuePair_2_t3842366416_m1399105608_gshared
nLd:_X509Certificate2_Import_m4026562329
pXh:_glGetStringi__wrapper
sFa:__ZN10VertexData8TransferI14SafeBinaryReadEEvRT_
D_:__ZN13RuntimeStaticI12AdsIdHandlerLb0EE16StaticInitializeEPv
oGh:_GC_malloc_atomic
s1c:_ActivatedClientTypeEntry_ToString_m2494181680
_Ih:__ZN6il2cpp5utils6Memory13AlignedMallocEjj
Dth:__ZNSt3__214__split_bufferIN6il2cpp2vm5Image20EmbeddedResourceDataERNS_9allocatorIS4_EEED2Ev
RQ:__ZL20SortItemByInstanceIDRKN18AwakeFromLoadQueue4ItemES2_
hHd:_TypeConverterAttribute__ctor_m1774069684
QPc:__ZN20UnityConnectSettings8TransferI24GenerateTypeTreeTransferEEvRT_
Zac:__ZZN12MeshRenderer15InitializeClassEvEN29FunctorImpl_205kDidDeleteMesh4CallEPviR11MessageData
z1d:_Byte_ToString_m4063101981
Zad:_MonoType_GetConstructors_m2574682189
Wzc:__ZN25b2SynchronizeFixturesTask7TaskJobEPS_j
nAf:_SceneManager_LoadSceneAsyncNameIndexInternal_m4031498323
NX:__ZL31InitializeRendererUpdateManagerPv
c_c:_ParameterInfo__ctor_m2779026345
N4:__ZN9Scripting11UnityEngine18WaitForFixedUpdate12CleanupProxyEv
e4:__ZL46__ManagedRegistrationHelperFunction_RectOffsetPv
Rcd:_NumberFormatter_get_IsZeroInteger_m2263284741
twa:__ZNSt3__26__treeINS_12__value_typeIiNS_4pairIP4ListI8ListNodeI9BehaviourEES8_EEEENS_19__map_value_compareIiSA_NS_4lessIiEELb1EEENS_9allocatorISA_EEE7destroyEPNS_11__tree_nodeISA_PvEE
PEf:_X509Certificate_PEM_m2020851166
Mbf:_Array_InternalArray__Insert_TisDateTime_t3738529785_m2308632330_gshared
OMa:__ZN11TimeManager8TransferI19StreamedBinaryWriteILb0EEEEvRT_
DDd:_TlsServerCertificateRequest_ProcessAsTls1_m3214041063
SNc:__ZN11UnityEngine15PlatformWrapper27GetGraphicsCapsSupportFlagsEv
qhb:__ZN12NativeBufferI16Converter_StringE15SetupForWritingER9ArrayInfo
ku:__ZN13RuntimeStaticI18AssetBundleManagerLb1EE16StaticInitializeEPv
WTh:___cxa_end_catch__wrapper
g9d:_Char_ToString_m278452217
Erg:__Z32RuntimeInvoker_Boolean_t97287965PFvvEPK10MethodInfoPvPS4_
fUc:__ZL50__ManagedRegistrationHelperFunction_ReferencePointPv
zvd:_BigInteger_op_RightShift_m460065452
dpb:__ZN13MonoBehaviour22DoScriptRebuildWarningEv
mph:__ZN6il2cpp6icalls8mscorlib6System5Array13ClearInternalEP11Il2CppArrayii
EQh:_llvm_cttz_i32
dZd:_Encoding_GetEncoding_m2801244948
CSf:__ZL52_Assembly_t1988906988_CustomAttributesCacheGeneratorP21CustomAttributesCache
cEf:_SslStreamBase_EndRead_m495357226
ooh:__ZN6il2cpp5utils9PathUtils7CombineIcEENSt3__212basic_stringIT_NS3_11char_traitsIS5_EENS3_9allocatorIS5_EEEERKSA_SC_
gCg:__Z64RuntimeInvoker_RuntimeObject_SByte_t1669577662_SByte_t1669577662PFvvEPK10MethodInfoPvPS4_
dZe:_GenericComparer_1_Compare_m459680062_gshared
vhd:_EnumBuilder_GetConstructorImpl_m3068576149
RP:__Z18ConvertUTF16toUTF8PPKtS0_PPhS2_15ConversionFlags
jAh:__ZN6il2cpp2os20PathErrnoToErrorCodeERKNSt3__212basic_stringIcNS1_11char_traitsIcEENS1_9allocatorIcEEEEi
WVg:__ZL16my_g_bit_nth_msfj
j$f:__ZL65NonSerializedAttribute_t2945079482_CustomAttributesCacheGeneratorP21CustomAttributesCache
xig:_Enumerator_MoveNext_m3662315381_AdjustorThunk
lDd:_TlsClientFinished_ProcessAsTls1_m2429863130
mIb:__Z23SetupStereoFlareElementP11FlareVertexRK8Vector2fS3_S3_RK11ColorRGBA32RK10Matrix4x4fRK8Vector3fb
Q$g:__ZN6il2cpp2vm5Class15GetInstanceSizeEPK11Il2CppClass
SYd:_String_Join_m2050845953
bUe:_ShimEnumerator_MoveNext_m2406150314_gshared
LAb:__ZL19BlitFramebufferImplRN4gles23BlitFramebufferDrawQuadER9GfxDevice9TextureIDRK8Vector4f
DRh:dynCall_viiiiiiiiiiiiii
bcc:__ZN14Texture2DArray11InitTextureEiii13TextureFormatb
waf:_Array_InternalArray__ICollection_Add_TisUInt64_t4134040092_m4256575528_gshared
X4:__ZN9Scripting11UnityEngine10Vector2Int12CleanupProxyEv
One:_Directory_CreateDirectoriesInternal_m3735342319
Ihh:__ZN15dense_hashtableINSt3__24pairIK10KeyWrapperINS1_IPK11Il2CppImageP11Il2CppClassEEEjEES9_17ReflectionMapHashIS8_EN14dense_hash_mapIS9_jSD_NS9_14EqualsComparerINS0_8equal_toIS8_EEEENS0_9allocatorISB_EEE9SelectKeyESI_SK_E14squash_deletedEv
rSd:_SHAConstants__cctor_m1699027474
dAc:__ZN39b2PrepareDiscreteIslandContactIndexTask7TaskJobEPS_j
HMb:__ZNK6Camera26GetStereoSingleCullEnabledEv
FPa:__Z14resize_trimmedINSt3__26vectorIN4core12basic_stringIcNS2_20StringStorageDefaultIcEEEE13stl_allocatorIS6_L18MemLabelIdentifier13ELi16EEEEEvRT_j
z8a:__Z18Transfer_BlittableI14SafeBinaryReadLb0EaEvRK29SerializationCommandArgumentsR31RuntimeSerializationCommandInfo
Wkf:_TimeSpan_GetHashCode_m1939414618
hDa:__ZN4core8hash_setINS_4pairIKiiLb0EEENS_9hash_pairINS_4hashIiEES2_iEENS_10equal_pairINSt3__28equal_toIiEES2_iEEE6insertERKS3_
I8d:_Char_System_IConvertible_ToUInt64_m3536560782
nYe:_EqualityComparer_1__cctor_m3452395357_gshared
MGb:__Z20SyncFenceCullResultsR11CullResults
rCb:__ZN15TextureTFMethod20IsBoneCountSupportedEi
tFe:_Double_ToString_m3828879243_AdjustorThunk
Vcb:__Z22TransferField_NonArrayI17RemapPPtrTransfer27Converter_SimpleNativeClassI8GUIStyleEEvRK23StaticTransferFieldInfoR31RuntimeSerializationCommandInfoRT0_
t8c:_TextReader_Synchronized_m3004980758
CSc:__ZNK20UnityWebRequestProtoI24UnityWebRequestTransport16AtomicRefCounter14RedirectHelper14ResponseHelper15DownloadHandler13UploadHandler18CertificateHandler12HeaderHelper14AsyncOperationE16GetUploadedBytesEv
Tyh:__ZN6il2cpp2os6Thread12QueueUserAPCEPFvPvES2_
fka:__ZN19ShaderPropertySheet10SetTextureERK23FastTexturePropertyNameP7Texture
Wfd:_CustomAttributeData__ctor_m2966233049
DCd:_Context_set_ClientWriteIV_m3405909624
OSg:_AesManaged_CreateDecryptor_m692040246
qBh:__ZNSt3__212basic_stringIDsNS_11char_traitsIDsEENS_9allocatorIDsEEE9__grow_byEjjjjjj
At:__ZN17AnimationCurveTplIfE8TransferI14SafeBinaryReadEEvRT_
Jcf:_Array_InternalArray__set_Item_TisInt16_t2552820387_m2544074754_gshared
L3d:_ArithmeticException__ctor_m3551809662
noe:_MonoIO_ExistsDirectory_m2182482658
FA:__ZNK11AudioSource9IsPlayingEv
QBa:__ZNSt3__26vectorIN15QualitySettings14QualitySettingENS_9allocatorIS2_EEE6assignIPS2_EENS_9enable_ifIXaasr21__is_forward_iteratorIT_EE5valuesr16is_constructibleIS2_NS_15iterator_traitsIS9_E9referenceEEE5valueEvE4typeES9_S9_
efg:_List_1_CheckCollection_m1671972112_gshared
OAd:_CipherSuiteFactory_GetSsl3SupportedCiphers_m3757358569
tgf:_UnicodeEncoding_GetPreamble_m3002287178
$Ab:__ZN7ApiGLES6SubmitEN2gl10SubmitModeE
PTg:_AudioSource_get_spatialize_m3609701298
H5a:__ZN20GpuProgramParameters14AddVectorParamEPKcii15ShaderParamTypeiiiP16PropertyNamesSet
BRc:__ZN9Scripting19UnityEngineInternal15WebRequestUtils12CleanupProxyEv
YRc:__ZNK12HeaderHelper3GetERKN4core12basic_stringIcNS0_20StringStorageDefaultIcEEEE
fNa:__ZN9InputAxis8TransferI14SafeBinaryReadEEvRT_
eR:__ZNK21ExecutionOrderManager30GetCustomAwakeFromLoadQueueForEPKN5Unity4TypeE
ZQc:__Z27RegisterModule_UnityConnectv
t8b:__ZZL31RegisterRectTransformPropertiesR22GenericPropertyBindingEN32Wrapper_RectTransformSizeDeltax013GetFloatValueEPv
Mqe:_MemoryStream_Expand_m3554752073
dgh:__ZN6il2cpp2vm10Reflection27GetCustomAttributesCacheForEP25Il2CppReflectionParameter
uAf:_ScriptableObject_CreateInstance_m2611081756
bnd:_ObjectRecord_get_IsInstanceReady_m2304516395
rre:_Path__cctor_m3273994011
pAe:_DateTimeUtils_CountRepeat_m3396693018
Gqf:_WeakReference_get_Target_m168713953
GVh:_glBindRenderbuffer__wrapper
gz:__ZN10ObjectPoolIN4FMOD12ChannelGroupENS0_13ChannelGroupIEE7SetSizeEi
ASg:_SymmetricTransform_FinalDecrypt_m764004682
zzh:__ZN6il2cpp2os10ThreadImpl33UnregisterCurrentThreadForCleanupEv
Erc:__ZN9Scripting11UnityEngine26ParticleSystemVertexStream9InitProxyEv
dOg:_Parser_ParseGroupingConstruct_m263270497
Ohh:__ZN14dense_hash_mapI10KeyWrapperINSt3__24pairIPK9EventInfoP11Il2CppClassEEEj17ReflectionMapHashIS8_ENS9_14EqualsComparerINS1_8equal_toIS8_EEEENS1_9allocatorINS2_IKS9_jEEEEE15set_deleted_keyERSH_
lab:__Z14resize_trimmedINSt3__26vectorI17AnimationCurveTplIfE13stl_allocatorIS3_L18MemLabelIdentifier1ELi16EEEEEvRT_j
j6b:__Z12GUIDToStringRK9UnityGUID
bFd:_RSASslSignatureDeformatter_SetKey_m2204705853
AA:__ZN11SoundHandleC2ERKS_
k5g:__ZNK6il2cpp5utils11collections13ArrayValueMapIPK10Il2CppType17Il2CppInteropData26InteropDataToTypeConverterNS_8metadata14Il2CppTypeLessENS8_26Il2CppTypeEqualityComparerEE10find_firstERKS5_
ipe:_FileStream_get_CanSeek_m331583577
Xq:__ZNSt3__26__sortIR23DependencySortPredicatePN4core4pairIiP9BehaviourLb0EEEEEvT0_S9_T_
Bsd:_DSAParameters_t1885824122_marshal_pinvoke_back
I1e:_Kernel_MultiplyByDword_m1266935086
Mxe:_Convert_ToInt64_m3916071102
Fvg:__Z158RuntimeInvoker_Boolean_t97287965_RuntimeObject_Int32U26_t1369213839_Int32_t2950945753_Int32_t2950945753_RuntimeObject_SByte_t1669577662_ContextU26_t3937453398PFvvEPK10MethodInfoPvPS4_
QXd:_String_Trim_m3384720403
xK:__GLOBAL__sub_I_Runtime_Burst_0_cpp
Tpa:__ZN14RenderSettings18TransferDeprecatedI14SafeBinaryReadEEvRT_
Wzg:__Z93RuntimeInvoker_Single_t1397266774_SingleU26_t1922108698_Single_t1397266774_Single_t1397266774PFvvEPK10MethodInfoPvPS4_
Hph:__ZN6il2cpp2vm9Exception27RaiseNullReferenceExceptionERKNS_5utils10StringViewIDsEEP19Il2CppSequencePoint
vEg:__Z88RuntimeInvoker_RuntimeObject_RuntimeObject_RuntimeObject_RuntimeObject_Int32_t2950945753PFvvEPK10MethodInfoPvPS4_
xmf:_Type_ToString_m3975981286
DM:__ZN12TLSAllocatorI14StackAllocatorE8AllocateEji
$Ug:_ConsumeSampleFramesNativeFunction_BeginInvoke_m342678987
dS:__ZN16ScriptingManager18GetMonoScriptCacheEi
uEb:__ZN20ArchiveStorageHeader13GetDataOffsetERKNS_6HeaderE
rOg:_ExpressionAssertion__ctor_m2554412824
wdf:_Array_Resize_TisCustomAttributeTypedArgument_t2723150157_m3021884250_gshared
G8a:__Z18Transfer_BlittableI14SafeBinaryReadLb1EyEvRK29SerializationCommandArgumentsR31RuntimeSerializationCommandInfo
fcd:_NullReferenceException__ctor_m3076065613
Tkc:__ZN8JSONRead8TransferIfEEvRT_PKc17TransferMetaFlagsb
g2b:__ZN9ShaderLab7Program22ComputeSupportsShadowsEv
ief:_Array_InternalArray__get_Item_TisChar_t3634460470_m324132692_gshared
o2b:__ZL23AddGpuProgramParametersR20GpuProgramParametersRKNSt3__26vectorIN9ShaderLab20SerializedSubProgram15MatrixParameterENS1_9allocatorIS5_EEEERKNS2_INS4_15VectorParameterENS6_ISB_EEEEiiP16PropertyNamesSet
V$:__ZN6prcoreL17RemapGenericFloatI18TexFormatARGBFloat17TexFormatRGBAHalfEEvPKNS_9InnerInfoE
tXd:_String_System_IConvertible_ToUInt16_m2888090399
Ued:_Assembly_InternalGetType_m3065345470
qF:__ZN13Simd4iFactoryIN6detail9FourTupleEEC2Eiiii
J$c:_ResourceSet__ctor_m3356376607
Ivd:_PrimeGeneratorBase_get_PrimalityTest_m2487240563
USf:__ZL56_ParameterInfo_t489405856_CustomAttributesCacheGeneratorP21CustomAttributesCache
kEa:__ZN15SerializeTraitsI33EnlightenTerrainChunksInformationE8TransferI14SafeBinaryReadEEvRS0_RT_
Suc:__ZN6b2Body12SetTransformERK6b2Vec2f
_cc:__ZNK32RendererMaterialAnimationBinding9BindValueER6ObjectRKN11UnityEngine9Animation14GenericBindingERNS3_10BoundCurveE
eVe:_Transform_1_Invoke_m1731820209_gshared
h0g:__ZN6il2cpp2vm5Class11IsInterfaceEPK11Il2CppClass
Axa:__ZL18stbir__support_onef
NWd:_Single_CompareTo_m189772128
Gmc:__Z26Transfer_UnityEngineObjectI9JSONWriteLb0EEvRK29SerializationCommandArgumentsR31RuntimeSerializationCommandInfo
QRe:_DefaultComparer_Compare_m4042058291_gshared
lva:__ZNSt3__26vectorIN4core12basic_stringIcNS1_20StringStorageDefaultIcEEEE13stl_allocatorIS5_L18MemLabelIdentifier1ELi16EEE6assignINS_11__wrap_iterIPS5_EEEENS_9enable_ifIXaasr21__is_forward_iteratorIT_EE5valuesr16is_constructibleIS5_NS_15iterator_traitsISF_E9referenceEEE5valueEvE4typeESF_SF_
Uoe:_FileLoadException_ToString_m2989457882
fUg:_AudioListener_ClearExtensionProperties_m3849891634
ref:_Array_InternalArray__get_Item_TisDecimal_t2948259380_m3511003792_gshared
av:__ZL45__ManagedRegistrationHelperFunction_AudioClipPv
gUd:_SecurityElement_IsValidAttributeValue_m948345692
ncc:__ZN14Texture2DArrayC2E10MemLabelId18ObjectCreationMode
wa:invoke_vdd
Sm:FUNCTION_TABLE_fiii
E8c:_TextWriter_Write_m2252948084
nfc:__Z19RegisterModule_Corev
w9b:__ZNK30SpriteRendererAnimationBinding12GetPPtrValueERKN11UnityEngine9Animation10BoundCurveE
Aee:_CCFixed_FromDateTime_m3894190577
CSb:__Z29PluginsIssueRenderingExtEvent26UnityRenderingExtEventTypePv
Vug:__Z116RuntimeInvoker_RuntimeObject_RuntimeObject_Int32_t2950945753_RuntimeObject_RuntimeObject_RuntimeObject_RuntimeObjectPFvvEPK10MethodInfoPvPS4_
Ind:_MessageFormatter_ReadMethodCall_m2327590823
Rbc:__Z14RandomRotationP9Texture2DPhiiii
_Ce:_Decimal_GetBits_m453754410
Lxd:_PKCS1_Encode_v15_m2077073129
P6a:__ZN10Instancing11DrawAPIArgsC2ERK19ShaderPropertySheetPK8Vector4fS6_S6_i
onh:__ZNSt3__214__split_bufferIN6il2cpp8metadata18GenericArrayMethodERNS_9allocatorIS3_EEED2Ev
v5a:__ZN4gles14UseGLSLProgramER15DeviceStateGLESjbij
cZh:_glDeleteProgram__wrapper
Mxa:__ZN6prcoreL18BlitFloatToIntegerERK14ImageReferenceRS0_
jCe:_DBNull_System_IConvertible_ToUInt32_m3784627971
GBd:_ClientSessionCache_Add_m964342678
jgc:__ZN23TransformChangeDispatch46GetAndClearChangedTransformsForMultipleSystemsEyR13dynamic_arrayI23TransformAccessReadOnlyLj0EERS0_IyLj0EEPN9profiling6MarkerE
rIb:__Z13GetIPhysics2Dv
wJ:__ZN11UnityEngine15CloudWebService14RestDownloader17OnCompleteContentEv
Ebh:__ZN15dense_hashtableINSt3__24pairIK10KeyWrapperINS1_IPK14Il2CppAssemblyP11Il2CppClassEEEjEES9_17ReflectionMapHashIS8_EN14dense_hash_mapIS9_jSD_NS9_14EqualsComparerINS0_8equal_toIS8_EEEENS0_9allocatorISB_EEE9SelectKeyESI_SK_E15insert_noresizeERKSB_
N6a:__ZN10Instancing11DrawAPIArgsC2Ev
oDe:_DivideByZeroException__ctor_m3496959969
mFf:_TlsStream_get_EOF_m953226442
Ga:invoke_viffi
jwh:__ZN6il2cpp2gcL10CleanupCCWEPvS1_
Ja:invoke_vifff
NXh:_glGetVertexAttribiv__wrapper
pe:_emscripten_request_fullscreen
gog:_Predicate_1_Invoke_m851618236_gshared
Tpb:__ZN20LocalFileSystemWebGL6DeleteER13FileEntryDatab
re:_emscripten_glDisableVertexAttribArray
$6e:_Array_InternalArray__ICollection_Remove_TisSingle_t1397266774_m3361324455_gshared
W9e:_Array_InternalArray__ICollection_Add_TisSlot_t3975888750_m1793695076_gshared
Cb:invoke_fifffi
Ex:__ZN4FMOD5Sound15getNumSubSoundsEPi
_yb:__ZN4gles23ClearCurrentFramebufferEP7ApiGLESbbbRK10ColorRGBAffi
zSe:_Enumerator_System_Collections_IDictionaryEnumerator_get_Entry_m3249874482_AdjustorThunk
zqg:_UnityEvent_1_Invoke_m3604335408_gshared
Ce:_emscripten_glDeleteObjectARB
SAf:_StackTraceUtility__cctor_m1981266436
xf:_IMG_Load
V0d:_PKCS12_RemoveCertificate_m1421555398
EPd:_Interval__ctor_m4022869013_AdjustorThunk
Wxc:__ZNSt3__27__sort4IRN18Overlap2DQueryBase29ColliderHitsByDepthComparitorEPP10Collider2DEEjT0_S7_S7_S7_T_
G6c:_MethodDictionary_get_Item_m1201458851
TE:___cxx_global_var_init_13
gF:___cxx_global_var_init_10
hF:___cxx_global_var_init_11
xWd:_Single_System_IConvertible_ToSingle_m1939829239_AdjustorThunk
Nk:_JS_SystemInfo_GetBrowserVersionString
hVa:__ZN2UI13RectTransform23VirtualRedirectTransferER14SafeBinaryRead
U$b:__ZNSt3__26vectorIN9ShaderLab20SerializedSubProgramENS_9allocatorIS2_EEE6assignIPS2_EENS_9enable_ifIXaasr21__is_forward_iteratorIT_EE5valuesr16is_constructibleIS2_NS_15iterator_traitsIS9_E9referenceEEE5valueEvE4typeES9_S9_
Toc:__Z18Transfer_BlittableI8JSONReadLb0E8BitFieldEvRK29SerializationCommandArgumentsR31RuntimeSerializationCommandInfo
ITd:_SecurityPermission_set_Flags_m1503445204
Kib:__ZL17Transfer_GUIStyleI18StreamedBinaryReadILb1EELb0EEvRK29SerializationCommandArgumentsR31RuntimeSerializationCommandInfo
yjc:__ZN9Scripting11UnityEngine15ScrollViewState9InitProxyEv
q1e:_ModulusRing_Multiply_m343333088
OZb:__ZN9ShaderLab14SerializedPass8TransferI14SafeBinaryReadEEvRT_
DC:__ZN12AudioManager16SetListenerPauseEb
lDc:__ZNSt3__26__sortIRN10ClipperLib12LocMinSorterEPNS1_12LocalMinimumEEEvT0_S6_T_
Orc:__ZL50__ManagedRegistrationHelperFunction_ContactPoint2DPv
ea:invoke_viiiiiiiiiii
bMh:___syscall_ret
CGf:_DeriveBytes_set_Salt_m1400945044
$Og:_AnchorInfo__ctor_m46784903
pAd:_CipherSuiteCollection_get_Item_m4188309062
gDf:_SslHandshakeHash_HashFinal_m2573455475
F4c:_SynchronizationAttribute_ReleaseLock_m1030353464
Kdc:__ZN14qsort_internal30FindAndMovePivotToLastPositionIP8Vector2fi26PointDistanceSortPredicateEEvT_S4_T0_T1_
mGa:__ZN11ChannelInfo8TransferI19StreamedBinaryWriteILb0EEEEvRT_
tBh:__ZN4utf88internal13validate_nextIPKcEENS0_9utf_errorERT_S5_Rj
_Ib:__ZN14qsort_internal13Partition3WayIP17RODataReplacementi19ROSorterReplacementEENSt3__24pairIT_S6_EES6_S6_T0_T1_
G4b:__Z34Register_UnityEngine_Gradient_Initv
ZEg:__Z84RuntimeInvoker_RuntimeObject_RayU26_t3515555043_Single_t1397266774_Int32_t2950945753PFvvEPK10MethodInfoPvPS4_
w9e:_Array_InternalArray__IndexOf_TisUInt64_t4134040092_m1206929132_gshared
pKc:__ZN9Scripting11UnityEngine12TreeInstance9InitProxyEv
jNa:__ZN9InputAxis8TransferI19StreamedBinaryWriteILb0EEEEvRT_
xke:__Z33il2cpp_codegen_check_sub_overflowxx
_zc:__ZN14qsort_internal5QSortIPN25b2SynchronizeFixturesTask14b2DeferredMoveEiPFbRKS2_S5_EEEvT_S8_T0_T1_
UEe:_Double_System_IConvertible_ToInt16_m3591921965_AdjustorThunk
Gea:__ZN10GameObject23VirtualRedirectTransferER18StreamedBinaryReadILb0EE
jSg:_SymmetricTransform__ctor_m2693628991
eed:_ObjectDisposedException__ctor_m1034312941
Uf:_glFrontFace
Tfa:__ZN12BaseRenderer21SetGlobalLayeringDataE18GlobalLayeringDataj
X6:__ZN9Scripting11UnityEngine15HideInInspector12CleanupProxyEv
VSg:_AesManaged_set_Key_m767972181
Aje:_Int16_System_IConvertible_ToBoolean_m1656400658_AdjustorThunk
C7d:_Byte_System_IConvertible_ToInt64_m285584218
Jwb:__ZN13GfxDeviceGLES22SetScissorRectPlatformERK5RectTIiE
D$:__ZN6prcoreL17RemapGenericFloatI17TexFormatRGBFloat18TexFormatRGBAFloatEEvPKNS_9InnerInfoE
lpa:__ZN11LightProbes8TransferI17RemapPPtrTransferEEvRT_
R9e:_Array_InternalArray__ICollection_Add_TisDictionaryEntry_t3123975638_m665385049_gshared
L3f:__ZL57BootConfigData_t3818279794_CustomAttributesCacheGeneratorP21CustomAttributesCache
S9c:_MissingMemberException__ctor_m2707802176
Acc:__ZN28ReflectionProbeAnchorManager10InitializeEv
KHc:__ZN16PhysicsManager2D12BeginContactEP9b2Contact
opd:_SerializationInfo_GetValue_m42271953
jB:__ZN9AudioClip11CreateSoundEv
fya:__ZN29SerializeTraitsForStringTypesIN4core12basic_stringIcNS0_20StringStorageDefaultIcEEEEE8TransferI24GenerateTypeTreeTransferEEvRS4_RT_
aih:__ZN14dense_hash_mapI10KeyWrapperINSt3__24pairIPK9FieldInfoP11Il2CppClassEEEj17ReflectionMapHashIS8_ENS9_14EqualsComparerINS1_8equal_toIS8_EEEENS1_9allocatorINS2_IKS9_jEEEEEC2EjRKSB_RKSF_
cxf:_PlayerConnection_GetConnectionNativeApi_m3116196780
zdh:__ZNK15dense_hashtableINSt3__24pairIK10KeyWrapperINS1_IPK10MethodInfoP11Il2CppClassEEEjEES9_17ReflectionMapHashIS8_EN14dense_hash_mapIS9_jSD_NS9_14EqualsComparerINS0_8equal_toIS8_EEEENS0_9allocatorISB_EEE9SelectKeyESI_SK_E13find_positionERSA_
mwb:__ZN13GfxDeviceGLES20CreateComputeProgramEPKhj
qQc:__ZN11UnityEngine7Connect16PersistentValues13RestoreValuesER8JSONRead
aLc:__ZN9Scripting11UnityEngine8Tilemaps8TileData9InitProxyEv
nje:_Guid_BaseToString_m3600006650
SZa:__ZN20ArchiveStorageReader31TryToReadDirectoryFromBlockDataEyPKvj
jzf:_Quaternion_get_identity_m3722672781
dsh:__ZN6il2cpp2vmL11GetIdentityEP14Il2CppIUnknown
dFh:_GC_push_gc_structures
vDd:_TlsServerCertificate_ProcessAsTls1_m819212276
Zdf:_Dictionary_2_Do_ICollectionCopyTo_TisRuntimeObject_m3942192587_gshared
oah:__ZN6il2cpp6icalls8mscorlib6SystemL8IsPublicEPK9EventInfo
Zvd:_PrimalityTests_RabinMillerTest_m2544317101
Wyc:__ZN27b2UpdateTriggerContactsTask7TaskJobEPS_j
cvd:_Kernel_DwordDivMod_m1540317819
sig:_Enumerator_System_Collections_IEnumerator_get_Current_m1399273671_gshared
lig:_List_1_set_Capacity_m3382070520_gshared
jme:_Int64_Equals_m858582563_AdjustorThunk
GGa:__ZNSt3__213__stable_sortIRNS_4lessI4PPtrI11SpriteAtlasEEENS_11__wrap_iterIPS4_EEEEvT0_SA_T_NS_15iterator_traitsISA_E15difference_typeEPNSD_10value_typeEi
Cme:_Int64_ToString_m2085073918_AdjustorThunk
yWc:_FieldInfo_GetFieldOffset_m1356898082
o9e:_Array_InternalArray__IndexOf_TisTypeTag_t3541821701_m2988972362_gshared
JN:__ZN8keywords6CreateEPKc
iWg:__ZL7log2_32j
S:Math_imul
I8:__ZN9Scripting11UnityEngine11ContextMenu9InitProxyEv
$cg:__ZL68ContactFilter2D_t3805203441_CustomAttributesCacheGenerator_layerMaskP21CustomAttributesCache
AJa:__ZN14SpriteRenderer15SetupPropertiesEv
QDd:_TlsServerKeyExchange_Update_m453798279
cCa:__ZN11PlayerPrefs6GetIntERKN4core12basic_stringIcNS0_20StringStorageDefaultIcEEEEi
vAd:_CipherSuiteCollection_System_Collections_IList_IndexOf_m1361500977
qu:__ZN9Scripting11UnityEngine18AssetBundleRequest12CleanupProxyEv
Qze:_DateTime__ctor_m2135476686_AdjustorThunk
N7c:_SoapFieldAttribute_IsInteropXmlElement_m2819415462
ube:_SynchronizedArrayListWrapper_GetEnumerator_m1579424644
GP:__ZN18ScriptingArguments9AddObjectE18ScriptingObjectPtr
uCc:__ZN16CircleCollider2D23VirtualRedirectTransferER18StreamedBinaryReadILb0EE
ZOc:__ZL38InitializeUnityConnectScriptingClassesv
kTb:__ZN13ProbeRenderer8ConvolveEbijjb
uzb:__ZN17GenericDynamicVBOC2ER9GfxDevice13GfxBufferModejj
kyc:__Z28GetPhysics2DScriptingClassesv
Lee:_CCGregorianCalendar_day_from_fixed_m1674702403
vH:__ZN11UnityEngine15CloudWebService17SessionEventQueue10PurgeItemsEj
PTb:__ZN6Camera16StandaloneRenderENS_10RenderFlagEP6ShaderRKN4core12basic_stringIcNS3_20StringStorageDefaultIcEEEE
FLd:_X509Chain_PrepareForNextCertificate_m3691934993
uea:__ZN16LevelGameManager23VirtualRedirectTransferER24GenerateTypeTreeTransfer
cib:__Z18Transfer_BlittableI18StreamedBinaryReadILb1EELb1EtEvRK29SerializationCommandArgumentsR31RuntimeSerializationCommandInfo
aVf:__ZL57X509Certificate_t713131622_CustomAttributesCacheGeneratorP21CustomAttributesCache
lGa:__ZN12BoneWeights48TransferI19StreamedBinaryWriteILb0EEEEvRT_
J1a:__ZN9GfxDevice20DeallocRenderSurfaceEP17RenderSurfaceBase
pve:_DateTime_FromTicks_m4059645178
N5a:__ZN20GpuProgramParameters36UpdatePrepareValuesMaximumBufferSizeEv
h$e:_SimpleCollator_GetContraction_m2205549079
Hwd:_ARC4Managed_GenerateKey_m1607343060
Taf:_Array_InternalArray__ICollection_CopyTo_TisDecimal_t2948259380_m2749946216_gshared
_u:__ZL54__ManagedRegistrationHelperFunction_AudioMixerPlayablePv
nfb:__Z29Transfer_Blittable_ArrayFieldI24GenerateTypeTreeTransferfEvRT_R9ArrayInfoRK23StaticTransferFieldInfo
ZV:__ZNSt3__26__treeINS_12__value_typeIN4core12basic_stringIcNS2_20StringStorageDefaultIcEEEES6_EENS_19__map_value_compareIS6_S7_NS_4lessIS6_EELb1EEE13stl_allocatorIS7_L18MemLabelIdentifier13ELi16EEE7destroyEPNS_11__tree_nodeIS7_PvEE
puf:_UnityEvent_FindMethod_Impl_m2312362624
qVb:__ZN19CustomRenderTexture9AddParentE4PPtrIS_E
cab:__ZN8Gradient8TransferI14SafeBinaryReadEEvRT_
Nrf:_Vector3_GetHashCode_m2879461828
bOg:_Parser_ParseSpecial_m1961501104
FWd:_Single_System_IConvertible_ToUInt64_m3299129161_AdjustorThunk
kva:__ZNSt3__26vectorIN4core12basic_stringIcNS1_20StringStorageDefaultIcEEEE13stl_allocatorIS5_L18MemLabelIdentifier1ELi16EEE7reserveEj
KId:_IPv6Address_AsIPv4Int_m844941024
cte:_SortedList_GetEnumerator_m772783392
W0c:_Marshal__cctor_m4007734770
ZDh:_GC_new_free_list_inner
EDh:_GC_err_printf
zTc:__ZN9Scripting11UnityEngine2XR13InputTracking12CleanupProxyEv
ryd:_RSAManaged_DecryptValue_m1804388365
OIe:_InternalEnumerator_1_System_Collections_IEnumerator_get_Current_m2980550840_AdjustorThunk
Hpc:__ZN8JSONRead8TransferI10RectOffsetEEvRT_PKc17TransferMetaFlagsb
eH:__ZN9JSONWrite8TransferIN11UnityEngine15CloudWebService14DataErrorEvent15FileErrorDetailEEEvRT_PKc17TransferMetaFlags
tle:_Int32_Parse_m2087562008
zZc:_MonoProperty_GetAccessors_m412928203
Nx:__ZN12SoundManager20RegisterModifiedClipEP10SampleClip
ild:_RemotingServices_GetClientChannelSinkChain_m1499550585
FGe:_Environment_ReadXdgUserDir_m2654856189
JSf:__ZL56_EventBuilder_t2558055199_CustomAttributesCacheGeneratorP21CustomAttributesCache
TRd:_SHA384Managed_processBlock_m1272529332
nif:_Interlocked_CompareExchange_m3023855514
YIf:_X509Store_get_Crls_m1211262034
h9d:_Char_ToString_m278452217_AdjustorThunk
P2g:__ZN15dense_hashtableI10KeyWrapperIPK17Il2CppGenericInstES4_N6il2cpp8metadata21Il2CppGenericInstHashEN14dense_hash_setIS4_S7_NS4_14EqualsComparerINS6_24Il2CppGenericInstCompareEEENSt3__29allocatorIS4_EEE8IdentityESB_SE_E13set_empty_keyERKS4_
zHf:_X509Certificate_get_RSA_m1755006809
Iwe:_Convert_ToDouble_m2924063577
xV:__Z17GetCoreModuleSpecv
gza:__ZN7Cubemap23VirtualRedirectTransferER18StreamedBinaryReadILb0EE
Q6b:__ZNSt3__27__sort4IRNS_6__lessI11KeyframeTplIfES3_EEPS3_EEjT0_S7_S7_S7_T_
Ldg:_Enumerator_System_Collections_IEnumerator_Reset_m959124362_gshared
j$e:_SimpleCollator_GetTailContraction_m2107754083
Cs:__ZN9Scripting11UnityEngine25RuntimeAnimatorController12CleanupProxyEv
aeb:__ZL26Transfer_SimpleNativeClassI24GenerateTypeTreeTransfer17AnimationCurveTplIfELb0EEvRK29SerializationCommandArgumentsR31RuntimeSerializationCommandInfo
e8d:_Byte_ToString_m4063101981_AdjustorThunk
efe:_DateTimeFormatInfo__ctor_m3106345035
aX:__ZN16LightmapSettings20DidChangeActiveSceneEP10UnitySceneS1_
Jdg:__ZL59g_AssemblyU2DCSharp_Assembly_CustomAttributesCacheGeneratorP21CustomAttributesCache
Cah:__ZN6il2cpp5utils9PathUtils8BasenameIcEENSt3__212basic_stringIT_NS3_11char_traitsIS5_EENS3_9allocatorIS5_EEEERKSA_
Cld:_RemotingProxy__cctor_m4096951805
ft:__ZN9Scripting11UnityEngine10Animations21AnimationClipPlayable9InitProxyEv
F5:__ZN9Scripting11UnityEngine9Rendering18GraphicsDeviceType12CleanupProxyEv
Oph:__ZN6il2cpp2vm9Exception23GetInvalidCastExceptionERKNS_5utils10StringViewIDsEE
rTh:_emscripten_glDepthRange__wrapper
GQ:__Z63ThreadAndSerializationSafeCheckGetMonoBehaviourBeingTransferredv
sEe:_StackTrace__ctor_m206492268
Bhg:_List_1_set_Item_m4224739467_gshared
Xgd:_ConstructorBuilder_get_Name_m2426555260
QPg:_CapturingGroup_CompareTo_m4265294460
H7:__ZN9Scripting11UnityEngine12Experimental10PlayerLoop6Update12CleanupProxyEv
cOg:_Parser_ParseCharacterClass_m4285351396
aye:_Convert_ToSByte_m2653418303
Xde:_SyncHashtable__ctor_m2449935938
dRd:_RSAPKCS1SignatureFormatter_SetKey_m2935054088
AIb:__ZN12ImageFilters27SetSurfaceUseResolvedBufferEP13RenderTextureb
GNg:_Regex__ctor_m3948448025
CGb:__ZN25CameraStackRenderingState16SetCurrentCameraEP6Camera
Mwa:__ZN14Texture2DArray23VirtualRedirectTransferER18StreamedBinaryReadILb0EE
ghf:_UTF7Encoding_GetByteCount_m209415911
_Ua:__ZN2UI13RectTransform13AwakeFromLoadE17AwakeFromLoadMode
KQg:_RegularExpression_Compile_m2385682508
Vee:_CompareInfo__cctor_m1837489679
MZ:__ZN13RuntimeStaticI13RendererSceneLb0EE13StaticDestroyEPv
WNb:__ZN14qsort_internal30FindAndMovePivotToLastPositionIP20ShadowCasterSortDatai26ShadowCasterSortDataSorterEEvT_S4_T0_T1_
x7a:__Z18Transfer_BlittableI14SafeBinaryReadLb1EiEvRK29SerializationCommandArgumentsR31RuntimeSerializationCommandInfo
LLd:_X509ExtensionEnumerator_get_Current_m256207749
q5d:_Array_Sort_m182264525
Lfd:_Default_IsArrayAssignable_m953489228
Inf:_UInt16_ToString_m355311020_AdjustorThunk
eud:_RC2__ctor_m1146135664
ik:_glGetStringi
j_d:_DecoderExceptionFallback_CreateFallbackBuffer_m1133375601
suh:__ZNK15dense_hashtableI10KeyWrapperIP18Il2CppGenericClassES3_N6il2cpp8metadata22Il2CppGenericClassHashEN14dense_hash_setIS3_S6_NS3_14EqualsComparerINS5_25Il2CppGenericClassCompareEEENSt3__29allocatorIS3_EEE8IdentityESA_SD_E10test_emptyERK30dense_hashtable_const_iteratorIS3_S3_S6_SF_SA_SD_E
$Se:_Enumerator_get_CurrentKey_m889650866_gshared
fUa:__Z40scripting_liveness_calculation_from_root18ScriptingObjectPtrPv
RAf:_StackTraceUtility_PostprocessStacktrace_m1043256299
zha:__ZN9Coroutine16SetCurrentMethodE18ScriptingMethodPtr
sSe:_Enumerator_VerifyCurrent_m829026141_gshared
Zjg:_Collection_1_ConvertItem_m1743542180_gshared
jSb:__Z35IntersectSpherePlaneBoundsOptimizedRKN4math7_float4EPS1_i
kQd:_RNGCryptoServiceProvider__cctor_m3587754670
aV:__ZN17TransformInternal21DetachTransformThreadER18TransformHierarchyjj
HW:__Z22CleanupLODGroupManagerPv
Nuh:__ZN6il2cpp8metadata15GenericMetadata20RegisterGenericClassEP18Il2CppGenericClass
Tk:_glUniform3fv
TJh:__ZNK6il2cpp8metadata24Il2CppGenericInstCompareclERK10KeyWrapperIPK17Il2CppGenericInstES8_
eMd:_X509ChainElement_Set_m655180762
Hwf:_MonoBehaviour_StopCoroutine_m615723318
kzf:_Quaternion_GetHashCode_m2636680144
yMb:__ZNK16LightmapSettings31GetRealtimeLightmapDecodeValuesEv
wz:__ZN5audio5mixer12SetSuspendedERNS0_16AudioMixerMemoryEb
iUa:__ZN17PersistentManager21UnloadNonDirtyStreamsEv
rJb:__Z18SetShadowsKeywordsR17ShaderPassContext9LightType10ShadowType16ShadowProjectionbb
bff:_Object_Instantiate_TisRuntimeObject_m1135049463_gshared
zzg:__Z96RuntimeInvoker_Int32_t2950945753_RuntimeObject_Int32_t2950945753_RuntimeObject_Int32_t2950945753PFvvEPK10MethodInfoPvPS4_
Jjf:_Scheduler__ctor_m3313141270
aIa:__ZN12ImageFilters4BlitER17ShaderPassContextP7TextureP13RenderTextureiPK18SharedMaterialDataPKcP6ShaderiNS_9BlitFlagsE11CubemapFaceRK8Vector2fSH_
qYd:_String_LastIndexOf_m3451222878
aMg:_Mark_get_Index_m3048692661
FH:__ZN11UnityEngine15CloudWebService10RestClientINS0_23WebRequestRestHeaderMapEED2Ev
ol:_emscripten_glDepthMask
nmd:_RemotingServices_CreateClientProxy_m3886727610
sAa:__ZN4crnd25static_huffman_data_model22prepare_decoder_tablesEv
uEd:_RecordProtocol_GetMessage_m2086135164
fX:__Znaj
CZh:_emscripten_glEnableClientState__wrapper
WRc:__ZN20UnityWebRequestProtoI24UnityWebRequestTransport16AtomicRefCounter14RedirectHelper14ResponseHelper15DownloadHandler13UploadHandler18CertificateHandler12HeaderHelper14AsyncOperationE26Job_ExecuteUnityWebRequestEPS9_
NM:__ZN17MessageIdentifierC2EPKcNS_7OptionsEPKN5Unity4TypeES1_
uWd:_Single_System_IConvertible_ToSByte_m1208276900
UQh:dynCall_viiifiii
I8b:__ZNSt3__26__treeIPc15compare_tstringIPKcENS_9allocatorIS1_EEE25__emplace_unique_key_argsIS1_JS1_EEENS_4pairINS_15__tree_iteratorIS1_PNS_11__tree_nodeIS1_PvEEiEEbEERKT_DpOT0_
Sxg:__Z105RuntimeInvoker_Void_t1185182177_RuntimeObject_RuntimeObject_RuntimeObject_RuntimeObject_Int32_t2950945753PFvvEPK10MethodInfoPvPS4_
Ssg:__Z64RuntimeInvoker_RuntimeObject_Int16_t2552820387_Int16_t2552820387PFvvEPK10MethodInfoPvPS4_
mD:__Z55Register_UnityEngine_AudioSource_get_spatializeInternalv
tu:__ZN14SafeBinaryRead8TransferI14ConstantStringEEvRT_PKc17TransferMetaFlags
DGb:__ZNK6Camera16GetStereoEnabledEv
VEd:_SendRecordAsyncResult_SetComplete_m153213906
TDa:__ZN16LightmapSettings23VirtualRedirectTransferER19StreamedBinaryWriteILb0EE
qcc:__ZN12LightManager15InitializeClassEv
Wjf:_WaitHandle__cctor_m4242752477
Xta:__ZN9ShaderLab11shaderprops16GetComputeBufferEPK19ShaderPropertySheetS3_NS_16FastPropertyNameE
BS:__ZN23ManagedAttributeManager35CallManagedGetDefaultExecutionOrderE17ScriptingClassPtr
UP:__ZN18ScriptingArgumentsC2Ev
Ncb:__ZL22Transfer_ManagedObjectI17RemapPPtrTransferLb1EEvRK29SerializationCommandArgumentsR31RuntimeSerializationCommandInfo
gVh:_emscripten_glBlendFuncSeparate__wrapper
nEa:__ZN15SerializeTraitsI13dynamic_arrayI7Hash128Lj0EEE19ResizeSTLStyleArrayERS2_i
xoe:_FileSystemInfo__ctor_m3769019897
aIb:__ZNK25CameraStackRenderingState27GetStereoImageEffectTextureEb
ytd:_HMACSHA384__ctor_m1677515580
cDf:_RIPEMD160Managed_J_m1336489154
Yic:__ZL52__ManagedRegistrationHelperFunction_PlayableDirectorPv
gp:__ZN8Vector3f8TransferI14SafeBinaryReadEEvRT_
n7g:__ZN6il2cpp6icalls6System6System3Net7Sockets6Socket7ReceiveEiP11Il2CppArrayiiNS4_11SocketFlagsEPi
z4b:__ZN13BuildSettings13GetSceneIndexERKN4core12basic_stringIcNS0_20StringStorageDefaultIcEEEE
En:FUNCTION_TABLE_ii
Uda:__ZN10TagManager8TransferI18StreamedBinaryReadILb0EEEEvRT_
gmc:__Z18Transfer_BlittableI9JSONWriteLb0E8BitFieldEvRK29SerializationCommandArgumentsR31RuntimeSerializationCommandInfo
Cqe:_MemoryStream_set_Capacity_m1773624579
wmh:__ZNK15dense_hashtableINSt3__24pairIK10KeyWrapperINS1_IP11Il2CppClassjEEES4_EES6_N6il2cpp8metadata14ArrayClassHashEN14dense_hash_mapIS6_S4_SB_NS6_14EqualsComparerINSA_17ArrayClassCompareEEENS0_9allocatorIS8_EEE9SelectKeyESF_SH_E10test_emptyEj
uee:_GC_SuppressFinalize_m1177400158
I_b:__ZNSt3__26vectorIN9ShaderLab20SerializedSubProgram15StructParameterENS_9allocatorIS3_EEE8__appendEj
cb:invoke_diiii
iUh:b47
Lr:__ZL57__ManagedRegistrationHelperFunction_AnimationClipPlayablePv
TDg:__Z95RuntimeInvoker_Void_t1185182177_RuntimeObject_RuntimeObject_SByte_t1669577662_SByte_t1669577662PFvvEPK10MethodInfoPvPS4_
TXb:__Z24CreateDirectoryRecursiveRKN4core12basic_stringIcNS_20StringStorageDefaultIcEEEE
W0b:__ZN9ShaderLab20SerializedSubProgram8TransferI18StreamedBinaryReadILb0EEEEvRT_
RTh:b40
eUh:b43
pO:__ZN13RuntimeStaticI21ScalableBufferManagerLb0EE13StaticDestroyEPv
SHa:__ZN9Texture3D8TransferI19StreamedBinaryWriteILb0EEEEvRT_
iJb:__ZNK6Camera22CalculateRenderingPathEv
Ixe:_Convert_ToInt64_m3758262873
h3d:_Hashtable_TestPrime_m3839319309
_Ab:__Z13ConvertMipmap14GraphicsFormatPKvS_Pviiii
zq:__ZN9Scripting11UnityEngine2XR5Tango24MeshReconstructionServer9InitProxyEv
Icb:__ZL12InvokeMethodI17RemapPPtrTransferEvRK29SerializationCommandArgumentsR31RuntimeSerializationCommandInfo
GZd:_StringComparer_Compare_m991165676
Csa:__Z14IsHalfRTFormat19RenderTextureFormat
aHh:__ZN6il2cpp6icalls8mscorlib6System9Threading16NativeEventCalls20CreateEvent_internalEbbP12Il2CppStringPb
Vhg:_List_1_AddEnumerable_m3500350831_gshared
Yxd:_PrivateKeyInfo_get_PrivateKey_m3647771102
Coh:__ZN6il2cpp6icalls8mscorlib6System9ThreadingL11ThreadStartEPv
xZ:__ZN15DirectorManager12OnSampleTimeEv
lVc:_TypeBuilder_check_not_created_m3652863637
iba:__ZN12CachedReader10Align4ReadEv
rvc:__ZN15b2WorldManifold10InitializeEPK10b2ManifoldRK11b2TransformfS5_f
oHf:_X501__cctor_m2428304915
ptg:__Z50RuntimeInvoker_Void_t1185182177_Single_t1397266774PFvvEPK10MethodInfoPvPS4_
i0d:_X501_ToString_m4186311521
Tba:__ZNK9Behaviour22GetTypeVirtualInternalEv
Kee:_CCGregorianCalendar_month_from_fixed_m4268992710
B3:__ZL51__ManagedRegistrationHelperFunction_HideInInspectorPv
fZd:_Encoding_get_ASCII_m3595602635
s2a:__ZN9GfxDevice17ImmediateTexCoordEifff
QDc:__ZN10ClipperLib7Clipper13AppendPolygonEPNS_5TEdgeES2_
SXf:__ZL93Interlocked_t2273387594_CustomAttributesCacheGenerator_Interlocked_CompareExchange_m388540288P21CustomAttributesCache
uVc:_MethodBase_get_IsAbstract_m428833029
jdb:__Z35Transfer_Blittable_FixedBufferFieldI24GenerateTypeTreeTransferhEvRK29SerializationCommandArgumentsR31RuntimeSerializationCommandInfo
iTh:_emscripten_glUniform4f__wrapper
lLb:__ZNK6Camera16GetProjectionFarEv
jq:__Z24InverseTransformRotationRK23TransformAccessReadOnlyRKN4math7_float4E
oIf:_X509Chain_Build_m2469702749
EPf:__ZL64Path_t1605229823_CustomAttributesCacheGenerator_InvalidPathCharsP21CustomAttributesCache
tya:__ZN7Texture34CreateFileTextureUploadInstructionE18TextureUploadFlagsj
C2e:_BitConverterLE_ULongFromBytes_m1677445591
jVc:_TypeBuilder_DefineConstructor_m2989882735
M_a:__ZN25SingleBlockMemoryFileDataC2E10MemLabelIdPvjb
Hhh:__ZN15dense_hashtableINSt3__24pairIK10KeyWrapperINS1_IPK11Il2CppImageP11Il2CppClassEEEjEES9_17ReflectionMapHashIS8_EN14dense_hash_mapIS9_jSD_NS9_14EqualsComparerINS0_8equal_toIS8_EEEENS0_9allocatorISB_EEE9SelectKeyESI_SK_E15set_deleted_keyERKSB_
KRb:__ZN27IntermediateRendererManager24GetIntermediateRenderersEi
jwc:__ZNK14b2CapsuleShape5CloneEP16b2BlockAllocator
tE:__ZN16BaseVideoTexture19UpdateVideoTexturesEv
yYc:_MonoField_GetValue_m3124733531
XEa:__ZN6Sprite23VirtualRedirectTransferER19StreamedBinaryWriteILb0EE
C4b:__ZN2UI13RectTransform12SetAnchorMaxERK8Vector2f
C6b:__Z38Transform_CUSTOM_INTERNAL_set_positionP12Il2CppObjectRK8Vector3f
Szg:__Z253RuntimeInvoker_Int32_t2950945753_RuntimeObject_Int32_t2950945753_Int32_t2950945753_RuntimeObject_Int32_t2950945753_UInt32U26_t3735378166_UInt32U26_t3735378166_RuntimeObject_DecoderFallbackBufferU26_t3866396827_ByteU5BU5DU26_t4057885439_SByte_t1669577662PFvvEPK10MethodInfoPvPS4_
Bch:__ZNK15dense_hashtableINSt3__24pairIK10KeyWrapperINS1_IPK9FieldInfoP11Il2CppClassEEEjEES9_17ReflectionMapHashIS8_EN14dense_hash_mapIS9_jSD_NS9_14EqualsComparerINS0_8equal_toIS8_EEEENS0_9allocatorISB_EEE9SelectKeyESI_SK_E5beginEv
Vyh:__ZN6il2cpp2os6Thread15CurrentThreadIdEv
Gyb:__ZN14DataBufferGLES11CopySubDataEPKS_jjj
Jd:_emscripten_glVertexPointer
Pah:__ZN6il2cpp2vm7Runtime47RaiseExecutionEngineExceptionIfMethodIsNotFoundEPK10MethodInfo
HMg:_PatternCompiler_GetMachineFactory_m3758869886
BOb:__Z17GetFrustumPortionPK8Vector3fffPS_
Arh:__ZN15dense_hashtableINSt3__24pairIK10KeyWrapperIP14Il2CppIUnknownEjEES5_N6il2cpp5utils11PointerHashIS3_EEN14dense_hash_mapIS5_jSB_NS5_14EqualsComparerINS0_8equal_toIS4_EEEENS0_9allocatorIS7_EEE9SelectKeyESG_SI_E14squash_deletedEv
cqd:_RuntimeTypeHandle_Equals_m2857439487_AdjustorThunk
Q0a:__ZNK9GfxDevice27GetPlatformAdjustedViewportEv
umg:_ReadOnlyCollection_1_System_Collections_Generic_IListU3CTU3E_set_Item_m88350439_gshared
jT:__ZNSt3__26vectorINS_4pairIiiEE13stl_allocatorIS2_L18MemLabelIdentifier38ELi16EEE6insertENS_11__wrap_iterIPKS2_EEOS2_
iZ:__ZNSt3__26__treeINS_12__value_typeIPvsEENS_19__map_value_compareIS2_S3_NS_4lessIS2_EELb1EEE13stl_allocatorIS3_L18MemLabelIdentifier86ELi16EEE25__emplace_unique_key_argsIS2_JNS_4pairIS2_sEEEEENSD_INS_15__tree_iteratorIS3_PNS_11__tree_nodeIS3_S2_EEiEEbEERKT_DpOT0_
pRc:__GLOBAL__sub_I_artifacts_WebGL_codegenerator_0_cpp_6969
pPg:_Reference_Compile_m4195878675
jXd:_String_System_IConvertible_ToChar_m863771412
r9d:_ArrayList__ctor_m3828927650
tla:__ZN10Matrix3x3f15InvertTransposeEv
YFb:__Z11IsBatchmodev
veg:_Enumerator_System_Collections_IEnumerator_get_Current_m713684915_gshared
ibb:__Z29Transfer_Blittable_ArrayFieldI14SafeBinaryRead8Vector3fEvRT_R9ArrayInfoRK23StaticTransferFieldInfo
lMd:_X509Chain_GetAuthorityKeyIdentifier_m2237883181
rtc:__ZNK12b2WheelJoint10GetAnchorBEv
U8d:_Char_IsLetterOrDigit_m3494175785
y5d:_SimpleEnumerator_get_Current_m72361444
Lp:__ZNSt3__26vectorIN4core12basic_stringIcNS1_20StringStorageDefaultIcEEEENS_9allocatorIS5_EEE8__appendEj
Kkh:_il2cpp_gc_collect
VNa:__ZN26PlayerSettingsSplashScreen8TransferI17RemapPPtrTransferEEvRT_
m2e:_ASN1_set_Value_m2803403806
y9g:__ZN6il2cpp6icalls8mscorlib6SystemL17CollectTypeFieldsINS_5utils10functional10TrueFilterEEEvP11Il2CppClassPKS7_iRNSt3__26vectorIP9FieldInfoNSB_9allocatorISE_EEEERKT_
r5b:__Z13GetTagManagerv
a3d:_Hashtable__ctor_m1815022027
Xng:__ZN28GenericInterfaceFuncInvoker1Ib39CustomAttributeNamedArgument_t287865710E6InvokeEPK10MethodInfoP12Il2CppObjectS0_
Fhf:_UTF8Encoding_GetChars_m1433288684
$Vg:__ZL10roundUp128PyS_
$F:__ZN11UnityEngine15CloudWebService17CloudJobSchedulerD0Ev
XHe:_ArrayReadOnlyList_1_Contains_m381552673_gshared
qlf:_TimeZone_ToUniversalTime_m2789507578
ltg:__Z96RuntimeInvoker_Boolean_t97287965_RuntimeObject_RuntimeObject_Int32_t2950945753_Int32_t2950945753PFvvEPK10MethodInfoPvPS4_
LCd:_Context_get_Current_m2853615040
ODc:__ZN10ClipperLib7Clipper14IntersectEdgesEPNS_5TEdgeES2_RNS_8IntPointE
smf:_Type_IsContextfulImpl_m3693603908
Fkb:__Z18Transfer_BlittableI18StreamedBinaryReadILb0EELb1EN4math12int3_storageEEvRK29SerializationCommandArgumentsR31RuntimeSerializationCommandInfo
oDb:__ZN22VertexDeclarationCache5ClearEv
Jrd:_CspParameters__ctor_m3852972821
hWb:__ZN17PersistentManager12SetPathRemapERKN4core12basic_stringIcNS0_20StringStorageDefaultIcEEEES6_
gQb:__ZN6Camera24PrepareCullingParametersERK23CameraCullingParameters13RenderingPathR11CullResults
rQb:__Z20CullReflectionProbesR8JobFenceRK22SceneCullingParametersRK23ReflectionProbesContextPKjjPjS9_
xRa:__ZN19RuntimeSceneManager22EndIntegrateMainThreadEP10UnitySceneNS_11LoadingModeE
Kcb:__Z26Transfer_UnityEngineObjectI17RemapPPtrTransferLb0EEvRK29SerializationCommandArgumentsR31RuntimeSerializationCommandInfo
ENg:_QuickSearch_GetShiftDistance_m2542665852
zef:_Array_InternalArray__get_Item_TisCustomAttributeTypedArgument_t2723150157_m2639399822_gshared
A0e:_BigInteger_GenerateRandom_m3141592944
efb:__Z29Transfer_Blittable_ArrayFieldI24GenerateTypeTreeTransfer4AABBEvRT_R9ArrayInfoRK23StaticTransferFieldInfo
vjc:__ZN9Scripting11UnityEngine12StylePainter12CleanupProxyEv
QPd:_Interval_Contains_m1454846757
zjc:__ZN9Scripting11UnityEngine15ScrollViewState12CleanupProxyEv
Gtc:__ZN13b2PulleyJoint24SolveVelocityConstraintsERK12b2SolverData
bra:__ZN20SphericalHarmonicsL219AddDirectionalLightERKN4math7_float3ERKNS0_7_float4E
oZ:__Z26ScheduleJobForEachInternalR8JobFencePFvPvjES1_iPFvS1_E11JobPriority
uFb:__ZZ23InitPlayerLoopCallbacksvEN41PostLateUpdateProfilerEndFrameRegistrator7ForwardEv
f3b:__ZN9Scripting18RaiseMonoExceptionEPKcz
hfc:__ZN10GameObject17WillHandleMessageERK17MessageIdentifier
oUd:_StrongNamePublicKeyBlob_Equals_m3655422942
kVd:_SecurityContext__ctor_m1730177197
$cc:__ZN9ShaderLab16FastPropertyName15InitBy28BitHashEj
bhg:_List_1_System_Collections_IList_set_Item_m4182383657_gshared
uwg:__Z96RuntimeInvoker_Void_t1185182177_Int32_t2950945753_Single_t1397266774_RuntimeObject_RuntimeObjectPFvvEPK10MethodInfoPvPS4_
_Ka:__ZN17PackedFloatVector12UnpackFloatsEPfiiii
idh:__ZN30dense_hashtable_const_iteratorINSt3__24pairIK10KeyWrapperIPK10Il2CppTypeEjEES6_N6il2cpp8metadata14Il2CppTypeHashEN14dense_hash_mapIS6_jSB_NS6_14EqualsComparerINSA_26Il2CppTypeEqualityComparerEEENS0_9allocatorIS8_EEE9SelectKeyESF_SH_EppEv
nwb:__ZN13GfxDeviceGLES21DestroyComputeProgramER12ObjectHandleI18ComputeProgram_TagPvE
p7e:_Enumerable_Any_TisRuntimeObject_m3853239423_gshared
bNg:_PatternCompiler_EmitIfDefined_m2075050865
PCe:_Decimal_System_IConvertible_ToInt64_m1446427516_AdjustorThunk
LW:__ZN17UniqueIDGenerator16DestroyPureIndexEj
acd:_NotImplementedException__ctor_m3095902440
PS:__ZL21AppendNestedClassName17ScriptingClassPtrRN4core17string_with_labelILi1EEE
p_b:__ZN14SafeBinaryRead21TransferSTLStyleArrayINSt3__26vectorIN9ShaderLab20SerializedSubProgram12UAVParameterENS1_9allocatorIS5_EEEEEEvRT_17TransferMetaFlags
UYb:__ZN10BootConfig4Data14InitFromStringEPPKcjS2_
YG:__ZN24TextDOMTransferWriteBaseI9JSONWriteE12PushMetaFlagEi
VSf:__ZL59_PropertyBuilder_t1366136710_CustomAttributesCacheGeneratorP21CustomAttributesCache
x0:__ZN6prcoreL26RemapGenericIntegerToFloatI17TexFormatARGB888815TexFormatRFloatEEvPKNS_9InnerInfoE
S8g:__ZN6il2cpp2vm10ThreadPool10InitializeEv
Qih:__ZN6il2cpp2vm17TypeNameParseInfoD2Ev
xCe:_Decimal_System_IConvertible_ToType_m2919262279
QCa:__ZNK8Renderer8GetLayerEv
zre:_Stream_Close_m771352034
TRe:__ZN21InterfaceFuncInvoker1Ii19TimeSpan_t881159249E6InvokeEjP11Il2CppClassP12Il2CppObjectS0_
yqa:__ZN12FlareManager11DeleteFlareEi
uKb:__ZNK6Camera20GetReplacementShaderEv
JUh:_glProgramBinary__wrapper
XIh:__ZNSt3__26__treeINS_12__value_typeINS_12basic_stringIcNS_11char_traitsIcEENS_9allocatorIcEEEEPFvvEEENS_19__map_value_compareIS7_SA_NS_4lessIS7_EELb1EEENS5_ISA_EEE4findIS7_EENS_15__tree_iteratorISA_PNS_11__tree_nodeISA_PvEEiEERKT_
qxa:__ZL23stbir__calculate_memoryP11stbir__info
_Od:_Interpreter_Close_m126356671
blg:_Collection_1_InsertItem_m168969280_gshared
pJc:__ZN9Scripting11UnityEngine14SphereCollider12CleanupProxyEv
qff:_Latin1Encoding_GetMaxCharCount_m1720752733
Juh:__ZN6il2cpp8metadata15GenericMetadata7InflateEPK19Il2CppGenericMethodPK20Il2CppGenericContext
Irc:__ZN9Scripting11UnityEngine22ParticleCollisionEvent9InitProxyEv
CGa:__ZN13sorted_vectorIN4core12basic_stringIcNS0_20StringStorageDefaultIcEEEENSt3__24lessIS4_EE13stl_allocatorIS4_L18MemLabelIdentifier81ELi16EEE4findIS4_EENS5_11__wrap_iterIPS4_EERKT_
gec:__Z13RegisterClassI30RuntimeInitializeOnLoadManagerEvPKc
VNg:_Parser_HandleExplicitNumericGroups_m1412234891
Xef:_Array_InternalArray__get_Item_TisRaycastHit2D_t2279581989_m2440275162_gshared
jgd:_CustomAttributeNamedArgument_Equals_m1414002036
apc:__ZL26Transfer_SimpleNativeClassI8JSONRead10RectOffsetLb1EEvRK29SerializationCommandArgumentsR31RuntimeSerializationCommandInfo
Bla:__Z26TransformVerticesInnerLoopILb1ELb1ELb1EEvPhRK10Matrix4x4fRK10Matrix3x3fjPKhiS8_ii25GfxTransformVerticesFlagsj
Ndg:_Enumerator_System_Collections_IEnumerator_Reset_m959124362_AdjustorThunk
iDc:__ZN10ClipperLib11ClipperBaseD0Ev
BJb:__ZNK20DynamicPropertySheet18FindQueuedPropertyEN9ShaderLab16FastPropertyNameEN19ShaderPropertySheet12PropertyTypeE
hGe:_Enum_ToObject_m121831801
Hvf:_Input_GetKeyDownInt_m3509480073
Qlc:__Z18Transfer_BlittableI9JSONWriteLb1EsEvRK29SerializationCommandArgumentsR31RuntimeSerializationCommandInfo
GDc:__ZN10ClipperLib8JoinHorzEPNS_5OutPtES1_S1_S1_NS_8IntPointEb
DFg:__Z74RuntimeInvoker_Vector2_t2156229523_Vector2_t2156229523_Vector2_t2156229523PFvvEPK10MethodInfoPvPS4_
cjc:__Z15CleanupGUIStylePv
uGb:__ZN13RenderManager37RenderCamerasWithScriptableRenderLoopEi
IU:__Z24GetExecutionRestrictionsv
ovh:__ZN6il2cpp2os19ReleaseSocketHandleEj
JD:__ZN11AudioModule16GetDSPSampleRateEv
Raf:_Array_InternalArray__ICollection_CopyTo_TisSlot_t384495010_m793189633_gshared
ylf:_Type_get_Attributes_m58528356
ovf:_SpriteBone_t303320096_marshal_pinvoke
n0d:_Array_GetUpperBound_m4018715963
K7b:__Z13RegisterClassI9TextAssetEvPKc
Kwh:__ZN6il2cpp2os5posix15PosixWaitObjectC2ENS2_4TypeE
zIb:__ZN6Camera21PostMultiCustomRenderENS_10RenderFlagEb
Zbf:_Array_InternalArray__Insert_TisMonoResource_t4103430009_m1997865927_gshared
jSd:_SHA512Managed_HashFinal_m2173184560
QBb:__ZN12_GLOBAL__N_112UploadImagesEP7ApiGLESjji14GraphicsFormatPKhjS2_iiii16TextureUsageModePh
Dsb:__ZN23ShaderVariantCollection13WarmupShadersEv
K8b:__ZN13ProduceHelperI9TransformLb0EE7ProduceE10MemLabelId18ObjectCreationMode
wS:__Z25GetCommonScriptingClassesv
fSa:__Z27scripting_gc_collect_unsafei
yxd:_MD5SHA1_HashFinal_m4115488658
OD:__ZN11AudioModule20SuspendVideoTexturesEv
mLc:__ZN9Scripting11UnityEngine9CSSLayout6Native9InitProxyEv
dD:__Z59Register_UnityEngine_AudioExtensionManager_GetAudioListenerv
web:__Z26Transfer_UnityEngineObjectI24GenerateTypeTreeTransferLb0EEvRK29SerializationCommandArgumentsR31RuntimeSerializationCommandInfo
Gwe:_Convert_ToDouble_m278900635
jtf:_DebugLogHandler_LogException_m302830419
ype:_Stream_BeginRead_m2233539237
dTe:_Enumerator_System_Collections_IDictionaryEnumerator_get_Value_m684446183_AdjustorThunk
Gqa:__ZN15SharedLightData7PrecalcEv
fga:__ZN10Matrix4x4fmLERKS_
HBf:_Vector2__ctor_m3970636864
i7e:_Array_InternalArray__ICollection_Remove_TisPlayerLoopSystem_t105772105_m11379199_gshared
Zhb:__Z35Transfer_Blittable_FixedBufferFieldI18StreamedBinaryReadILb1EEsEvRK29SerializationCommandArgumentsR31RuntimeSerializationCommandInfo
EGe:_Environment_InternalGetFolderPath_m468390978
EZa:__ZN15ArchiveReadFileD0Ev
YNc:__ZN11UnityEngine15PlatformWrapper18GetOperatingSystemEv
iqf:_Version_CheckedSet_m654078179
UMf:__ZL62ParamArrayAttribute_t3664765590_CustomAttributesCacheGeneratorP21CustomAttributesCache
bXh:_emscripten_glReadPixels__wrapper
cff:_ScriptableObject_CreateInstance_TisRuntimeObject_m1552711675_gshared
jJh:__ZN6il2cpp6icalls8mscorlib4Mono8Security12Cryptography18KeyPairPersistence10_CanSecureEP12Il2CppString
$5e:_Array_InternalArray__ICollection_Contains_TisParameterModifier_t1461694466_m1000453323_gshared
sWe:_Dictionary_2_System_Collections_ICollection_CopyTo_m4047192178_gshared
kbh:__ZN6il2cpp2os4File11GetFileStatERKNSt3__212basic_stringIcNS2_11char_traitsIcEENS2_9allocatorIcEEEEPNS0_8FileStatEPi
ICf:_RIPEMD160Managed_Initialize_m2173168986
J8b:__ZN9TransformC2E10MemLabelId18ObjectCreationMode
tub:__ZN13GfxDeviceGLES14SetRasterStateEPK17DeviceRasterState
_ed:_Assembly_ToString_m2053237013
u_c:_ParameterModifier_t1461694466_marshal_pinvoke_back
yaa:__ZN14SafeBinaryRead11EndTransferEv
g9a:__ZN14SafeBinaryRead8TransferI8MonoPPtrEEvRT_PKc17TransferMetaFlags
ZFe:_Enum_System_IConvertible_ToUInt16_m4216751959
wCb:__ZN21UniformBufferTFMethod13MapBoneBufferEj
Qbf:_Array_InternalArray__Insert_TisInt32_t2950945753_m4073217122_gshared
nQd:_RNGCryptoServiceProvider_RngClose_m3915778345
dte:_SortedList_Remove_m2784369438
d7b:__Z40Register_UnityEngine_Input_GetKeyDownIntv
cAa:__ZN4crnd12crn_unpacker10unpack_dxnEPPhjjj
hT:__ZN14SerializedFileD2Ev
xVg:_Physics2D_Raycast_m2858866636
wbh:__ZN6il2cpp2vm10Reflection17GetAssemblyObjectEPK14Il2CppAssembly
Tmb:__ZNSt3__218__stable_sort_moveIRN10vector_mapI17ScriptingClassPtrPKN5Unity4TypeENS_4lessIS2_EENS_9allocatorINS_4pairIS2_S6_EEEEE13value_compareENS_11__wrap_iterIPSB_EEEEvT0_SJ_T_NS_15iterator_traitsISJ_E15difference_typeEPNSM_10value_typeE
eZb:__ZN6Shader21AwakeFromLoadThreadedEv
H$:__ZN6prcoreL17RemapGenericFloatI17TexFormatRGBFloat17TexFormatRGBAHalfEEvPKNS_9InnerInfoE
lnf:_UInt16_System_IConvertible_ToSingle_m2654722405_AdjustorThunk
g6b:__Z58Register_UnityEngine_PlayerConnectionInternal_PollInternalv
MBf:_Vector2_GetHashCode_m3916089713_AdjustorThunk
yKh:__ZN6il2cpp2os9SemaphoreC2Eii
i9a:__ZNSt3__26vectorI8MonoPPtr13stl_allocatorIS1_L18MemLabelIdentifier1ELi16EEE8__appendEj
aJb:__ZN14qsort_internal30FindAndMovePivotToLastPositionIP17RODataReplacementi19ROSorterReplacementEEvT_S4_T0_T1_
HCb:__ZN15UniformTFMethod20IsBoneCountSupportedEi
Vxf:_Object_Internal_InstantiateSingle_Injected_m3863904036
fmg:_ReadOnlyCollection_1_System_Collections_IList_get_Item_m3076053687_gshared
Jpf:_UnauthorizedAccessException__ctor_m246605039
Zbc:__Z12BuildTextureIA4_tPFvP9Texture2DPS0_iiiiEES2_PKcii13TextureFormatRKT0_17TextureColorSpaceb
URh:dynCall_viidi
dQ:__ZN24ScriptingMethodFiltering17FilterOnSignatureENS_18MethodSearchFilterE
bAd:_CipherSuite_DecryptRecord_m1495386860
MHf:_X509Certificate_VerifySignature_m3538124832
Dre:_StreamAsyncResult_SetComplete_m1102187093
Iac:__ZN13MonoBehaviour19HandleNotificationsEPviR11MessageData
ZKh:__ZN6il2cpp2os9EventImpl5ResetEv
Pyd:_Alert__ctor_m3135936936
Sle:_Int64_System_IConvertible_ToInt32_m772105781
GEf:_TlsClientSettings__ctor_m3220697265
xfh:__ZNK15dense_hashtableINSt3__24pairIK10KeyWrapperINS1_IPK9EventInfoP11Il2CppClassEEEjEES9_17ReflectionMapHashIS8_EN14dense_hash_mapIS9_jSD_NS9_14EqualsComparerINS0_8equal_toIS8_EEEENS0_9allocatorISB_EEE9SelectKeyESI_SK_E23find_position_with_hashERSA_j
bUc:__ZL45__ManagedRegistrationHelperFunction_SubsystemPv
ZWh:b59
SVe:_Dictionary_2_make_pair_m2250450206_gshared
fff:_ForwardingDecoder_GetChars_m4228908854
tPd:_InterpreterFactory_get_GroupCount_m2226373271
NWh:b53
yVh:b50
BVh:b51
WWh:b56
XWh:b57
OWh:b54
PWh:b55
fs:__ZL45__ManagedRegistrationHelperFunction_HumanBonePv
p$e:_SimpleCollator_IsSafe_m310268646
h1d:_X509Certificate_get_RawData_m2387471414
NVh:_glDetachShader__wrapper
F5d:_ArrayTypeMismatchException__ctor_m3375008173
$6:__ZN9Scripting11UnityEngine7Hash12812CleanupProxyEv
S0a:__ZN9GfxDevice25SetShaderPropertiesSharedERK19ShaderPropertySheet
PQc:__ZN11UnityEngine7Connect20RemoteConfigSettingsC2ERKN4core12basic_stringIcNS2_20StringStorageDefaultIcEEEEPFvPS1_E18ScriptingObjectPtr
ece:_CaseInsensitiveHashCodeProvider_GetHashCode_m2168170016
vZd:_String_CreateString_m3400201881
f8:__ZN9Scripting11UnityEngine12Experimental18GlobalIllumination11LightDataGI12CleanupProxyEv
Dac:__ZL25InitializeDefaultMaterialv
tkd:_PropertyBuilder_GetCustomAttributes_m3798356764
y_c:_PropertyInfo_get_MemberType_m2794839864
qTa:__ZN17PersistentManager12UnloadStreamERKN4core12basic_stringIcNS0_20StringStorageDefaultIcEEEEb
J9e:_MonoProperty_GetterAdapterFrame_TisRuntimeObject_TisRuntimeObject_m458718082_gshared
Vkh:_il2cpp_unity_liveness_calculation_from_statics
CDa:__ZN8Renderer8TransferI17RemapPPtrTransferEEvRT_
Nxa:__ZN6prcore16BlitFuncInfoSIMD19BlitFuncExecuteSIMDEPKNS_9InnerInfoEPKv
bSc:__ZN20UnityWebRequestProtoI24UnityWebRequestTransport16AtomicRefCounter14RedirectHelper14ResponseHelper15DownloadHandler13UploadHandler18CertificateHandler12HeaderHelper14AsyncOperationE9DoRequestEv
s4e:_PrivateKeyInfo_RemoveLeadingZero_m3921889925
Pif:_Thread_get_CurrentContext_m1695017876
Rzc:__ZN7b2World20ClearIslandFlagsTaskEv
suc:__ZN16PhysicsManager2D19AddRigidbodyUpdatesEP11Rigidbody2D
CTb:__Z24LookRotationToQuaternionRK8Vector3fS1_P11Quaternionf
ATb:__ZN16ReflectionProbes9GetCameraEv
mOb:__Z23CalculateLightOcclusionRK17LightProbeContextRK29LightProbeSamplingCoordinatesi
j2b:__ZL18IsGpuProgramUsable20ShaderGpuProgramTypePK6Shader
DYc:_MonoField_SetValue_m2338106905
Hwh:__ZN6il2cpp2vm11MethodStack23CleanupForCurrentThreadEv
pze:_Convert_ToUInt64_m388601487
Lna:__ZN20TierGraphicsSettings8TransferI24GenerateTypeTreeTransferEEvRT_
q4g:__ZN15dense_hashtableINSt3__24pairIK10KeyWrapperIN6il2cpp5utils13dynamic_arrayIPK10Il2CppTypeLj4EEEEPFvvEEESA_NS3_8metadata19Il2CppSignatureHashEN14dense_hash_mapISA_SD_SG_NSA_14EqualsComparerINSF_22Il2CppSignatureCompareEEENS0_9allocatorISE_EEE9SelectKeyESK_SM_E16reset_thresholdsEv
Iva:__ZN18UnityPropertySheet8TransferI19StreamedBinaryWriteILb0EEEEvRT_
Ds:__ZN9Scripting11UnityEngine27AnimatorControllerParameter9InitProxyEv
m_:__ZNSt3__26__treeINS_12__value_typeIiN11TypeManager18TypeCallbackStructEEENS_19__map_value_compareIiS4_NS_4lessIiEELb1EEENS_9allocatorIS4_EEE7destroyEPNS_11__tree_nodeIS4_PvEE
Bja:__ZN9ShaderLab32FindBestMatchingShaderKeywordSetERK16ShaderKeywordSetRK13dynamic_arrayIS0_Lj0EEPS5_
oEc:__ZN16PhysicsManager2D42RegisterTransformChangeInterestForColliderEP10Collider2D
TMc:__ZN11UnityEngine7Connect17XRDeviceInfoEventD0Ev
_Tf:__ZL60SoapTypeAttribute_t1750930817_CustomAttributesCacheGeneratorP21CustomAttributesCache
Dfd:_Binder_ConvertArgs_m2124461494
HYb:__ZN21UnityDefaultAllocatorI17LowLevelAllocatorE10DeallocateEPv
A_h:b86
Gt:__ZN15PackedIntVector8TransferI14SafeBinaryReadEEvRT_
SBf:_Vector3__ctor_m3353183577_AdjustorThunk
EKe:_InternalEnumerator_1_System_Collections_IEnumerator_get_Current_m1514266661_gshared
xxd:_MD5SHA1_Initialize_m675470944
Baf:_Array_InternalArray__ICollection_Add_TisKeyframe_t4206410242_m442111799_gshared
QB:__ZN13AudioListener8DoUpdateEv
akc:__ZN5Unity9rapidjson13GenericReaderINS0_4UTF8IcEES3_13JSONAllocatorE9ParseTrueILj1ENS0_25GenericInsituStringStreamIS3_EENS0_15GenericDocumentIS3_S4_S4_EEEEvRT0_RT1_
C9c:__Z13bankers_roundd
KNa:__ZN14SafeBinaryRead8TransferI5RectTIfEEEvRT_PKc17TransferMetaFlags
Vh:_emscripten_glGenFramebuffers
h_:__ZN17BaseObjectManager16StaticInitializeEPv
$5:__ZN9Scripting11UnityEngine9Profiling8Profiler12CleanupProxyEv
wmc:__Z18Transfer_BlittableI9JSONWriteLb0EyEvRK29SerializationCommandArgumentsR31RuntimeSerializationCommandInfo
gta:__ZN13RenderTexture15ThreadedCleanupEv
QKd:_X509BasicConstraintsExtension__ctor_m3721156175
Jya:__ZN12CubemapArray23VirtualRedirectTransferER14SafeBinaryRead
Zne:_Path_GetFileName_m1354558116
G2e:_BitConverterLE_ToDouble_m1601000678
MUh:_emscripten_glUniform3i__wrapper
Hzf:_Rect_Contains_m1232228501_AdjustorThunk
$le:_Int64_System_IConvertible_ToType_m3223988955_AdjustorThunk
vsh:__ZN15dense_hashtableINSt3__24pairIK10KeyWrapperINS1_IPKcS4_EEEiEES6_24NamespaceAndNamePairHashN14dense_hash_mapIS6_iS9_NS6_14EqualsComparerI26NamespaceAndNamePairEqualsEENS0_9allocatorIS8_EEE9SelectKeyESD_SF_E6insertERKS8_
mca:__ZN24GenerateTypeTreeTransfer18BeginArrayTransferEPKcS1_Ri17TransferMetaFlags
Wef:_Array_InternalArray__get_Item_TisPlayableBinding_t354260709_m3837494573_gshared
Ul:___syscall51
rMg:_MatchCollection_get_FullList_m1829231879
Yl:___syscall54
v4d:_Array_GetValue_m2528415604
lje:_Guid_AppendShort_m791023083
Eth:__ZN6il2cpp2vm5Image21GetCachedResourceDataEPK11Il2CppImageRKNSt3__212basic_stringIcNS5_11char_traitsIcEENS5_9allocatorIcEEEE
S7a:__Z18Transfer_BlittableI14SafeBinaryReadLb0E10ColorRGBAfEvRK29SerializationCommandArgumentsR31RuntimeSerializationCommandInfo
ua:invoke_iiiiiiiiii
UC:__ZN11AudioSource25GetNumExtensionPropertiesEv
a9d:_Char_ToLowerInvariant_m1926695830
nRa:__ZN18LoadSceneOperation19IntegrateTimeSlicedEi
pCf:_RijndaelManagedTransform__ctor_m1033522223
PXb:__ZN10FileSystem19SetCurrentDirectoryERKN4core12basic_stringIcNS0_20StringStorageDefaultIcEEEE
Csf:_Component_get_gameObject_m442555142
QS:__ZN16ScriptingManager24NotifyScriptCacheReleaseEi
Q8b:__ZN23TransformChangeDispatch24RemovePermanentInterestsE15TransformAccessPKN5Unity4TypeE
bic:__Z47Register_UnityEngine_Coroutine_ReleaseCoroutinev
Hv:__ZN15AudioReverbZone13SetFMODValuesEv
oR:__ZN14SafeBinaryRead4InitERK16TypeTreeIteratorxx24TransferInstructionFlags10MemLabelId
UM:__ZL19StaticDestroyShaderPv
Ed:_glRenderbufferStorageMultisample
DGc:__Z13RegisterClassI16CircleCollider2DEvPKc
Ych:__ZNK15dense_hashtableINSt3__24pairIK10KeyWrapperIPK10Il2CppTypeEjEES6_N6il2cpp8metadata14Il2CppTypeHashEN14dense_hash_mapIS6_jSB_NS6_14EqualsComparerINSA_26Il2CppTypeEqualityComparerEEENS0_9allocatorIS8_EEE9SelectKeyESF_SH_E10test_emptyEj
ELb:__ZN22MotionVectorRenderLoopD2Ev
Sqf:_Debug_LogException_m2207318968
NBc:__ZNK6b2Body13ShouldCollideEPKS_
N9e:_Array_InternalArray__ICollection_Add_TisClientCertificateType_t1004704908_m2622721177_gshared
hCc:__ZNK21b2FindNewContactsTask13GetRangeCountEv
Pt:__ZN17PackedFloatVector8TransferI18StreamedBinaryReadILb0EEEEvRT_
hza:__ZN7Cubemap23VirtualRedirectTransferER17RemapPPtrTransfer
FRg:_Uri_get_Authority_m3816772302
R3b:__ZN22BlockMemoryCacheWriter11GetPathNameEv
kKd:_X509BasicConstraintsExtension__ctor_m1244152959
CZc:_ParameterInfo__ctor_m3269320476
PNd:_X509SubjectKeyIdentifierExtension_FromHexChars_m3244835916
GWd:_Single_CompareTo_m2785801815
vGf:_PKCS12_MAC_m3355614022
Apg:_UnityAction_1_Invoke_m272661351_gshared
eo:stackAlloc
P_a:__ZN25SingleBlockMemoryFileData4LockEPPv
fYh:_glProgramParameteri__wrapper
ctf:_Debug_LogError_m2850623458
RXg:__ZL24UnresolvedVirtualCall_79P12Il2CppObjectPK10MethodInfo
tZb:__ZNSt3__26__treeINS_12__value_typeIN4core12basic_stringIcNS2_20StringStorageDefaultIcEEEE4PPtrI7TextureEEENS_19__map_value_compareIS6_SA_NS_4lessIS6_EELb1EEENS_9allocatorISA_EEE7destroyEPNS_11__tree_nodeISA_PvEE
dCg:__Z69RuntimeInvoker_UInt64_t4134040092_Int32_t2950945753_SByte_t1669577662PFvvEPK10MethodInfoPvPS4_
uNh:_stat
wi:_JS_Eval_ClearTimeout
mkd:_PropertyBuilder_get_CanRead_m3783190070
U7:__ZN9Scripting11UnityEngine12Experimental9Playables21TexturePlayableOutput9InitProxyEv
oAd:_CipherSuiteCollection_System_Collections_IList_get_Item_m2175128671
nuc:__ZN15b2DistanceJoint23InitVelocityConstraintsERK12b2SolverData
xga:__ZN6CameraD2Ev
ric:__Z50Register_UnityEngine_Camera_get_pixelRect_Injectedv
ja:invoke_iiiiiiiiiiii
sAe:_DateTime_System_IConvertible_ToType_m1242864300_AdjustorThunk
_Qe:_InternalEnumerator_1_get_Current_m2446410893_AdjustorThunk
kla:__Z29CalculateDefaultChannelsToAdd17ShaderChannelMaskS_
Hda:__ZN10TagManager13RegisterLayerEjRKN4core12basic_stringIcNS0_20StringStorageDefaultIcEEEE
uDb:__ZNSt3__26__treeI20DeviceBlendStateGLES14MemoryCompLessI16DeviceBlendStateENS_9allocatorIS1_EEE7destroyEPNS_11__tree_nodeIS1_PvEE
Qz:__ZN10AudioMixer12RebindOutputEv
Umh:__ZNK15dense_hashtableINSt3__24pairIK10KeyWrapperIP11Il2CppClassES4_EES5_N6il2cpp8metadata16SZArrayClassHashEN14dense_hash_mapIS5_S4_SA_NS5_14EqualsComparerINS9_19SZArrayClassCompareEEENS0_9allocatorIS7_EEE9SelectKeyESE_SG_E5beginEv
v$g:__ZN6il2cpp2vm17SetupFieldsLockedEP11Il2CppClassRKNS_2os12FastAutoLockE
Lqf:_AnimationCurve__ctor_m1565662948
pAb:__ZN18GlslGpuProgramGLES13SwitchProgramEj
eEb:__ZN20ArchiveStorageReaderC2E10MemLabelId
Lsg:__Z132RuntimeInvoker_Int32_t2950945753_RuntimeObject_Int32_t2950945753_Int32_t2950945753_RuntimeObject_Int32_t2950945753_Int32_t2950945753PFvvEPK10MethodInfoPvPS4_
x$a:__ZN16MemoryFileSystem4NameEv
QSg:_AesTransform_SubByte_m3350159546
ZEf:_TlsException__ctor_m818940807
r1d:_X509CertificateEnumerator_System_Collections_IEnumerator_get_Current_m418791713
_4b:__Z42ScriptingGetComponentsOfTypeFromGameObjectRK26ScriptingGetComponentsArgs
L7f:__ZL73ArgumentCache_t2187958399_CustomAttributesCacheGenerator_m_ObjectArgumentP21CustomAttributesCache
wJc:__ZN9Scripting11UnityEngine21ControllerColliderHit9InitProxyEv
dwa:__ZNSt3__27__sort4IRPFbRKNS_4pairIN9ShaderLab16FastPropertyNameEN18UnityPropertySheet11UnityTexEnvEEES8_EPS6_EEjT0_SD_SD_SD_T_
R4b:__Z11StringToIntRKN4core16basic_string_refIcEE
Ojb:__Z29Transfer_Blittable_ArrayFieldI18StreamedBinaryReadILb1EExEvRT_R9ArrayInfoRK23StaticTransferFieldInfo
Ld:_emscripten_glBufferSubData
AYd:_String_ReplaceUnchecked_m1381393810
quc:__ZN7b2World10CreateBodyEPK9b2BodyDef
Vo:__Z17CalculateGlobalRS23TransformAccessReadOnly
KHh:__ZNSt3__210__list_impIPN6il2cpp5utils10MemoryPool6RegionENS_9allocatorIS5_EEE5clearEv
zpb:__ZNK25PathNamePersistentManager24PathIDToPathNameInternalEi
rQe:_InternalEnumerator_1_get_Current_m1523142935_gshared
sXa:__ZNK12HandlerChain7ToLocalERK13FileEntryDataRN4core12basic_stringIcNS3_20StringStorageDefaultIcEEEERyS9_
mUa:__ZN22MemoryCacherReadBlocks14LockCacheBlockEjPPhS1_
Eih:__ZN6il2cpp2vm14TypeNameParser17ParseAssemblyNameEv
hIa:__ZNK9GfxDevice26GetSinglePassStereoEyeMaskEv
gtf:_DebugLogHandler_Internal_Log_m4175774469
yBh:__ZN4utf88internal15increase_safelyIPKcEENS0_9utf_errorERT_S5_
f3f:__ZL66StaticAccessorAttribute_t2432663902_CustomAttributesCacheGeneratorP21CustomAttributesCache
k9d:_CharEnumerator_get_Current_m525608209
aVc:__Z21ArrayElementTypeCheckP11Il2CppArrayPv
kXh:_emscripten_glTexSubImage2D__wrapper
IEa:__ZN18StreamedBinaryReadILb0EE21TransferSTLStyleArrayI13dynamic_arrayI33EnlightenTerrainChunksInformationLj0EEEEvRT_17TransferMetaFlags
tEe:_StackTrace_init_frames_m641783388
DKd:_PublicKey_DecodeRSA_m1824703659
nPh:__ZNSt3__212basic_stringIcNS_11char_traitsIcEENS_9allocatorIcEEE6appendEjc
Jmb:__Z13TransferFieldI18StreamedBinaryReadILb0EELb0E16Converter_StringEvRK23StaticTransferFieldInfoR31RuntimeSerializationCommandInfoRT1_
eae:_ArrayListWrapper_set_Item_m3849584877
se:_TTF_RenderText_Solid
pfg:_List_1__ctor_m3947764094_gshared
qIc:__Z56Register_UnityEngine_Physics2D_Raycast_Internal_Injectedv
wQg:_Parser_IsIgnorePatternWhitespace_m2107132682
QHd:_HttpRequestCreator_Create_m400548686
QQc:__ZN11UnityEngine7Connect16PersistentValuesC2Ev
amc:__Z18Transfer_BlittableI9JSONWriteLb0E5RectTIiEEvRK29SerializationCommandArgumentsR31RuntimeSerializationCommandInfo
z0e:_BigInteger_get_Rng_m4216817480
G6e:_Array_InternalArray__ICollection_Remove_TisDateTime_t3738529785_m2250893026_gshared
uAb:__Z15IsIEEE754Format14GraphicsFormat
KT:__ZL12CreateStringPjR13dynamic_arrayIcLj0EEPKc
Pcb:__Z19TransferField_ArrayI17RemapPPtrTransfer27Converter_UnityEngineObjectEvRK23StaticTransferFieldInfoR31RuntimeSerializationCommandInfoRT0_
Nce:_KeyNotFoundException__ctor_m541499307
ftg:__Z61RuntimeInvoker_Single_t1397266774_RuntimeObject_RuntimeObjectPFvvEPK10MethodInfoPvPS4_
Wpa:__ZN14RenderSettings8TransferI18StreamedBinaryReadILb0EEEEvRT_
INe:_InternalEnumerator_1_get_Current_m2316281569_AdjustorThunk
Eve:_DateTime__ctor_m1095105629
uvb:__ZN13GfxDeviceGLES15UploadTexture2DE9TextureID16TextureDimensionPKhiii14GraphicsFormati18TextureUploadFlags16TextureUsageMode
Hy:__ZN4FMOD6System9createDSPEP20FMOD_DSP_DESCRIPTIONPPNS_3DSPE
hYf:__ZL87Thread_t2300836069_CustomAttributesCacheGenerator_Thread_GetCompressedStack_m2923422412P21CustomAttributesCache
wFd:_SslClientStream_get_ClientCertificates_m998716871
Qe:_JS_SystemInfo_HasCursorLock
Rw:__ZN4FMOD8ChannelI11EndCallbackEv
KBa:__ZN15QualitySettings23VirtualRedirectTransferER24GenerateTypeTreeTransfer
dod:_ObjectReader_ReadValue_m3145979203
ru:__ZN9Scripting11UnityEngine24AssetBundleCreateRequest9InitProxyEv
Phc:__Z59Register_UnityEngine_MonoBehaviour_Internal_CancelInvokeAllv
F2g:__ZN30dense_hashtable_const_iteratorINSt3__24pairIK10KeyWrapperIPK19Il2CppGenericMethodEPK26Il2CppGenericMethodIndicesEES6_N6il2cpp8metadata23Il2CppGenericMethodHashEN14dense_hash_mapIS6_SA_SE_NS6_14EqualsComparerINSD_26Il2CppGenericMethodCompareEEENS0_9allocatorISB_EEE9SelectKeyESI_SK_EppEv
qrh:__ZN6il2cpp6icalls8mscorlib6System10Reflection10MonoMethod29get_IsGenericMethodDefinitionEP22Il2CppReflectionMethod
Zlh:__ZN6il2cpp2vm6Thread21AllocThreadStaticDataEi
lAc:__ZNK39b2PrepareDiscreteIslandContactIndexTask13GetRangeCountEv
rma:__ZL12CopyChannelsj17ShaderChannelMaskRA4_K10StreamInfoRA12_K11ChannelInfoPKhS3_S7_Ph
Ffd:_Default_SelectMethod_m469311730
Lvf:_Input_get_mousePosition_m1616496925
IAh:__ZN30dense_hashtable_const_iteratorINSt3__24pairIK10KeyWrapperIPK19Il2CppGenericMethodEP10MethodInfoEES6_N6il2cpp8metadata23Il2CppGenericMethodHashEN14dense_hash_mapIS6_S9_SD_NS6_14EqualsComparerINSC_26Il2CppGenericMethodCompareEEENS0_9allocatorISA_EEE9SelectKeyESH_SJ_EppEv
Gof:_UInt32_ToString_m2066897296_AdjustorThunk
TUa:__ZN24GenerateTypeTreeTransfer19TransferSTLStyleMapINSt3__23mapI4PPtrI6ShaderEN4core12basic_stringIcNS6_20StringStorageDefaultIcEEEENS1_4lessIS5_EENS1_9allocatorINS1_4pairIKS5_SA_EEEEEEEEvRT_17TransferMetaFlags
JBc:__ZN26b2ClearBodyIslandFlagsTask7ExecuteEv
zlc:__Z18Transfer_BlittableI9JSONWriteLb0E8Vector3fEvRK29SerializationCommandArgumentsR31RuntimeSerializationCommandInfo
rf:_emscripten_glUniform4i
pxf:_PlayerConnection_RegisterDisconnection_m2618599213
De:_emscripten_glUniform4f
$i:___unlock
zEf:_TlsCipherSuite_ComputeServerRecordMAC_m3941098609
jWb:__ZN13sorted_vectorINSt3__24pairIN4core12basic_stringIcNS2_20StringStorageDefaultIcEEEES6_EEN10vector_mapIS6_S6_27compare_tstring_insensitiveIS6_E13stl_allocatorIS7_L18MemLabelIdentifier38ELi16EEE13value_compareESD_E9erase_oneIS6_EEjRKT_
ETd:_X509Certificate_Equals_m3784196370
sRd:_SHA1Internal_ProcessFinalBlock_m1403775421
hld:_RemotingServices_GetOrCreateClientIdentity_m648299611
I4e:_RSAManaged_ImportParameters_m1844641996
fna:__ZN14SafeBinaryRead21TransferSTLStyleArrayI13dynamic_arrayI21PlatformShaderDefinesLj0EEEEvRT_17TransferMetaFlags
xIc:__GLOBAL__sub_I_Runtime_Dynamics_0_cpp
fWg:__ZL17log2withScale_128yyi
bje:_Guid_Equals_m1866984197
Wqb:__Z11StringToKeyRKN4core12basic_stringIcNS_20StringStorageDefaultIcEEEE
yed:_PlatformNotSupportedException__ctor_m1787918017
YX:__ZN13RuntimeStaticI15DirectorManagerLb0EE16StaticInitializeEPv
KMa:__ZN11TimeManager6UpdateEv
H1e:_BigInteger_op_Multiply_m3854773313
dr:__ZNK16ParentConstraint18GetTranslationAxisEv
ffe:_DateTimeFormatInfo_ReadOnly_m890935083
UCh:__ZN6il2cpp2vm3CCW9CreateCCWEP12Il2CppObject
Ezh:__ZN6il2cpp2vm6Method17IsGenericInstanceEPK10MethodInfo
FNh:_fflush
ASa:__ZN17LightProbeContext4InitERK16LightmapSettingsRK14RenderSettings
bPb:__ZN18DeferredRenderLoop14RenderLightingER21ActiveLightingContextP13RenderTexture9TextureIDPS3_iRK8Vector4fRK14LightingLayersR10MinMaxAABBb12ObjectHandleI17RenderSurface_TagP17RenderSurfaceBaseE
qAf:_SceneManager_Internal_ActiveSceneChanged_m3676176255
TEe:_Double_System_IConvertible_ToInt16_m3591921965
rHa:__ZN9Texture3DD2Ev
Uue:_Convert_ToChar_m2796006345
yae:_ArrayListWrapper_GetEnumerator_m2336495952
IRb:__Z34ProcessIndexListIsNodeVisibleStep2RK22SceneCullingParametersPK9SceneNodePK4AABBR9IndexList
rnb:__ZN10MonoScriptD2Ev
z6:__ZN9Scripting11UnityEngine10Networking16PlayerConnection16PlayerConnection12CleanupProxyEv
_Cb:__ZN19ConstantBuffersGLES8UpdateCBE5CbKeyPKvj
CTg:_AudioSource_get_spatializeInternal_m2117549793
a7b:__Z39Input_CUSTOM_INTERNAL_get_mousePositionP8Vector3f
yod:_SerializationCallbacks_GetMethodsByAttribute_m2095490433
QFb:__ZN9ShaderLab4Pass16SetupPassOptionsEv
Hg:_JS_Sound_ReleaseInstance
Fie:_Guid_CheckArray_m921056615
Q2c:_ConfigHandler_ReadLifetine_m208994800
xTe:_Enumerator_System_Collections_IDictionaryEnumerator_get_Entry_m3417028588_AdjustorThunk
Vmf:_UInt16_System_IConvertible_ToByte_m3185614807_AdjustorThunk
hm:FUNCTION_TABLE_diddi
pph:__ZN6il2cpp6icalls8mscorlib6System5Array8FastCopyEP11Il2CppArrayiS5_ii
bkf:_WaitHandle_WaitOne_m2577152516
Wab:__ZN9BoundsInt8TransferI14SafeBinaryReadEEvRT_
VKb:__Z20DoDeferredRenderLoopRK17RenderLoopContextR13dynamic_arrayI16RenderObjectDataLj0EES5_RK11CullResultsRP13RenderTextureSB_Pb
zVh:_emscripten_glUniform1f__wrapper
gRh:dynCall_di
Gtf:_BaseInvokableCall_AllowInvoke_m878393606
hlc:__Z28RegisterModule_JSONSerializev
tMc:__ZThn1168_N18UnityConnectClientD1Ev
Mrc:__ZL57__ManagedRegistrationHelperFunction_CachedContactPoints2DPv
nVa:__ZN2UI13RectTransform8TransferI14SafeBinaryReadEEvRT_
smc:__Z35Transfer_Blittable_FixedBufferFieldI9JSONWriteaEvRK29SerializationCommandArgumentsR31RuntimeSerializationCommandInfo
Jrf:_Behaviour_get_enabled_m753527255
l6b:__Z20IsHumanControllingUsv
FL:__ZNK20DynamicHeapAllocatorI17LowLevelAllocatorE10GetPtrSizeEPKv
cPf:__ZL51TextInfo_t3810425522_CustomAttributesCacheGeneratorP21CustomAttributesCache
M4b:__ZN10systeminfo21GetPersistentDataPathEv
sMc:__ZThn1168_N18UnityConnectClient18OnAdsIdRequestDoneERKN4core12basic_stringIcNS0_20StringStorageDefaultIcEEEEbS6_
ddf:_Array_InternalArray__set_Item_TisUInt32_t2560061978_m2989465121_gshared
p7a:__Z44InitializeTransferFunctionScriptingTraitsForI18StreamedBinaryReadILb0EEEvR31TransferFunctionScriptingTraits
nNb:__ZNSt3__218__insertion_sort_3IR23CompareReflectionProbesP31RuntimeReflectionProbeBlendInfoEEvT0_S5_T_
Zcb:__ZN12NativeBufferI27Converter_SimpleNativeClassI8GradientEE15SetupForWritingER9ArrayInfo
f1e:_Kernel_RightShift_m2207393597
XM:__ZN12_GLOBAL__N_113StaticDestroyEPv
a_h:_glUnmapBuffer__wrapper
$pc:__ZN8JSONRead21TransferSTLStyleArrayINSt3__26vectorI8Gradient13stl_allocatorIS3_L18MemLabelIdentifier1ELi16EEEEEEvRT_17TransferMetaFlags
LOa:__ZNSt3__218__insertion_sort_3IRNS_6__lessINS_4pairIPKN5Unity4TypeE7Hash128EES8_EEPS8_EEvT0_SC_T_
Heb:__ZN10RectOffset8TransferI24GenerateTypeTreeTransferEEvRT_
jne:_BinaryReader__ctor_m2266204403
Xjc:__ZN8JSONReadD2Ev
QHc:__ZNK10Collider2D15GetAttachedBodyEv
ceg:_Enumerator_VerifyState_m3047769867_AdjustorThunk
Tdb:__Z18Transfer_BlittableI24GenerateTypeTreeTransferLb1E5RectTIiEEvRK29SerializationCommandArgumentsR31RuntimeSerializationCommandInfo
yMg:_Enumerator_System_Collections_IEnumerator_Reset_m24787251
oMh:_isspace
emd:_BinaryFormatter__ctor_m2620705134
KNc:__ZN11UnityEngine15PlatformWrapper25GetGraphicsRendererStringEv
Ygf:_UTF7Encoding_InternalGetBytes_m797138468
k8b:__ZZL31RegisterRectTransformPropertiesR22GenericPropertyBindingEN39Wrapper_RectTransformAnchoredPositiony113SetFloatValueEPvf
hK:__ZN11UnityEngine15CloudWebService17WebFileDownloaderINS0_20WebRequestRestClientENS0_23WebRequestRestHeaderMapEED2Ev
vb:invoke_vi
Q1d:_SmallXmlParser_HandleWhitespaces_m549588711
tb:invoke_vd
Tga:__ZNK6Camera19GetStereoViewMatrixE15StereoscopicEye
nMg:_Regex_get_RightToLeft_m2317867572
KU:__ZNK10GameObject8IsActiveEv
Mic:__Z34Component_Get_Custom_PropTransformP12Il2CppObject
gAb:__ZN18GfxFramebufferGLES23SetupDefaultFramebufferEPP17RenderSurfaceBaseS2_N2gl6HandleILNS3_10ObjectTypeE9EEE
mAc:__ZN22b2IslandDiscreteSolverC2EiiiPP6b2BodyPP9b2ContactPP7b2JointP10b2VelocityP10b2PositionRK10b2TimeStepR7b2World
lHa:__ZN13ScreenManager18RequestOrientationE17ScreenOrientation
U$g:__ZN6il2cpp2vm5Class12SetupMethodsEP11Il2CppClass
lgc:__Z39DeleteLastPathNameComponentWithAnySlashRKN4core12basic_stringIcNS_20StringStorageDefaultIcEEEE
vnf:_UInt16_Equals_m642257745
X3d:_Array_System_Collections_IList_IndexOf_m3301661616
hfd:_AssemblyFileVersionAttribute__ctor_m3720707642
a0c:_RuntimeResourceSet_CloneDisposableObjectIfPossible_m2725520898
oLc:__GLOBAL__sub_I_artifacts_WebGL_codegenerator_0_cpp_6515
Da:invoke_iiifii
$0d:_DeriveBytes__cctor_m1212925033
iah:__ZN6il2cpp6icalls8mscorlib6System8MonoType13IsPointerImplEP20Il2CppReflectionType
si:_emscripten_glFramebufferRenderbuffer
jQb:__ZN19CullingGroupManager17CullAndSendEventsERK22SceneCullingParametersiRK13CullingOutputRK8JobFence
lfa:__ZN9Transform30EnsureTransformHierarchyExistsEv
vlf:_Type_FilterName_impl_m2651733559
L4d:_Array_GetValue_m116098292
bhc:__ZN13MonoBehaviour13StopCoroutineEPKc
XVb:__ZNSt3__26vectorINS_4pairIN4core12basic_stringIcNS2_20StringStorageDefaultIcEEEEPK17MessageIdentifierEENS_9allocatorISA_EEE12__move_rangeEPSA_SE_SE_
bJb:__ZN14qsort_internal17MedianOfThreeSwapIP17RODataReplacement19ROSorterReplacementEEvT_S4_S4_T0_
EXd:_String_Split_m3646115398
K_g:__ZNK15dense_hashtableINSt3__24pairIK10KeyWrapperIPK22Il2CppGenericParameterEP11Il2CppClassEES6_N6il2cpp5utils11PointerHashIS4_EEN14dense_hash_mapIS6_S9_SE_NS6_14EqualsComparerINS0_8equal_toIS5_EEEENS0_9allocatorISA_EEE9SelectKeyESJ_SL_E3endEv
Veb:__Z29Transfer_Blittable_ArrayFieldI24GenerateTypeTreeTransfer11ColorRGBA32EvRT_R9ArrayInfoRK23StaticTransferFieldInfo
YYa:__ZN17ArchiveFileSystem10ToAbsoluteEPKc
cec:__Z13RegisterClassI11PreloadDataEvPKc
lic:__Z35Camera_CUSTOM_RaycastTry2D_InjectedP12Il2CppObjectRK3Rayfi
uOc:__ZN19UnityConnectService15GetPlayerUserIdEv
p9e:_Array_InternalArray__IndexOf_TisSByte_t1669577662_m4156538463_gshared
G5b:__ZL12SetPrefValueRKN4core12basic_stringIcNS_20StringStorageDefaultIcEEEERK9PrefValue
WHa:__ZN19ShaderPropertySheet20ReservePropertyCountEj
eBh:__ZN6il2cpp5utils11StringUtils6PrintfEPKcz
mwa:__ZN15NameToObjectMapI6ShaderNSt3__23mapI4PPtrIS0_EN4core12basic_stringIcNS5_20StringStorageDefaultIcEEEENS1_4lessIS4_EENS1_9allocatorINS1_4pairIKS4_S9_EEEEEENS1_8multimapIS9_S4_NSA_IS9_EENSC_INSD_IKS9_S4_EEEEEEE4FindERSK_
eya:__ZN24GenerateTypeTreeTransfer21TransferResourceImageE19ActiveResourceImagePKcR13StreamingInfoPvjiPKN5Unity4TypeE
Vuh:__ZN6il2cpp2vm6Object5CloneEP12Il2CppObject
hJh:__ZN6il2cpp6icalls8mscorlib6System9Threading5Mutex20CreateMutex_internalEbP12Il2CppStringPb
B7f:__ZL47Time_t2420636075_CustomAttributesCacheGeneratorP21CustomAttributesCache
Lsf:_Coroutine_Finalize_m1957108547
roa:__ZNSt3__212__deque_baseI18ReflectionProbeJobNS_9allocatorIS1_EEED2Ev
f_b:__ZN15dense_hashtableINSt3__24pairIKiN4core17string_with_labelILi1EEEEEi18SInt32HashFunctionN14dense_hash_mapIiS5_S7_NS0_8equal_toIiEE13stl_allocatorIS6_L18MemLabelIdentifier1ELi16EEE9SelectKeyESA_SD_E13set_empty_keyERKS6_
EZe:_GenericEqualityComparer_1_Equals_m1705889345_gshared
Zpc:__Z13TransferFieldI8JSONReadLb0E27Converter_SimpleNativeClassI10RectOffsetEEvRK23StaticTransferFieldInfoR31RuntimeSerializationCommandInfoRT1_
GHd:_FtpWebRequest__cctor_m699542155
_th:__GLOBAL__sub_I_GenericMetadata_cpp
KGd:_NameObjectCollectionBase_GetEnumerator_m3677320185
gRb:__Z24CalculateSpotLightBoundsffRK10Matrix4x4fR15SpotLightBounds
V9g:__ZN6il2cpp6icalls8mscorlib6System8MonoType19GetPropertiesByNameEP20Il2CppReflectionTypeP12Il2CppStringjbS5_
cga:__Z20InvertMatrix4x4_FullPKfPf
QF:__ZN23CloudWebServicesManager23VirtualRedirectTransferER14SafeBinaryRead
Z0d:_PKCS12_AddCertificate_m3857004455
Wmd:_WellKnownClientTypeEntry_ToString_m1119458503
Gob:__Z19ShouldTransferFieldR32SerializationCommandQueueBuilder17ScriptingClassPtriR18TransferField_InfoRK20CoreScriptingClasses
Rhc:__Z48Register_UnityEngine_MonoBehaviour_InvokeDelayedv
WUd:_SecurityElement_IsValidText_m1346599242
C6a:__ZN26SinglePassStereoSupportExt21SetStereoMatrixCommonE21MonoOrStereoscopicEye24BuiltinShaderMatrixParamRK10Matrix4x4f
Lwd:_ARC4Managed_TransformBlock_m1687647868
UJc:__ZL21InitializeCachedStripPv
EVe:_Dictionary_2_System_Collections_Generic_ICollectionU3CSystem_Collections_Generic_KeyValuePairU3CTKeyU2CTValueU3EU3E_Add_m3652125112_gshared
RUb:__ZN19CustomRenderTexture16GetRenderTextureEv
Foh:__ZN6il2cpp6icalls8mscorlib6System9Threading6Thread23GetCachedCurrentCultureEP12Il2CppThread
Wfa:__ZNK6Camera22GetWorldToCameraMatrixEv
xwh:__ZN6il2cpp2vm12GenericClass11IsValueTypeEP18Il2CppGenericClass
VYb:__ZN13ScreenManager24SetIsFullscreenImmediateEb
Snb:__ZN13MonoBehaviour7SetNameEPKc
F6c:_MethodDictionary_IsOverridenKey_m946843558
xpe:_FileStream_BeginRead_m2419864669
$3g:__ZN10KeyWrapperIN6il2cpp5utils13dynamic_arrayIPK10Il2CppTypeLj4EEEEC2ERKS7_
Ssb:__ZN17InstancingBatcher22FindCBUpperBoundKonstsEv
ARa:__ZN18AwakeFromLoadQueue5ClearEv
nDb:__Z24ReleaseBufferManagerGLESv
CPb:__ZNSt3__27__sort5IR15ReflProbeSorterPP15ReflectionProbeEEjT0_S6_S6_S6_S6_T_
NY:__ZN8Playable10DisconnectEPS_i
_j:_glGenTransformFeedbacks
MQa:__ZN13LoadOperationD2Ev
Vje:_Int16_System_IConvertible_ToType_m3672347013
mmf:_Type_GetProperty_m4206634422
Jrb:__Z21PlayerStartFirstSceneb
ewa:__ZNSt3__27__sort5IRPFbRKNS_4pairIN9ShaderLab16FastPropertyNameEN18UnityPropertySheet11UnityTexEnvEEES8_EPS6_EEjT0_SD_SD_SD_SD_T_
kyb:__ZNK7ApiGLES18GetExtensionStringEv
AVh:_emscripten_glVertexAttrib1f__wrapper
aYe:_DefaultComparer_GetHashCode_m402448534_gshared
UWa:__ZNK12HandlerChain4SizeERK13FileEntryData
bo:FUNCTION_TABLE_iiiiiiiii
y9:__ZN9Scripting11UnityEngine14AnimationCurve9InitProxyEv
xsc:__Z22GetPhysicsGroundBody2Dv
T8d:_Char_IsLetter_m3996985877
Qig:_Queue_1_Peek_m2302800625_gshared
gEh:_GC_allochblk
SRa:__Z15UnloadGameScenev
vbf:_Array_InternalArray__ICollection_CopyTo_TisKeyframe_t4206410242_m2132255743_gshared
XZh:_glCheckFramebufferStatus__wrapper
vPa:__ZNSt3__26vectorIN30RuntimeInitializeOnLoadManager15ClassMethodInfoE13stl_allocatorIS2_L18MemLabelIdentifier13ELi16EEE7reserveEj
fvg:__Z103RuntimeInvoker_Void_t1185182177_Int32_t2950945753_Int32_t2950945753_Int32_t2950945753_SByte_t1669577662PFvvEPK10MethodInfoPvPS4_
Tch:__ZNK15dense_hashtableINSt3__24pairIK10KeyWrapperIPK10Il2CppTypeEjEES6_N6il2cpp8metadata14Il2CppTypeHashEN14dense_hash_mapIS6_jSB_NS6_14EqualsComparerINSA_26Il2CppTypeEqualityComparerEEENS0_9allocatorIS8_EEE9SelectKeyESF_SH_E13find_positionERS7_
_ra:__ZN7Texture5ResetEv
gwc:__ZNK14b2CapsuleShape7RayCastEP15b2RayCastOutputRK14b2RayCastInputRK11b2Transformi
K3c:_Context_get_HasDynamicSinks_m3952434387
iff:_Latin1Encoding_GetByteCount_m1145650505
idb:__Z18Transfer_BlittableI24GenerateTypeTreeTransferLb1EhEvRK29SerializationCommandArgumentsR31RuntimeSerializationCommandInfo
jkb:__Z13TransferFieldI18StreamedBinaryReadILb1EELb0E16Converter_StringEvRK23StaticTransferFieldInfoR31RuntimeSerializationCommandInfoRT1_
vRh:dynCall_iiifii
xX:__ZnwjRKSt9nothrow_t
r3d:_ApplicationException__ctor_m2557611022
Nua:__ZN14SafeBinaryRead19TransferSTLStyleMapINSt3__23mapI39DeprecatedFastPropertyNameSerializationN18UnityPropertySheet11UnityTexEnvENS1_4lessIS3_EENS1_9allocatorINS1_4pairIKS3_S5_EEEEEEEEvRT_17TransferMetaFlags
Thc:__Z45Register_UnityEngine_MonoBehaviour_IsInvokingv
mgb:__ZL26Transfer_SimpleNativeClassI19StreamedBinaryWriteILb0EE17AnimationCurveTplIfELb0EEvRK29SerializationCommandArgumentsR31RuntimeSerializationCommandInfo
asb:__Z43GiveManagedDebuggerChanceToAttachIfRequiredv
j7d:_Buffer_ByteLengthInternal_m1388208719
Xaf:_Array_InternalArray__ICollection_CopyTo_TisInt64_t3736567304_m2845057751_gshared
ihc:__Z35UnregisterSerializationCacheBuilderPFv17ScriptingClassPtrR23CachedSerializationDataRbE
pS:__ZNSt3__26__treeINS_12__value_typeIPKc18ScriptingMethodPtrEENS_19__map_value_compareIS3_S5_14CStringCompareLb1EEE13stl_allocatorIS5_L18MemLabelIdentifier1ELi16EEE25__emplace_unique_key_argsIS3_JRKNS_21piecewise_construct_tENS_5tupleIJOS3_EEENSH_IJEEEEEENS_4pairINS_15__tree_iteratorIS5_PNS_11__tree_nodeIS5_PvEEiEEbEERKT_DpOT0_
dme:_Int64_System_IConvertible_ToUInt32_m109903525_AdjustorThunk
qja:__Z30GetBuiltinVectorParamArraySize24BuiltinShaderVectorParam
u3:__ZL46__ManagedRegistrationHelperFunction_SpriteBonePv
n7b:__Z13RegisterClassI11LightProbesEvPKc
hic:__Z36Camera_CUSTOM_get_pixelRect_InjectedP12Il2CppObjectR5RectTIfE
Tra:__ZN13RenderTextureC2E10MemLabelId18ObjectCreationMode
jke:_Int32_GetFormatException_m519586683
qXf:__ZL46StringBuilder_t_CustomAttributesCacheGeneratorP21CustomAttributesCache
SHc:__ZN16b2ContactManagerC2Ev
Bed:_RankException__ctor_m2226473861
Aic:__Z60Register_UnityEngine_ScriptableObject_CreateScriptableObjectv
gDa:__ZN21RendererUpdateManager11AddRendererER8Renderer
_7a:__Z35Transfer_Blittable_FixedBufferFieldI14SafeBinaryReadsEvRK29SerializationCommandArgumentsR31RuntimeSerializationCommandInfo
Zue:_Convert_ToDateTime_m3802186295
fBh:__ZN6il2cpp5utils11StringUtils11Utf16ToUtf8EPKDs
JQa:__ZN18StreamedBinaryReadILb0EE21TransferSTLStyleArrayINSt3__26vectorIN15ResourceManager10DependencyE13stl_allocatorIS5_L18MemLabelIdentifier52ELi16EEEEEEvRT_17TransferMetaFlags
opf:_UInt64_CompareTo_m1614517204_AdjustorThunk
ZNc:__ZN11UnityEngine15PlatformWrapper20IsRootedOrJailbrokenEv
CFb:__ZZ23InitPlayerLoopCallbacksvEN52PreLateUpdateScriptRunBehaviourLateUpdateRegistrator7ForwardEv
JRb:__Z33IntersectAABBPlaneBoundsOptimizedRK4AABBPKN4math7_float4Ei
AUb:__ZN19ScriptingInvocation6InvokeI28ScriptingSystemTypeObjectPtrEET_P21ScriptingExceptionPtrb
f1a:__ZN9GfxDevice19EndGeometryJobFrameEv
cdb:__ZN27Converter_SimpleNativeClassI17AnimationCurveTplIfEE17ScriptingToNativeER18ScriptingObjectPtrPS1_
ulf:_Type__cctor_m2371893800
UJh:__ZN6il2cpp8metadata24Il2CppGenericInstCompare7CompareERK10KeyWrapperIPK17Il2CppGenericInstES8_
C2g:__ZNK15dense_hashtableINSt3__24pairIK10KeyWrapperIPK19Il2CppGenericMethodEPK26Il2CppGenericMethodIndicesEES6_N6il2cpp8metadata23Il2CppGenericMethodHashEN14dense_hash_mapIS6_SA_SE_NS6_14EqualsComparerINSD_26Il2CppGenericMethodCompareEEENS0_9allocatorISB_EEE9SelectKeyESI_SK_E5beginEv
L6:__ZN9Scripting11UnityEngine12LightmapData12CleanupProxyEv
kyf:_PlayableAsset_Internal_CreatePlayable_m2550417712
HEb:__Z31ManagerContextInitializeClassesv
nKb:__Z20LightAttenuateApproxRKfS0_
QR:__ZN9Scripting30SetCachedPtrOnScriptingWrapperE18ScriptingObjectPtrP6Object
gPd:_RepeatContext_get_IsMinimum_m3640286252
Sod:_ObjectRecord_ChainFixup_m1889316362
Nqa:__ZN18BlockRangeInternal16PopLastNodeIndexEP10BlockRangeji
AKa:__ZN4MeshD0Ev
rTc:__ZL42RequestRecreateEyeTexturesBeforeNextUpdatev
Fia:__ZNK6Camera20IsCurrentlyRenderingEv
zmc:__Z18Transfer_BlittableI9JSONWriteLb0EdEvRK29SerializationCommandArgumentsR31RuntimeSerializationCommandInfo
mXd:_String_System_IConvertible_ToDouble_m3740733360
dha:__ZN6Camera8TransferI19StreamedBinaryWriteILb0EEEEvRT_
fCe:_DBNull_System_IConvertible_ToSByte_m3533624679
JMh:_wctomb
K8d:_Char_CompareTo_m42489266
tJg:__Z67RuntimeInvoker_Void_t1185182177_Int32_t2950945753_Double_t594665363PFvvEPK10MethodInfoPvPS4_
S5b:__Z27Camera_CUSTOM_GetAllCamerasP11Il2CppArray
xc:___cxa_rethrow
n_c:_ParameterInfo_GetCustomAttributes_m2376494592
doc:__Z18Transfer_BlittableI8JSONReadLb1EhEvRK29SerializationCommandArgumentsR31RuntimeSerializationCommandInfo
byc:__ZN18Overlap2DQueryBase13ReportFixtureEP9b2Fixture
qge:_CultureInfo_construct_internal_locale_from_name_m3254739477
$Ed:_RSASslSignatureDeformatter_VerifySignature_m1061897602
y4e:_RSAManaged_remove_KeyGenerated_m2046909903
cud:_RandomNumberGenerator_Create_m4162970280
t6e:_Array_InternalArray__ICollection_Contains_TisWorkRequest_t1354518612_m2404463752_gshared
yRe:_InternalEnumerator_1_System_Collections_IEnumerator_get_Current_m3539708496_AdjustorThunk
AXa:__ZN20LocalFileSystemPosix4ReadER13FileEntryDatayyPvPy
cOb:__ZNSt3__211__sift_downIRN23ForwardShaderRenderLoop18RenderObjectSorterILb0EEEP21ForwardRenderPassDataEEvT0_S7_T_NS_15iterator_traitsIS7_E15difference_typeES7_
HTd:_SecurityPermission__ctor_m1462427327
gob:__ZN13MonoBehaviour5DoGUIENS_13GUILayoutTypeEii
R1c:_ChannelData_get_ClientProviders_m594662942
DNg:_QuickSearch_GetChar_m1297698557
Pca:__ZNK12TLSAllocatorI14StackAllocatorE8ContainsEPKv
NMa:__ZN11TimeManager8TransferI18StreamedBinaryReadILb0EEEEvRT_
bKb:__ZL8AddLightRK12ActiveLightsRK8Vector3fiR13dynamic_arrayI11CulledLightLj0EE
kve:_DateTime__ParseEnum_m253019513
Zye:_Convert_ToUInt32_m2194577773
NKa:__ZN14BlendShapeData8TransferI14SafeBinaryReadEEvRT_
ude:_Hashtable_Remove_m4032631466
$2e:_DSAManaged_GenerateKeyPair_m2236915969
Pxa:__ZN7Texture25ReloadFromStorageIfNeededEPvb
O8e:_Array_InternalArray__IndexOf_TisBoolean_t97287965_m1161209222_gshared
e2g:__ZNK15dense_hashtableINSt3__24pairIK10KeyWrapperIP9FieldInfoEiEES5_N6il2cpp5utils11PointerHashIS3_EEN14dense_hash_mapIS5_iSB_NS5_14EqualsComparerINS0_8equal_toIS4_EEEENS0_9allocatorIS7_EEE9SelectKeyESG_SI_E3endEv
E8:__ZN9Scripting11UnityEngine12CullingGroup9InitProxyEv
ibe:_SynchronizedArrayListWrapper_Clear_m2191301493
yph:__ZN6il2cpp6icalls8mscorlib6SystemL15ThrowNoWideningEv
E6b:__ZNK23TransformChangeDispatch24GetChangeMaskForInterestENS_12InterestTypeE
YQh:dynCall_viiiiiiiiiii
yid:_GenericTypeParameterBuilder_InvokeMember_m1647304778
rYb:__ZL10KeyHandleriPK23EmscriptenKeyboardEventPv
dva:__ZNSt3__26__treeINS_12__value_typeI39DeprecatedFastPropertyNameSerializationfEENS_19__map_value_compareIS2_S3_NS_4lessIS2_EELb1EEENS_9allocatorIS3_EEE7destroyEPNS_11__tree_nodeIS3_PvEE
qig:_Enumerator_System_Collections_IEnumerator_Reset_m1487823313_gshared
a0a:__ZNSt3__26__treeINS_12__value_typeIN4core12basic_stringIcNS2_20StringStorageDefaultIcEEEEPN16MemoryFileSystem4NodeEEENS_19__map_value_compareIS6_SA_NS_4lessIS6_EELb1EEE13stl_allocatorISA_L18MemLabelIdentifier55ELi16EEE25__emplace_unique_key_argsIS6_JNS_4pairIKS6_S9_EEEEENSK_INS_15__tree_iteratorISA_PNS_11__tree_nodeISA_PvEEiEEbEERKT_DpOT0_
scb:__ZL26Transfer_SimpleNativeClassI17RemapPPtrTransfer10RectOffsetLb0EEvRK29SerializationCommandArgumentsR31RuntimeSerializationCommandInfo
Dle:_Int32_ToString_m2507389746_AdjustorThunk
Hxe:_Decimal_op_Explicit_m438967917
DDc:__ZN10ClipperLib14PointInPolygonERKNS_8IntPointEPNS_5OutPtE
cV:__ZN17TransformInternal27UpdateDeepChildCountUpwardsER18TransformHierarchyii
mja:__ZNK9ShaderLab20ShaderBlendStateDesc15ToGfxBlendStateEPK19ShaderPropertySheetS3_R13GfxBlendState
a3b:__ZN9ShaderLab9IntShaderC2Ev
pah:__ZN6il2cpp6icalls8mscorlib6SystemL9IsPrivateEPK9EventInfo
yIh:__ZN6il2cpp6icalls8mscorlib6System10Reflection4Emit11TypeBuilder20setup_internal_classEP27Il2CppReflectionTypeBuilderS7_
B5a:__ZNSt3__26vectorIN20GpuProgramParameters14ConstantBufferENS_9allocatorIS2_EEE21__push_back_slow_pathIRKS2_EEvOT_
i9e:_Array_InternalArray__IndexOf_TisILTokenInfo_t2325775114_m2602704009_gshared
Xff:_StringBuilder_AppendFormat_m3255666490
ved:_OverflowException__ctor_m4029085969
XVc:_TypeBuilder_GetGenericArguments_m2872156836
u_g:__ZN13Il2CppHashMapIPK22Il2CppGenericParameterP11Il2CppClassN6il2cpp5utils11PointerHashIS1_EENSt3__28equal_toIS2_EENS9_9allocatorINS9_4pairIK10KeyWrapperIS2_ES4_EEEEEC2EjRKS8_RKSB_
N3e:_KeyPairPersistence_Remove_m1876145547
mYa:__Z15CreateDirectoryRKN4core12basic_stringIcNS_20StringStorageDefaultIcEEEE
eMa:__Z21CalculateGlobalMatrix23TransformAccessReadOnly
YVc:_TypeBuilder_GetGenericTypeDefinition_m1632720438
J5e:_Array_InternalArray__ICollection_Contains_TisLink_t544317964_m163190451_gshared
EBe:_DateTimeOffset_System_IComparable_CompareTo_m176229495_AdjustorThunk
ewf:_ManagedStreamHelpers_ValidateLoadFromStream_m580138133
vOa:__ZNK13BuildSettings22GetTypeVirtualInternalEv
A:tempBigIntD
rYd:_String_LastIndexOf_m578673845
mxf:_PlayerEditorConnectionEvents_UnregisterManagedCallback_m400366024
O2b:__ZN9ShaderLab20SerializedSubProgram14ConstantBufferC2EOS1_
z:tempBigIntI
FPd:_Interval_get_Empty_m3617514670
Wed:_Assembly_GetName_m981771927
vwh:__ZN6il2cpp2vm12GenericClass8GetClassEP18Il2CppGenericClass
B1a:__ZNK9GfxDevice27GetActiveRenderSurfaceWidthEv
MNc:__ZN11UnityEngine15PlatformWrapper28GetCleanGraphicsFixedVersionEv
$Fg:__Z80RuntimeInvoker_Void_t1185182177_ScriptableRenderContext_t274343796_RuntimeObjectPFvvEPK10MethodInfoPvPS4_
i9c:_UnmanagedMemoryStream_SetLength_m3752964620
GDf:_SslStreamBase_RaiseLocalPrivateKeySelection_m4112368540
pjh:__ZN6il2cpp2vm4Type7GetTypeEPK10Il2CppType
s4b:__ZN16SpriteRenderData28PrepareRenderingDataIfNeededEv
oNe:_InternalEnumerator_1_get_Current_m165106323_AdjustorThunk
Lgf:_UTF32Encoding_GetByteCount_m3610769032
O$:__ZN6prcoreL17RemapGenericFloatI18TexFormatRGBAFloat17TexFormatRGBAHalfEEvPKNS_9InnerInfoE
vGb:__Z16FindCameraStacksRKNSt3__24listI4PPtrI6CameraENS_9allocatorIS3_EEEERNS_6vectorI11CameraStackNS4_ISA_EEEE
vMg:_MatchCollection_CopyTo_m3807326147
aEa:__ZN10GISettings8TransferI14SafeBinaryReadEEvRT_
Pm:FUNCTION_TABLE_vifff
Ttd:_MD5CryptoServiceProvider__ctor_m3271163125
mVb:__ZN19CustomRenderTexture12ClearGPUDataEv
hsa:__ZN13RenderTexture13ApplySettingsEv
Pnd:_ObjectReader_RegisterObject_m1853376334
Sjd:_ModuleBuilderTokenGenerator_GetToken_m2588853565
F6d:_Boolean_System_IConvertible_ToDecimal_m3176932461_AdjustorThunk
INb:__ZNSt3__26__treeINS_12__value_typeIi17ShadowCachingDataEENS_19__map_value_compareIiS3_NS_4lessIiEELb1EEE13stl_allocatorIS3_L18MemLabelIdentifier66ELi16EEE25__emplace_unique_key_argsIiJNS_4pairIiS2_EEEEENSD_INS_15__tree_iteratorIS3_PNS_11__tree_nodeIS3_PvEEiEEbEERKT_DpOT0_
we:_JS_Sound_SetListenerPosition
Im:FUNCTION_TABLE_fiffi
Qfd:_Default_check_arguments_with_score_m3467814020
eUa:__ZNK8Material16MarkDependenciesER27GarbageCollectorThreadState
RBe:_DateTimeOffset_ToString_m3985341516_AdjustorThunk
Cmc:__ZL17Transfer_GUIStyleI9JSONWriteLb0EEvRK29SerializationCommandArgumentsR31RuntimeSerializationCommandInfo
iLb:__Z28GetHaloVertexPositionsStereoP8Vector3fRKS_S2_f
v0:__ZN6prcoreL27StretchGenericFloatBilinearI15TexFormatRGHalfEEvPKNS_9InnerInfoE
eLb:__ZN9DepthPass7PrepareER6CameraRK13dynamic_arrayI16RenderObjectDataLj0EERK15RenderNodeQueueRK17ShaderReplaceDatab
i7:__ZN9Scripting11UnityEngine12Experimental3U2D10SpriteBone9InitProxyEv
rie:_SortKey_GetHashCode_m3547067087
CE:__Z13RegisterClassI12AudioManagerEvPKc
Rkb:__Z18Transfer_BlittableI18StreamedBinaryReadILb0EELb1E9BoundsIntEvRK29SerializationCommandArgumentsR31RuntimeSerializationCommandInfo
tPc:__ZN22BaseUnityConnectClient28UpdateConfigFromServerStaticEPv
EKd:_PublicKey_DecodeDSA_m3490622362
eEf:_TlsException__ctor_m3242533711
rwd:_BitConverterLE_GetUIntBytes_m795219058
Lse:_SortedList__ctor_m3676552745
Y_g:__ZN15dense_hashtableINSt3__24pairIK10KeyWrapperIPK22Il2CppGenericParameterEP11Il2CppClassEES6_N6il2cpp5utils11PointerHashIS4_EEN14dense_hash_mapIS6_S9_SE_NS6_14EqualsComparerINS0_8equal_toIS5_EEEENS0_9allocatorISA_EEE9SelectKeyESJ_SL_E3endEv
aD:__ZN11AudioSource24ClearExtensionPropertiesE12PropertyName
qma:__ZN14VertexDataInfo12UpdateFormatEj17ShaderChannelMaskS0_RK19VertexStreamsLayoutRK20VertexChannelsLayout
s1b:__ZN9ShaderLab22SerializedBindChannels8TransferI19StreamedBinaryWriteILb0EEEEvRT_
Fab:__ZN15SerializeTraitsI5RectTIiEE8TransferI14SafeBinaryReadEEvRS1_RT_
Mua:__ZNSt3__26__treeINS_12__value_typeIN4core12basic_stringIcNS2_20StringStorageDefaultIcEEEES6_EENS_19__map_value_compareIS6_S7_NS_4lessIS6_EELb1EEE13stl_allocatorIS7_L18MemLabelIdentifier1ELi16EEE7destroyEPNS_11__tree_nodeIS7_PvEE
Agd:_AssemblyBuilder_get_Location_m384539722
kjf:_Thread_get_ManagedThreadId_m1068113671
czb:__Z13IsDepthFormat14GraphicsFormat
_ue:_DateTime_Parse_m3729096069
cbd:_MonoType_GetFields_m4176012508
Ize:_CurrentSystemTimeZone_GetTimeZoneData_m2641861607
mf:_emscripten_glUniform1fv
j$g:__ZN6il2cpp2vm5Class13GetArrayClassEP11Il2CppClassj
Kyc:__ZN7b2World19FindNewContactsTaskEv
Urb:__ZN19RuntimeSceneManager18LoadSceneAsyncIntoER10UnitySceneRKN4core12basic_stringIcNS2_20StringStorageDefaultIcEEEENS_11LoadingModeEb
Xlc:__Z35Transfer_Blittable_FixedBufferFieldI9JSONWritetEvRK29SerializationCommandArgumentsR31RuntimeSerializationCommandInfo
za:invoke_difi
eWh:_glDeleteSamplers__wrapper
_Fd:_HybridDictionary_set_Item_m2997363718
om:FUNCTION_TABLE_iiffi
gpf:_UInt64_System_IConvertible_ToUInt32_m2784653358
Oyb:__ZN21GLESGpuProgramApplier11ApplyVectorERKN20GpuProgramParameters14ValueParameterEPK8Vector4ft
oQb:__Z17PrepareSceneNodesP11CullResults
mqd:_SByte_System_IConvertible_ToDecimal_m2548745278
SQb:__ZN29ExtractProjectionPlanesHelperILb1EE5ApplyERK10Matrix4x4fP5Plane
rac:__ZN13ProduceHelperI7CubemapLb0EE7ProduceE10MemLabelId18ObjectCreationMode
EVb:__ZN6Camera34UpdatePreviousViewProjectionMatrixEv
hua:__ZN9ShaderLab11ShaderState25RemoveUnsupportedProgramsEPK6Shader
iwf:_Mathf_Abs_m3281243566
g8c:_SynchronizedWriter_WriteLine_m1552352268
b5b:__Z26scripting_class_has_parent17ScriptingClassPtrS_
LV:__ZN13RuntimeStaticI21AssetReferenceStorageLb0EE16StaticInitializeEPv
Kke:_Int32_System_IConvertible_ToByte_m3832391412_AdjustorThunk
rD:__Z71Register_UnityEngine_AudioSource_INTERNAL_CALL_ClearExtensionPropertiesv
aPe:_InternalEnumerator_1_System_Collections_IEnumerator_get_Current_m4088805473_gshared
x6:__ZN9Scripting11UnityEngine5Plane12CleanupProxyEv
gm:FUNCTION_TABLE_viiifiii
S3c:_Context_GetServerContextSinkChain_m3154465897
RGg:__Z81RuntimeInvoker_Int32_t2950945753_Ray_t3785851493_RuntimeObject_Single_t1397266774PFvvEPK10MethodInfoPvPS4_
Kxe:_Convert_ToInt64_m2075293963
y4f:__ZL48Mathf_t3464937446_CustomAttributesCacheGeneratorP21CustomAttributesCache
Una:__ZN20TierGraphicsSettings8TransferI18StreamedBinaryReadILb0EEEEvRT_
hle:_Int32_System_IConvertible_ToUInt64_m2502338186_AdjustorThunk
TZ:__Z33CleanupCubemapGPUUtilityMaterialsPv
Uua:__ZN14SafeBinaryRead8TransferINSt3__24pairIN9ShaderLab16FastPropertyNameE10ColorRGBAfEEEEvRT_PKc17TransferMetaFlags
XVg:__ZL9rshift128PyS_
Vhh:__ZN14dense_hash_mapI10KeyWrapperINSt3__24pairIPK12PropertyInfoP11Il2CppClassEEEj17ReflectionMapHashIS8_ENS9_14EqualsComparerINS1_8equal_toIS8_EEEENS1_9allocatorINS2_IKS9_jEEEEE13set_empty_keyERSH_
Lj:_glRenderbufferStorage
ysh:__ZNK15dense_hashtableINSt3__24pairIK10KeyWrapperINS1_IPKcS4_EEEiEES6_24NamespaceAndNamePairHashN14dense_hash_mapIS6_iS9_NS6_14EqualsComparerI26NamespaceAndNamePairEqualsEENS0_9allocatorIS8_EEE9SelectKeyESD_SF_E13find_positionERS7_
QNc:__ZN11UnityEngine15PlatformWrapper28GetTextureFormatSupportFlagsEv
mWb:__ZNSt3__26vectorINS_4pairIN4core12basic_stringIcNS2_20StringStorageDefaultIcEEEES6_EE13stl_allocatorIS7_L18MemLabelIdentifier38ELi16EEE26__swap_out_circular_bufferERNS_14__split_bufferIS7_RSA_EEPS7_
S9:__ZN9Scripting5Unity11Collections8LowLevel6Unsafe42NativeDisableUnsafePtrRestrictionAttribute9InitProxyEv
WQg:_Uri_EscapeString_m3864445955
uFa:__ZN14SafeBinaryRead21TransferSTLStyleArrayI13dynamic_arrayI12BoneWeights4Lj16EEEEvRT_17TransferMetaFlags
iu:__GLOBAL__sub_I_artifacts_WebGL_codegenerator_0_cpp_412
bFb:__ZZ23InitPlayerLoopCallbacksvEN35PreUpdateSendMouseEventsRegistrator7ForwardEv
Gia:__ZNK6Camera25GetNormalizedViewportRectEP13RenderTextureb
Cg:_glDisable
mb:invoke_vffff
ABh:__ZN6il2cpp5utils11StringUtils15StringDuplicateEPKDsj
LOg:_Regex_Match_m4145799399
vYd:_String_IsNullOrEmpty_m2969720369
K0e:_BigInteger_LowestSetBit_m3082714978
qGb:__ZNK8Material12GetPassCountEv
LQd:_RSAParameters_t1728406613_marshal_pinvoke
OPd:_Interval_IsDisjoint_m1532171337_AdjustorThunk
yQh:_bitshift64Ashr
IIe:_ArrayReadOnlyList_1_ReadOnlyError_m865416608_gshared
iSb:__Z18AddGroupToWorkloadR26BlockRangeBalancedWorkloadjR13dynamic_arrayI10BlockRangeLj0EERS1_IjLj0EE
mce:_CollectionBase_System_Collections_IList_get_Item_m3743372945
Are:_Stream_ReadByte_m4291052673
nAa:__ZN4crnd12crn_unpacker22decode_alpha_endpointsEv
GRb:__Z23CullDynamicObjectsUmbraPK4AABBPKN5Umbra15OcclusionBufferER9IndexList
FDf:_SslStreamBase_RaiseRemoteCertificateValidation2_m2908038766
hsg:__Z50RuntimeInvoker_Boolean_t97287965_Int16_t2552820387PFvvEPK10MethodInfoPvPS4_
tY:__ZN17DirectorFrameTime14ResetDSPValuesEv
swe:_Convert_ToDecimal_m1233667008
OGg:__Z44RuntimeInvoker_RuntimeObject_Ray_t3785851493PFvvEPK10MethodInfoPvPS4_
eQc:__ZN22UnityAnalyticsSettings10SetEnabledEb
Tw:__ZN4FMOD7Channel11setPositionEjj
uh:_glBindSampler
eAd:_ClientContext_get_ClientHelloProtocol_m1654639078
yh:_glGetVertexAttribiv
cNg:_PatternCompiler_EmitSub_m193323684
Y9:__ZN9Scripting5Unity11Collections8LowLevel6Unsafe49NativeContainerSupportsDeferredConvertListToArray9InitProxyEv
Ipc:__ZN8JSONRead8TransferIbEEvRT_PKc17TransferMetaFlagsb
alf:_TimeSpan_ToString_m1128692466
RSg:_AesManaged_CreateEncryptor_m2294080233
JFb:__ZN9ShaderLab9SubShaderD2Ev
QDh:_GC_promote_black_lists
Xue:_Convert_ToChar_m3757390865
wqc:__Z29Transfer_Blittable_ArrayFieldI8JSONRead8Vector4fEvRT_R9ArrayInfoRK23StaticTransferFieldInfo
Bn:FUNCTION_TABLE_vf
ibd:_Binder_GetDerivedLevel_m3216810447
An:FUNCTION_TABLE_vd
CN:__ZN13RuntimeStaticI37UnityShaderCompilerExtPluginConfigureLb0EE16StaticInitializeEPv
Yff:_StringBuilder_AppendFormat_m2403596038
Fsd:_DSASignatureDeformatter_SetHashAlgorithm_m3186995552
Qlg:_ReadOnlyCollection_1_System_Collections_Generic_ICollectionU3CTU3E_Clear_m2772202961_gshared
VEc:__ZN17Physics2DSettings8TransferI24GenerateTypeTreeTransferEEvRT_
X$c:_ResourceSet_ReadResources_m3663669011
Jif:_SynchronizationContext_SetSynchronizationContext_m1249070039
Awg:__Z99RuntimeInvoker_Void_t1185182177_RuntimeObject_Int32_t2950945753_SByte_t1669577662_SByte_t1669577662PFvvEPK10MethodInfoPvPS4_
Hah:__ZN6il2cpp2vm7Runtime9SetConfigEPKc
tkc:__ZN5Unity9rapidjson12PrettyWriterI16TempBufferWriterNS0_4UTF8IcEES4_13JSONAllocatorE10StartArrayEv
B9:__ZN9Scripting11UnityEngine16AndroidJNIHelper12CleanupProxyEv
pa:invoke_iiifiii
Jph:__ZN6il2cpp2vm9Exception11FromNameMsgEPK11Il2CppImagePKcS6_S6_
tZ:__Z14GetTimeManagerv
Mdc:__ZneRK20SpriteTilingPropertyS1_
HSc:__ZN19TransportJavaScript7CleanupEv
k6b:__Z12GUIDToStringRK9UnityGUIDPc
kW:__ZN15FileSystemEntry4LockE12FileLockModeP12FileAccessor
T4:__ZN9Scripting11UnityEngine10Vector3Int12CleanupProxyEv
HYh:_emscripten_glDrawArrays__wrapper
qle:_Int32_Equals_m2976157357
YEf:_TlsException__ctor_m3717683709
xBh:__ZN4utf88internal20is_overlong_sequenceIiEEbjT_
bIc:__ZN14PhysicsQuery2D15Raycast_BindingERK8Vector2fS2_fRKN10Collider2D13ContactFilterE
Qc:_glReadBuffer
kq:__Z9SetLocalR15TransformAccessRKN4math7_float4Ey
sO:__ZN13RuntimeStaticI13ModuleManagerLb0EE13StaticDestroyEPv
zMb:__Z14SetupLightmapsRK8Vector4fS1_R17ShaderPassContext
tgh:__ZN14dense_hash_mapI10KeyWrapperIPK14Il2CppAssemblyEPK22Il2CppMonoAssemblyNameN6il2cpp5utils11PointerHashIS2_EENS4_14EqualsComparerINSt3__28equal_toIS3_EEEENSD_9allocatorINSD_4pairIKS4_S7_EEEEE13set_empty_keyERSJ_
Cta:__ZL20InitializeGUIShadersv
_ie:_Guid_CompareTo_m243656946
kdc:__Z20DestroyObjectDelayedP6Objectf
zL:__ZN20DynamicHeapAllocatorI17LowLevelAllocatorED0Ev
JLc:__ZL56__ManagedRegistrationHelperFunction_AnalyticsSessionInfoPv
kDc:__ZN10ClipperLib11ClipperBase5ResetEv
oec:__ZN11TimeManagerC2E10MemLabelId18ObjectCreationMode
HJb:__ZN9DepthPassD2Ev
vw:__ZN11AudioFilter6GetDSPEv
KQd:_RSACryptoServiceProvider_OnKeyGenerated_m863837376
wQ:__ZN19RuntimeSceneManager14CanUnloadSceneEP10UnityScene
KJb:__Z22ExtractRenderNodeQueueRK11CullResults15ExtractionFlagsR15RenderNodeQueue
nz:__ZN24AudioScriptBufferManagerC2Ev
lvc:__ZN22FindParticleCollisions22ProcessFoundCollisionsERKfRK13dynamic_arrayI15BatchedRaycastsLj0EERS2_I20BatchedRaycastResultLj0EERS2_I21BatchedColliderResultLj0EE
WQe:_InternalEnumerator_1_System_Collections_IEnumerator_get_Current_m3854084659_AdjustorThunk
Okc:__ZN8JSONRead32GetValueForKeyWithNameConversionEPKN5Unity9rapidjson12GenericValueINS1_4UTF8IcEE13JSONAllocatorEEPKc
LHe:_U3CGetEnumeratorU3Ec__Iterator0_System_Collections_IEnumerator_get_Current_m283764921_gshared
HFf:_TlsStream_Write_m188217214
ej:_emscripten_glGenBuffers
See:_CultureInfo_get_IcuName_m2258611679
ulc:__Z18Transfer_BlittableI9JSONWriteLb0EfEvRK29SerializationCommandArgumentsR31RuntimeSerializationCommandInfo
xsa:__Z21GetAsyncUploadManagerv
kj:_emscripten_glDetachShader
YGg:__Z129RuntimeInvoker_Int32_t2950945753_Vector3U26_t3464235976_Vector3U26_t3464235976_Single_t1397266774_Int32_t2950945753_RuntimeObjectPFvvEPK10MethodInfoPvPS4_
HIa:__ZN17GenericDynamicVBO20ReleaseChunkInternalERK21DynamicVBOChunkHandlejj
Dih:__ZN6il2cpp2vm14TypeNameParser25ParseAssemblyNameOptionalEv
eNh:_fmodl
X4e:_SymmetricTransform_OFB_m3842617151
Uhb:__Z18Transfer_BlittableI18StreamedBinaryReadILb1EELb1E4AABBEvRK29SerializationCommandArgumentsR31RuntimeSerializationCommandInfo
Zrb:__ZN19RuntimeSceneManager11CreateSceneEv
LMg:_PatternCompiler_Emit_m1540115729
eNb:__Z27SetupBakedOcclusionForLightbRK15SharedLightDataR17ShaderPassContext
ezf:_PropertyName_op_Implicit_m1633828199
tJh:__ZN6il2cpp2os5Mutex6UnlockEv
P_d:_EncoderFallbackException__ctor_m1051987327
ACd:_Context_set_RandomSC_m2364786761
S0e:_BigInteger_ToString_m3278248272
zCe:_Decimal_System_IConvertible_ToBoolean_m1123794670
pYf:__ZL99WaitHandle_t1743403487_CustomAttributesCacheGenerator_WaitHandle_t1743403487____Handle_PropertyInfoP21CustomAttributesCache
EJd:_WebRequest_AddPrefix_m3187775913
Xof:_UInt64_System_IConvertible_ToInt32_m949522652_AdjustorThunk
ZGb:__Z18RenderImageFiltersR10RenderLoopb
oNb:__ZNSt3__227__insertion_sort_incompleteIR23CompareReflectionProbesP31RuntimeReflectionProbeBlendInfoEEbT0_S5_T_
hve:_DateTime_IsLetter_m156019844
OY:__ZN13PlayableGraph17ConnectionChangedEv
cjb:__ZN18StreamedBinaryReadILb1EE21TransferSTLStyleArrayI13dynamic_arrayIdLj0EEEEvRT_17TransferMetaFlags
_Xc:_MonoEventInfo_GetEventInfo_m873645389
nxd:_MD4Managed_Encode_m386285215
wW:__ZN10InputEventD2Ev
rR:__ZL23OutOfBoundsReadingErrorPKN5Unity4TypeEiiR6Object
sRc:__ZN22UnityWebRequestManagerD2Ev
sLg:__Z112RuntimeInvoker_Boolean_t97287965_CustomAttributeNamedArgument_t287865710_CustomAttributeNamedArgument_t287865710PFvvEPK10MethodInfoPvPS4_
Tqb:__Z20SetPlayerPauseDirect11PlayerPause
PMh:_isalpha
Tue:_Convert_ToChar_m1442101407
PFd:_SslClientStream_OnLocalPrivateKeySelection_m1934775249
A8b:__ZZL31RegisterRectTransformPropertiesR22GenericPropertyBindingEN28Wrapper_RectTransformPivoty113SetFloatValueEPvf
Isc:__ZNK12b2MotorJoint17GetReactionTorqueEf
TBe:_DateTimeOffset_get_Offset_m2040541042_AdjustorThunk
D8g:__ZN6il2cpp2vmL17IsSocketAsyncCallEP14Il2CppDelegate
Vde:_Slot_t3975888750_marshal_pinvoke_back
OBh:__ZN6il2cpp2vm6String6NewLenEPKcj
Cpb:__ZN17PersistentManager9AddStreamEv
Ek:_time
gTd:_TripleDESCryptoServiceProvider_CreateDecryptor_m740960117
cSd:_SHA512Managed_HashCore_m2377807474
ome:_Int64_Parse_m3309897583
Dfe:_CompareInfo_IndexOf_m667936183
Ygg:_List_1_System_Collections_IList_Insert_m1011775503_gshared
eDb:__ZN26SinglePassStereoSupportExt18AfterSetViewMatrixEv
fKd:_X509EnhancedKeyUsageExtension_ToString_m350388564
gch:__ZN15dense_hashtableINSt3__24pairIK10KeyWrapperINS1_IPK9FieldInfoP11Il2CppClassEEEjEES9_17ReflectionMapHashIS8_EN14dense_hash_mapIS9_jSD_NS9_14EqualsComparerINS0_8equal_toIS8_EEEENS0_9allocatorISB_EEE9SelectKeyESI_SK_E4findERSA_
Yae:_SimpleEnumerator_MoveNext_m3113120129
Yrb:__ZN13LoadOperationC2E10MemLabelId
ULh:_spawnPlatform_Start_m1139829075
AHb:__ZN13RenderTexture19SetAutoGenerateMipsEb
hra:__Z20GetTextureFormatInfo13TextureFormat
kHd:_TypeConverterAttribute_Equals_m1580461255
xyd:_RSAManaged_ToXmlString_m2369501989
g6c:_LogicalCallContext__ctor_m1263247987
lAe:_DateTime_System_IConvertible_ToSingle_m2193708681_AdjustorThunk
NPd:_Interval_get_Size_m4163671410_AdjustorThunk
C$g:__ZN6il2cpp2vm5Class4InitEP11Il2CppClass
WJf:__ZL64String_t_CustomAttributesCacheGenerator_String_Split_m3580120853P21CustomAttributesCache
WTd:_String_memcpy4_m979367827
NHh:__ZN6il2cpp5utils10MemoryPool6MallocEj
Mw:__ZN11SoundHandle8InstanceD2Ev
E$c:_ResourceEnumerator_Reset_m3754276504
$Z:__ZN31CanvasBatchIntermediateRenderer13StaticDestroyEPv
Qxb:__ZNSt3__26__treeI17DeviceRasterState14MemoryCompLessIS1_ENS_9allocatorIS1_EEE25__emplace_unique_key_argsIS1_JS1_EEENS_4pairINS_15__tree_iteratorIS1_PNS_11__tree_nodeIS1_PvEEiEEbEERKT_DpOT0_
DWh:_emscripten_glBindProgramARB__wrapper
W4b:__Z41Register_UnityEngine_CullingGroup_Disposev
gNg:_PatternCompiler_EmitRepeat_m697083858
fza:__ZN7Cubemap23VirtualRedirectTransferER19StreamedBinaryWriteILb0EE
Sah:__ZN6il2cpp2vm7Runtime47RaiseExecutionEngineExceptionIfMethodIsNotFoundEPK10MethodInfoPK19Il2CppGenericMethod
eJg:__Z52RuntimeInvoker_Void_t1185182177_Keyframe_t4206410242PFvvEPK10MethodInfoPvPS4_
_Za:__ZN25MultiBlocksMemoryFileData5WriteEyyPKv
Btc:__ZNK13b2PulleyJoint16GetReactionForceEf
g$c:_ResourceReader_Read7BitEncodedInt_m3568166465
phh:__ZN14dense_hash_mapI10KeyWrapperIPK10Il2CppTypeEjN6il2cpp8metadata14Il2CppTypeHashENS4_14EqualsComparerINS6_26Il2CppTypeEqualityComparerEEENSt3__29allocatorINSB_4pairIKS4_jEEEEE13set_empty_keyERSE_
f4d:_Array_get_LongLength_m978104875
Jzb:__ZL17ProgramUniform2fvPK7ApiGLESjiihPKv
w_h:b83
Rah:__ZN6il2cpp2vm7Runtime23GetGenericVirtualMethodEPK10MethodInfoS4_
uAe:_DateTime_System_IConvertible_ToUInt16_m4182197229_AdjustorThunk
GPd:_Interval_get_IsDiscontiguous_m3016063288
HDf:_SslStreamBase_get_CheckCertRevocationStatus_m2739906607
dOh:_htonl
kxb:__Z20GetBufferManagerGLESv
v_h:b82
mSd:_SHA512Managed_Sigma1_m922902398
Nlb:__ZN18StreamedBinaryReadILb0EE21TransferSTLStyleArrayI31ArrayOfManagedObjectsTransfererEEvRT_17TransferMetaFlags
v3:__ZL60__ManagedRegistrationHelperFunction_FailedToLoadScriptObjectPv
Goc:__Z18Transfer_BlittableI8JSONReadLb0EtEvRK29SerializationCommandArgumentsR31RuntimeSerializationCommandInfo
_Sd:_TripleDES_IsWeakKey_m2147489852
Gv:__ZN12AudioManager21FixMasterGroupRoutingEv
iIa:__ZNK19ShaderPropertySheet11HasPropertyERKN9ShaderLab16FastPropertyNameE
jGc:__ZN6b2Body9SetActiveEb
yYh:_emscripten_glUniform1fv__wrapper
QVa:__ZN2UI13RectTransform19SetAnchoredPositionERK8Vector2f
Ztc:__ZN12b2MouseJointC2EPK15b2MouseJointDef
V7a:__Z18Transfer_BlittableI14SafeBinaryReadLb1E4AABBEvRK29SerializationCommandArgumentsR31RuntimeSerializationCommandInfo
Uwh:__ZN6il2cpp6icalls8mscorlib6System4Enum12get_hashcodeEP12Il2CppObject
OGh:_GC_set_no_dls
lLh:__ZN6il2cpp8metadata26Il2CppGenericMethodCompare6EqualsEPK19Il2CppGenericMethodS4_
ZPe:_InternalEnumerator_1_get_Current_m1007906068_gshared
jaa:__ZN9Scripting5Unity11Collections34DeallocateOnJobCompletionAttribute12CleanupProxyEv
_ae:_SimpleEnumerator_Reset_m1520014659
wB:__ZN9AudioClip7WWWOpenEPKciPjPPvS4_
M7a:__Z18Transfer_BlittableI14SafeBinaryReadLb0E8Vector2fEvRK29SerializationCommandArgumentsR31RuntimeSerializationCommandInfo
cCd:_Context_set_ProtocolNegotiated_m2904861662
wsh:__ZN15dense_hashtableINSt3__24pairIK10KeyWrapperINS1_IPKcS4_EEEiEES6_24NamespaceAndNamePairHashN14dense_hash_mapIS6_iS9_NS6_14EqualsComparerI26NamespaceAndNamePairEqualsEENS0_9allocatorIS8_EEE9SelectKeyESD_SF_E12resize_deltaEjj
$kd:_RemotingServices_GetRemoteObject_m2117098022
uvg:__Z132RuntimeInvoker_Boolean_t97287965_RuntimeObject_Int32_t2950945753_Int32_t2950945753_RuntimeObject_Int32_t2950945753_Int32_t2950945753PFvvEPK10MethodInfoPvPS4_
g7b:__Z53Register_UnityEngine_Input_INTERNAL_get_mousePositionv
cxb:__ZN7ApiGLES12DrawElementsE16GfxPrimitiveTypePKvjjjj
m4e:_EncryptedPrivateKeyInfo_get_Salt_m3453455261
mve:_DateTime__ParseNumber_m1240316250
drc:__ZN8JSONRead21TransferSTLStyleArrayI13dynamic_arrayIfLj0EEEEvRT_17TransferMetaFlags
$K:__GLOBAL__sub_I_Runtime_Utilities_6_cpp
nMe:_InternalEnumerator_1_get_Current_m3839250771_gshared
Zfe:_CultureInfo_get_TextInfo_m2342840448
Jc:_SDL_GetTicks
ceh:__ZN15dense_hashtableINSt3__24pairIK10KeyWrapperINS1_IPK11Il2CppImageP11Il2CppClassEEEjEES9_17ReflectionMapHashIS8_EN14dense_hash_mapIS9_jSD_NS9_14EqualsComparerINS0_8equal_toIS8_EEEENS0_9allocatorISB_EEE9SelectKeyESI_SK_E6insertERKSB_
jRb:__Z21CreateShadowCullerJobP30CreateUmbraShadowCullerJobData
Bzb:__ZL18ProgramUniform2uivPK7ApiGLESjiihPKv
_Xh:_glUniform4iv__wrapper
TNb:__Z33GenerateShadowCasterPartsSortDataRK16ShadowCasterDatajRK15RenderNodeQueueRKNSt3__26vectorI20ShadowCasterPartData13stl_allocatorIS7_L18MemLabelIdentifier2ELi16EEEERK10Matrix4x4fRjP20ShadowCasterSortData
qFb:__ZZ23InitPlayerLoopCallbacksvEN51PostLateUpdateTriggerEndOfFrameCallbacksRegistrator7ForwardEv
Fkf:_TimeSpan_Compare_m753151303
Uab:__Z29Transfer_Blittable_ArrayFieldI14SafeBinaryRead9BoundsIntEvRT_R9ArrayInfoRK23StaticTransferFieldInfo
rZc:_MonoPropertyInfo_get_property_info_m1599555644
csd:_DESTransform_CipherFunct_m3527261721
kEh:_GC_expand_hp_inner
Lb:invoke_viiiififfi
uuf:_UnityEventBase_RebuildPersistentCallsIfNeeded_m216788690
mBh:__ZN4utf812find_invalidIPKcEET_S3_S3_
hNf:__ZL72RuntimeCompatibilityAttribute_t1169614002_CustomAttributesCacheGeneratorP21CustomAttributesCache
_Qb:__Z59ProcessShadowCasterNodeVisibilityAndCullWithoutUmbra_KernelILN17CullingParameters9LayerCullE2ELi8EEvR9IndexListRK22SceneCullingParametersPK9SceneNodePK4AABBjjPKN4math7_float4E
hEe:_StackFrame__ctor_m343464319
UH:__ZN11UnityEngine15CloudWebService20WebRequestRestClient7PrepareEv
zYc:_MonoField_CheckGeneric_m453069507
qgd:_CustomAttributeNamedArgument_ToString_m1488801416_AdjustorThunk
Olb:__Z19TransferField_ArrayI18StreamedBinaryReadILb0EE27Converter_UnityEngineObjectEvRK23StaticTransferFieldInfoR31RuntimeSerializationCommandInfoRT0_
bod:_ObjectReader_ReadArrayOfString_m3550800559
aad:_MonoCustomAttrs_GetCustomAttributesInternal_m648304078
C7:__ZN9Scripting11UnityEngine12Experimental9Rendering16CameraProperties9InitProxyEv
i$a:__ZN16MemoryFileSystem4OpenER13FileEntryData14FilePermission16FileAutoBehavior
yfe:_CompareInfo_GetSortKey_m1915852346
f8c:_SynchronizedWriter_Write_m301917713
NRe:_DefaultComparer_Compare_m1297750557_gshared
BL:__ZN20DynamicHeapAllocatorI17LowLevelAllocatorE10ReallocateEPvji
$db:__Z18Transfer_BlittableI24GenerateTypeTreeTransferLb1E12PropertyNameEvRK29SerializationCommandArgumentsR31RuntimeSerializationCommandInfo
DOa:__ZN14SafeBinaryRead21TransferSTLStyleArrayI10vector_mapIPKN5Unity4TypeE7Hash128NSt3__24lessIS5_EENS7_9allocatorINS7_4pairIS5_S6_EEEEEEEvRT_17TransferMetaFlags
vB:__ZN9AudioClip18GetQueuedAudioDataEPPvj
Xzc:__ZN25b2SynchronizeFixturesTask19CreateDeferredMovesEv
Rwh:__ZN6il2cpp2os5posix15PosixWaitObject13InterruptWaitEv
Pzc:__ZN15b2ContactSolver13StoreImpulsesEv
Pfb:__Z18Transfer_BlittableI19StreamedBinaryWriteILb0EELb0E9BoundsIntEvRK29SerializationCommandArgumentsR31RuntimeSerializationCommandInfo
Uhh:__ZN14dense_hash_mapI10KeyWrapperINSt3__24pairIPK12PropertyInfoP11Il2CppClassEEEj17ReflectionMapHashIS8_ENS9_14EqualsComparerINS1_8equal_toIS8_EEEENS1_9allocatorINS2_IKS9_jEEEEEC2EjRKSB_RKSF_
Vac:__ZN17CollisionMeshDataC2Ev
I2c:_ConfigHandler_CheckPath_m3079311646
Y0c:_Marshal_Copy_m1222846562
L2b:__ZL24FindBelongingStructParamRPKcRNSt3__26vectorIN9ShaderLab20SerializedSubProgram14ConstantBufferENS2_9allocatorIS6_EEEE
yte:_Stack_Resize_m3124769495
tFb:__ZZ23InitPlayerLoopCallbacksvEN47PostLateUpdateMemoryFrameMaintenanceRegistrator7ForwardEv
exb:__ZN7ApiGLES20SetVertexArrayAttribEjj12VertexFormathjPKv
XEh:_GC_push_next_marked
IYe:_EqualityComparer_1_System_Collections_IEqualityComparer_GetHashCode_m3539775155_gshared
bTa:__ZN18IDCollectorFunctor18GenerateInstanceIDEi17TransferMetaFlags
Ozc:__ZN15b2ContactSolver9WarmStartEv
OGd:_NameObjectCollectionBase_BaseAdd_m3437748750
mr:__ZN13ConstraintJob23ConstraintComponentDataC2ERK18PositionConstraint
DU:__ZNSt3__27__sort4IRNS_6__lessI14ObjectLoadDataS2_EEPS2_EEjT0_S6_S6_S6_T_
YHb:__ZNK25CameraStackRenderingState16GetCurrentCameraEv
E5:__ZN9Scripting11UnityEngine9Rendering18GraphicsDeviceType9InitProxyEv
_Pa:__ZN15ResourceManagerD2Ev
V5b:__Z41Register_UnityEngine_Camera_GetAllCamerasv
aIc:__ZN14PhysicsQuery2D7RaycastERK8Vector2fS2_fRKN10Collider2D13ContactFilterEPKS3_bP12RaycastHit2Di
vOg:_Assertion__ctor_m2128950829
NPc:__ZN28PerformanceReportingSettings8TransferI14SafeBinaryReadEEvRT_
uUa:__ZN15CacheWriterBase18GetAddressOfMemoryEv
W$d:_Buffer_BlockCopy_m2884209081
Ooc:__Z18Transfer_BlittableI8JSONReadLb1E5RectTIiEEvRK29SerializationCommandArgumentsR31RuntimeSerializationCommandInfo
toh:__ZN6il2cpp2vm22EmbeddedResourceRecordC2ERKS1_
Isb:__ZL20DrawVBOChunkWithPassP6ShaderPN9ShaderLab4PassER17ShaderPassContextR10DynamicVBORK21DynamicVBOChunkHandle
aza:__ZN9Texture2D13AwakeFromLoadE17AwakeFromLoadMode
Mra:__ZN4core8hash_mapIPK17RenderSurfaceBaseP13RenderTexture19PointerHashFunctionIS3_ENSt3__28equal_toIS3_EEE6insertERKS3_RKS5_
Umf:_UInt16_System_IConvertible_ToByte_m3185614807
Zwf:_PlayerConnection_get_instance_m1750121257
_uh:__ZN6il2cpp2vm3RCW14QueryInterfaceILb0EEEP14Il2CppIUnknownP15Il2CppComObjectRK10Il2CppGuid
q$:__ZN6prcoreL17RemapGenericFloatI15TexFormatRFloat18TexFormatARGBFloatEEvPKNS_9InnerInfoE
zzd:_CipherSuite__ctor_m2440635082
PQd:_RSAPKCS1KeyExchangeFormatter_SetRSAKey_m1477802943
IUd:_EvidenceEnumerator_get_Current_m1264365535
LQc:__ZN11UnityEngine15PlatformWrapper20GetPlayerPrefsUInt64ERKN4core12basic_stringIcNS1_20StringStorageDefaultIcEEEEy
X0c:_Marshal_copy_from_unmanaged_m2834266824
cSh:dynCall_iiiifii
tNb:__ZN20ReflectionProbeCacheC2ER13BatchRendererR15RenderLoopStats
LBg:__Z59RuntimeInvoker_Int32_t2950945753_DateTimeOffset_t3229287507PFvvEPK10MethodInfoPvPS4_
sBc:__ZN35b2InitializeVelocityConstraintsTask7TaskJobEPS_j
vXa:__ZNK12HandlerChain6ExistsERK13FileEntryData
oEa:__ZN15SerializeTraitsI13dynamic_arrayI26EnlightenSystemInformationLj0EEE19ResizeSTLStyleArrayERS2_i
vee:_Calendar__ctor_m106290643
XMa:__ZN12InputManager23VirtualRedirectTransferER24GenerateTypeTreeTransfer
_Va:__ZN9Transform23VirtualRedirectTransferER24GenerateTypeTreeTransfer
cqf:_ValueType_DefaultEquals_m2927252100
FEg:__Z87RuntimeInvoker_RuntimeObject_Byte_t1134296376_RuntimeObject_RuntimeObject_RuntimeObjectPFvvEPK10MethodInfoPvPS4_
fBd:_HandshakeMessage_Process_m810828609
cfb:__Z29Transfer_Blittable_ArrayFieldI24GenerateTypeTreeTransfer9BoundsIntEvRT_R9ArrayInfoRK23StaticTransferFieldInfo
D_a:__ZN10MemoryFile4ReadEyyPvPy
Prf:_Bounds_Equals_m3920299735
Oid:_GenericTypeParameterBuilder_GetGenericArguments_m2988765390
Fub:__ZN13GfxDeviceGLES26UpdateViewProjectionMatrixEv
DIg:__Z53RuntimeInvoker_Int32_t2950945753_Keyframe_t4206410242PFvvEPK10MethodInfoPvPS4_
vv:__ZN4FMOD3DSP12setParameterEif
cqb:__ZN13MemoryManager16StaticInitializeEv
$fe:_CultureInfo_Equals_m1360976324
Oe:___cxa_free_exception
_7f:__ZL69PersistentCall_t3407714124_CustomAttributesCacheGenerator_m_CallStateP21CustomAttributesCache
Cx:__ZN4FMOD22FakeModChannelCallbackEPv
M7:__ZN9Scripting11UnityEngine12Experimental10PlayerLoop14PostLateUpdate9InitProxyEv
Ue:_emscripten_glValidateProgram
Nka:__ZN4Mesh10CreateMeshEv
uA:__ZN4FMOD7SystemI11createSoundEPKcjP22FMOD_CREATESOUNDEXINFOPPNS_5SoundE
WAe:_DateTime_CompareTo_m3889078633
IHd:_RemoteCertificateValidationCallback_Invoke_m727898444
icd:_NumberFormatter_set_CurrentCulture_m1358228087
jDc:__ZN10ClipperLib11ClipperBase5ClearEv
rTb:__ZN7Texture13SetAnisoLevelEi
fG:__ZNSt3__26__treeINS_12__value_typeIN4core12basic_stringIcNS2_20StringStorageDefaultIcEEEEjEENS_19__map_value_compareIS6_S7_NS_4lessIS6_EELb1EEE13stl_allocatorIS7_L18MemLabelIdentifier88ELi16EEE7destroyEPNS_11__tree_nodeIS7_PvEE
T4a:__ZN19EndOfFrameCallbacks7EnqueueEP18EndOfFrameCallbackb
PEa:__ZN15SerializeTraitsI13dynamic_arrayI31EnlightenSystemAtlasInformationLj0EEE8TransferI19StreamedBinaryWriteILb0EEEEvRS2_RT_
Ird:_CspParameters__ctor_m2741097571
Xzg:__Z78RuntimeInvoker_IntPtr_t_SByte_t1669577662_RuntimeObject_BooleanU26_t4125257963PFvvEPK10MethodInfoPvPS4_
Yqa:__ZN11HaloManager10UpdateHaloEiR9Transform11ColorRGBA32fjP6Object
yDe:_Decimal_decimalSetExponent_m3707787243
aO:__ZN33InstancedMeshIntermediateRenderer13StaticDestroyEPv
$Oc:__ZN28UnityConnectScriptingClasses35RemoteSettingsBeforeFetchFromServerEP21ScriptingExceptionPtr
wrh:__ZN14dense_hash_mapI10KeyWrapperIP14Il2CppIUnknownEjN6il2cpp5utils11PointerHashIS1_EENS3_14EqualsComparerINSt3__28equal_toIS2_EEEENS9_9allocatorINS9_4pairIKS3_jEEEEE13set_empty_keyERSF_
U4a:__ZN15dense_hashtableINSt3__24pairIK9TextureIDiEES2_14GfxGenericHashIS2_EN14GfxDoubleCacheIS2_iS6_NS0_8equal_toIS2_EEN31GfxDoubleCacheConcurrencyPolicy11LocklessGetE42GfxDoubleCacheDefaultEmptyDeletedGeneratorIS2_EE9SelectKeyES9_13stl_allocatorIS4_L18MemLabelIdentifier24ELi16EEE12resize_deltaEjj
Iia:__Z21DestroyShadowMapCacheP14ShadowMapCache
Bef:_Array_InternalArray__get_Item_TisLabelFixup_t858502054_m3276643490_gshared
tUb:__Z20RequiredComponentsOf17ScriptingClassPtr
shh:__ZN15dense_hashtableINSt3__24pairIK10KeyWrapperIPK10Il2CppTypeEjEES6_N6il2cpp8metadata14Il2CppTypeHashEN14dense_hash_mapIS6_jSB_NS6_14EqualsComparerINSA_26Il2CppTypeEqualityComparerEEENS0_9allocatorIS8_EEE9SelectKeyESF_SH_E14squash_deletedEv
vqh:__ZN6il2cpp2vm13LivenessState5ResetEv
Wkc:__ZN9JSONWrite8TransferI11KeyframeTplIfEEEvRT_PKc17TransferMetaFlags
aTb:__ZN22RenderingCommandBuffer23CleanupTemporaryRTArrayER13dynamic_arrayINSt3__24pairIN9ShaderLab16FastPropertyNameEP13RenderTextureEELj0EE
Vse:_SortedList_GetImpl_m3689246167
j4a:__ZN24BuiltinShaderParamValuesC2Ev
klc:__ZL41CreateJSONTransferFunctionScriptingTraitsv
mZb:__ZN6Shader23VirtualRedirectTransferER14SafeBinaryRead
qob:__Z23GetLateBehaviourManagerv
Vwg:__Z33RuntimeInvoker_Single_t1397266774PFvvEPK10MethodInfoPvPS4_
_9a:__ZN14SafeBinaryRead21TransferSTLStyleArrayINSt3__26vectorI8Gradient13stl_allocatorIS3_L18MemLabelIdentifier1ELi16EEEEEEvRT_17TransferMetaFlags
$S:__ZN10MemoryPool10DeallocateEPv
R9:__ZN9Scripting5Unity11Collections8LowLevel6Unsafe43NativeSetClassTypeToNullOnScheduleAttribute12CleanupProxyEv
QRh:dynCall_vif
tRa:__ZN18LoadSceneOperation22CompleteLoadFirstSceneEv
dye:_Convert_ToSByte_m4075629912
SRh:dynCall_vii
K3e:_KeyPairPersistence_FromXml_m746585742
c_d:_Decoder__ctor_m4046021500
Clb:__Z18Transfer_BlittableI18StreamedBinaryReadILb0EELb0EdEvRK29SerializationCommandArgumentsR31RuntimeSerializationCommandInfo
w9g:__ZN6il2cpp6icalls8mscorlib6System8MonoType18GetFields_internalEP20Il2CppReflectionTypeiS5_
maa:__ZN5Unity9Component16CheckConsistencyEv
iZc:_MonoMethod_get_ContainsGenericParameters_m3860345224
mka:__ZN19ShaderPropertySheet37CreateTextureAuxPropertyUninitializedEN9ShaderLab16FastPropertyNameES1_PKc
rgb:__ZL26Transfer_SimpleNativeClassI19StreamedBinaryWriteILb0EE10RectOffsetLb1EEvRK29SerializationCommandArgumentsR31RuntimeSerializationCommandInfo
Och:__ZN15dense_hashtableINSt3__24pairIK10KeyWrapperIPK10Il2CppTypeEjEES6_N6il2cpp8metadata14Il2CppTypeHashEN14dense_hash_mapIS6_jSB_NS6_14EqualsComparerINSA_26Il2CppTypeEqualityComparerEEENS0_9allocatorIS8_EEE9SelectKeyESF_SH_E3endEv
_vb:__ZN13GfxDeviceGLES17SetGpuProgramNameEP10GpuProgramPKc
fI:__ZNK11UnityEngine15CloudWebService25WebRequestDownloadHandler11GetProgressEv
tma:__Z43IsVertexFormatCompatibleWithDynamicBatchingRK14VertexDataInfo
I6g:__ZN6il2cpp2vm13MetadataCache28GetMethodDefinitionFromIndexEi
iAh:__ZN6il2cpp2os20FileErrnoToErrorCodeEi
Pua:__ZN14SafeBinaryRead19TransferSTLStyleMapINSt3__23mapI39DeprecatedFastPropertyNameSerialization10ColorRGBAfNS1_4lessIS3_EENS1_9allocatorINS1_4pairIKS3_S4_EEEEEEEEvRT_17TransferMetaFlags
ewe:_Decimal_ThrowAtPos_m1170269346
Eg:_atexit
Q8e:_Array_InternalArray__IndexOf_TisChar_t3634460470_m1022396423_gshared
Wfh:__ZN6il2cpp2vmL31GetObjectForMissingDefaultValueEj
E_d:_DecoderReplacementFallbackBuffer_GetNextChar_m2858228391
twb:__ZN13GfxDeviceGLES22UpdateComputeResourcesERK22ComputeShaderResources
ZMc:__ZN11UnityEngine15PlatformWrapper30GetVRPlayAreaBoundaryDimensionEv
tHf:_X509Certificate_get_Hash_m410033711
N$b:__ZN9ShaderLab14SerializedPassC2ERKS0_
tlc:__Z35Transfer_Blittable_FixedBufferFieldI9JSONWritehEvRK29SerializationCommandArgumentsR31RuntimeSerializationCommandInfo
l:STACKTOP
f7f:__ZL48Random_t635017412_CustomAttributesCacheGeneratorP21CustomAttributesCache
cXa:__ZNK12HandlerChain8IsHiddenERK13FileEntryData
iEa:__ZN21EnlightenSceneMapping16BuildRemapTablesEv
D1:__ZN6prcoreL12RemapGenericI13TexFormatRG8817TexFormatARGB8888EEvPKNS_9InnerInfoE
vfc:__ZN16StreamedResource8TransferI14SafeBinaryReadEEvRT_
DHc:__ZN22WorldContactListener2D10EndContactEP9b2Contact
OSb:__ZNK25CameraStackRenderingState25CalculateCameraTargetTypeEv
ykd:_PropertyBuilder_GetSetMethod_m128670376
y:tempBigIntR
x:tempBigIntS
w:tempBigIntP
Mm:FUNCTION_TABLE_viffi
Nqe:_MemoryStream_SetLength_m974389318
HU:__ZN6Object18RegisterInstanceIDEPS_
Gdb:__Z18Transfer_BlittableI24GenerateTypeTreeTransferLb1EsEvRK29SerializationCommandArgumentsR31RuntimeSerializationCommandInfo
pwh:__ZN15dense_hashtableINSt3__24pairIK10KeyWrapperIP12Il2CppObjectEN6il2cpp2gc9CachedCCWEEES5_NS7_5utils11PointerHashIS3_EEN14dense_hash_mapIS5_S9_SD_NS5_14EqualsComparerINS0_8equal_toIS4_EEEENS0_9allocatorISA_EEE9SelectKeyESI_SK_E11set_deletedER30dense_hashtable_const_iteratorISA_S5_SD_SM_SI_SK_E
K0a:__ZNK9GfxDevice18GetWorldViewMatrixEv
nIb:__Z20LookRotationToMatrixRK8Vector3fS1_P10Matrix3x3f
Tcc:__ZZL31RegisterOtherRendererPropertiesR22GenericPropertyBindingEN28Wrapper_RendererSortingOrder13SetFloatValueEPvf
Jye:_Convert_ToUInt16_m3902921832
Ped:_Assembly_GetTypes_m1724781913
qQf:__ZL54TypeBuilder_t1073948154_CustomAttributesCacheGeneratorP21CustomAttributesCache
DCh:__ZN6il2cpp6icalls8mscorlib6System7Convert17Base64ToByteArrayEPDsib
V1d:_SmallXmlParser_ReadComment_m1578426707
Veg:_List_1_AddEnumerable_m376418521_gshared
KEg:__Z79RuntimeInvoker_Void_t1185182177_Byte_t1134296376_Byte_t1134296376_RuntimeObjectPFvvEPK10MethodInfoPvPS4_
P3g:__ZNSt3__218__insertion_sort_3IRN6il2cpp5utils11collections13ArrayValueMapIPK10Il2CppType17Il2CppInteropData26InteropDataToTypeConverterNS1_8metadata14Il2CppTypeLessENSA_26Il2CppTypeEqualityComparerEE12SortComparerEPS8_EEvT0_SH_T_
VFc:__ZN11Rigidbody2D23VirtualRedirectTransferER14SafeBinaryRead
O0a:__ZNK9GfxDevice25GetDeviceProjectionMatrixEv
T$b:__ZNSt3__26__treeINS_12__value_typeI11ShaderTagIDS2_EENS_19__map_value_compareIS2_S3_NS_4lessIS2_EELb1EEENS_9allocatorIS3_EEE14__assign_multiINS_21__tree_const_iteratorIS3_PNS_11__tree_nodeIS3_PvEEiEEEEvT_SI_
ka:invoke_iidiii
Mdb:__Z18Transfer_BlittableI24GenerateTypeTreeTransferLb1EtEvRK29SerializationCommandArgumentsR31RuntimeSerializationCommandInfo
vC:__ZN12AudioManager33GetCurrentAmbisonicDefinitionNameE31UnityAudioEffectDefinitionFlags
Yfc:__ZN10systeminfo24GetRuntimePlatformStringEv
Eoe:_MonoIO_DeleteFile_m3839141322
eca:__ZN10SpookyHash5ShortEPKvjPyS2_
sLc:__ZN9Scripting11UnityEngine6Canvas12CleanupProxyEv
xyh:__ZN6il2cpp6icalls8mscorlib6System6String22RedirectToCreateStringEv
dQf:__ZL99ILGenerator_t1388622344_CustomAttributesCacheGenerator_ILGenerator_Mono_GetCurrentOffset_m993338688P21CustomAttributesCache
Fgc:__ZN9Scripting20CreateUnityExceptionEPKcz
GAc:__ZN35b2SolvePositionJointConstraintsTask7TaskJobEPS_
xka:__ZN9ShaderLab6TexEnvC2ERKNS_25SerializedTexturePropertyE
Idc:__Z28IntersectLineSegmentWithLineRK8Vector2fS1_S1_S1_RS_
ofa:__ZN9Transform32SetLocalScaleWithoutNotificationERKN4math7_float3Ey
n8g:__ZN6il2cpp2vm19SocketPollingThread14DequeueRequestEv
fyh:__ZL10RevealLinkPv
Oze:_DateTime__ctor_m12900168_AdjustorThunk
QBd:_ClientSessionCache_FromContext_m343076119
ii:___cxa_end_catch
USd:_ToBase64Transform_TransformBlock_m2497349397
cHd:_NameValueCollection_Add_m2418530856
B7c:_ReturnMessage_get_MethodSignature_m399735125
y$e:_SortKeyBuffer_AppendLevel5_m3963841125
DQg:_PositionAssertion_Compile_m2500980346
Eae:_ArrayListWrapper_ToArray_m3192696690
PC:__Z36AudioSource_Get_Custom_PropIsPlayingP12Il2CppObject
qjc:__ZL48__ManagedRegistrationHelperFunction_StylePainterPv
Z5d:_Attribute_GetCustomAttribute_m4034845276
dP:__Z33InitializeBuiltinShaderParamNamesv
umf:_Type_GetConstructor_m2219014380
Oaa:__ZNK16TypeTreeIterator4TypeEv
aEb:__ZN10FileSystem25MountDataFolderFileSystemERKN4core12basic_stringIcNS0_20StringStorageDefaultIcEEEES6_
Z$d:_ArgumentOutOfRangeException__ctor_m282481429
Ti:_glGetUniformLocation
ovb:__ZN13GfxDeviceGLES32CreateColorRenderSurfacePlatformEP17RenderSurfaceBase19RenderTextureFormat
bHb:__ZN22RenderingCommandBuffer20ExecuteCommandBufferER17ShaderPassContextR15RenderNodeQueuejP13dynamic_arrayINSt3__24pairIN9ShaderLab16FastPropertyNameEP13RenderTextureEELj0EE16ComputeQueueTypeSA_
mB:__ZN12AudioManager24CreateFMODSoundFromMovieEP9AudioClip
pdg:__ZL63AnalyticsSessionInfo_t2322308579_CustomAttributesCacheGeneratorP21CustomAttributesCache
H5g:__ZN6il2cpp2vm13MetadataCache24GetGenericInstanceMethodEPK10MethodInfoPK20Il2CppGenericContext
uEh:_GC_hblk_fl_from_blocks
pYc:_MonoField_GetParentType_m2478933781
bwe:_Decimal_Parse_m942471224
XT:__Z24ConvertSeparatorsToUnityPc
mfh:__ZN6il2cpp2gc19AppendOnlyGCHashMapINSt3__24pairIPK9EventInfoP11Il2CppClassEEP21Il2CppReflectionEvent17ReflectionMapHashIS9_ENS2_8equal_toIS9_EEE3AddERKS9_SB_
wjg:_Collection_1_System_Collections_ICollection_CopyTo_m46221116_gshared
Flh:__ZN6il2cpp2vm6Thread20FreeThreadStaticDataEP12Il2CppThread
N8e:_Array_InternalArray__IndexOf_TisClientCertificateType_t1004704908_m3457772631_gshared
Uqg:__Z28RuntimeInvoker_RuntimeObjectPFvvEPK10MethodInfoPvPS4_
rWf:__ZL56SecurityAction_t569814076_CustomAttributesCacheGeneratorP21CustomAttributesCache
yTd:_X509Certificate_GetPublicKey_m4184729161
hae:_ArrayListWrapper_set_Capacity_m2373297383
c_e:_Enumerator_System_Collections_IEnumerator_Reset_m502339360_AdjustorThunk
aOf:__ZL58DictionaryEntry_t3123975638_CustomAttributesCacheGeneratorP21CustomAttributesCache
Knh:__ZN15dense_hashtableINSt3__24pairIK10KeyWrapperINS1_IP11Il2CppClassjEEES4_EES6_N6il2cpp8metadata14ArrayClassHashEN14dense_hash_mapIS6_S4_SB_NS6_14EqualsComparerINSA_17ArrayClassCompareEEENS0_9allocatorIS8_EEE9SelectKeyESF_SH_E12maybe_shrinkEv
lkc:__ZNK5Unity9rapidjson12GenericValueINS0_4UTF8IcEE13JSONAllocatorE6AcceptINS0_12PrettyWriterI16TempBufferWriterS3_S3_S4_EEEEbRT_
zrd:_CryptoConfig_EncodeLongNumber_m4127306320
Yzd:_CipherSuite_createEncryptionCipher_m2533565116
LTc:__ZL47__ManagedRegistrationHelperFunction_VideoPlayerPv
nG:__ZN11UnityEngine15CloudWebService14DataDispatcher25OnDataBlockConsumedStaticEPv
Zjb:__Z29Transfer_Blittable_ArrayFieldI18StreamedBinaryReadILb1EE11QuaternionfEvRT_R9ArrayInfoRK23StaticTransferFieldInfo
v1c:_ActivatedServiceTypeEntry_ToString_m1591455874
QUd:_SecurityElement_ToXml_m3664345083
$bf:_Array_InternalArray__Insert_TisParameterModifier_t1461694466_m3664994573_gshared
s_b:__Z14resize_trimmedINSt3__26vectorIN9ShaderLab20SerializedSubProgram16SamplerParameterENS0_9allocatorIS4_EEEEEvRT_j
X1d:_SmallXmlParser_ReadUntil_m2715581630
sPh:__ZNSt3__212basic_stringIcNS_11char_traitsIcEENS_9allocatorIcEEE6insertEjPKcj
mlc:__Z44InitializeTransferFunctionScriptingTraitsForI8JSONReadEvR31TransferFunctionScriptingTraits
ctb:__ZNSt3__27__sort4IRNS_4lessIN22BuiltinResourceManager8ResourceEEEPS3_EEjT0_S7_S7_S7_T_
vGd:_ListDictionary_Add_m3918308031
ewh:__ZNK15dense_hashtableINSt3__24pairIK10KeyWrapperIP12Il2CppObjectEN6il2cpp2gc9CachedCCWEEES5_NS7_5utils11PointerHashIS3_EEN14dense_hash_mapIS5_S9_SD_NS5_14EqualsComparerINS0_8equal_toIS4_EEEENS0_9allocatorISA_EEE9SelectKeyESI_SK_E23find_position_with_hashERS6_j
bRa:__ZN17PersistentManager34ExtractTimeSliceAwakeFromLoadQueueER27TimeSliceAwakeFromLoadQueueNS_9LockFlagsE
ZSg:_AesManaged_CreateEncryptor_m1611897367
hqe:_DelegatePInvokeWrapper_WriteDelegate_t4270993571
kUb:__ZN10GameObject34AddFirstTransformComponentInternalEP9Transform
dN:__ZNSt3__26__treeINS_12__value_typeINS_4pairIPcS3_EENS_3setIS3_15compare_tstringIPKcENS_9allocatorIS3_EEEEEENS_19__map_value_compareIS4_SD_20smaller_tstring_pairIS8_ELb1EEENSA_ISD_EEE7destroyEPNS_11__tree_nodeISD_PvEE
zA:__ZN12AudioManager29GetCurrentAmbisonicDefinitionE31UnityAudioEffectDefinitionFlags
OQh:_pthread_mutex_unlock
B6:__ZN9Scripting11UnityEngine16ScriptableObject12CleanupProxyEv
OOa:__ZN15SerializeTraitsINSt3__24pairIPKN5Unity4TypeE7Hash128EEE8TransferI14SafeBinaryReadEEvRS7_RT_
RDh:_GC_number_stack_black_listed
CDe:_Decimal_ToString_m4018746482_AdjustorThunk
iRb:__Z37GenerateCombinedDynamicVisibleListJobP11CullResults
cHa:__ZNK13ScreenManager21GetCursorInsideWindowEv
agd:_CustomAttributeData_GetCustomAttributes_m1033457578
e1c:_SafeHandle_DangerousAddRef_m614714386
SNb:__Z20IntersectAABBFrustumRK4AABBPK5Planej
J9b:__ZN13RenderManager15InitializeClassEv
qCg:__Z74RuntimeInvoker_RuntimeObject_RuntimeObject_Double_t594665363_RuntimeObjectPFvvEPK10MethodInfoPvPS4_
uab:__ZN15SerializeTraitsI12PropertyNameE8TransferI14SafeBinaryReadEEvRS0_RT_
Y5c:_Header__ctor_m1921907550
Xxe:_Convert_ToSByte_m1350241137
N8b:__ZZN9Transform15InitializeClassEvEN31FunctorImpl_114kDidAddComponent4CallEPviR11MessageData
unc:__ZN9JSONWrite8TransferI11ColorRGBA32EEvRT_PKc17TransferMetaFlags
aqc:__Z22TransferField_NonArrayI8JSONRead27Converter_SimpleNativeClassI8GradientEEvRK23StaticTransferFieldInfoR31RuntimeSerializationCommandInfoRT0_
unb:__ZN10MonoScript13AwakeFromLoadE17AwakeFromLoadMode
DPd:_Interval__ctor_m4022869013
S6d:_Boolean_System_IConvertible_ToUInt16_m3465173538
sEb:__ZN10MemoryFile21CreateFileSystemEntryE10MemLabelId14FilePermissionPvjb
aCb:__ZNK18GfxFramebufferGLES15DiscardContentsER12ObjectHandleI17RenderSurface_TagP17RenderSurfaceBaseE
Cwd:_ARC4Managed_KeySetup_m2449315676
ync:__ZN9JSONWrite8TransferI13dynamic_arrayI5RectTIiELj0EEEEvRT_PKc17TransferMetaFlags
C6g:__ZN6il2cpp2vm13MetadataCache27GetEventDefinitionFromIndexEi
p3:__ZL63__ManagedRegistrationHelperFunction_ScriptableCullingParametersPv
ize:_Convert_ToUInt64_m92315402
Amc:__Z18Transfer_BlittableI9JSONWriteLb1EdEvRK29SerializationCommandArgumentsR31RuntimeSerializationCommandInfo
SVh:_glGetIntegerv__wrapper
H:Math_pow
QMe:_InternalEnumerator_1_System_Collections_IEnumerator_get_Current_m435848551_gshared
yba:__ZN10GameObject28FinalizeAddComponentInternalEPN5Unity9ComponentE
YAa:__ZN9Texture2DD2Ev
lUg:_AudioExtensionManager_GetReadyToPlay_m1557263244
rye:_Convert_ToSingle_m164367433
Cef:_Array_InternalArray__get_Item_TisILTokenInfo_t2325775114_m3110830457_gshared
qwe:_Convert_ToDecimal_m1284410333
iBe:_DateTime_CheckStyle_m1392838900
tuc:__ZN16PhysicsManager2D43RegisterTransformChangeInterestForRigidbodyEP11Rigidbody2D
DGd:_NameObjectCollectionBase__ctor_m2090733912
vOd:_Group__cctor_m2230627219
s5:__ZN9Scripting11UnityEngine15SendMouseEvents9InitProxyEv
Aud:_BigInteger__cctor_m102257529
KX:__ZN27IntermediateRendererManagerD2Ev
hTa:__ZN17PersistentManager27GetLoadErrorMessageFromPathERKN4core12basic_stringIcNS0_20StringStorageDefaultIcEEEE
kGf:_NetscapeCertTypeExtension_ToString_m1800688476
Il:_glGenRenderbuffers
Xoh:__ZN6il2cpp6icalls8mscorlib6System2IO6MonoIO19GetCurrentDirectoryEPi
IOb:__Z21IntersectSegmentPlaneRK8Vector3fS1_RK5PlanePS_
u9:__ZN9Scripting11UnityEngine24AssemblyIsEditorAssembly9InitProxyEv
fue:_Convert_ToBoolean_m4098720762
HRg:_Uri_get_IsFile_m2450018824
fW:__ZN14CachingManager7DisposeEv
o8:__ZN9Scripting11UnityEngine8EnumInfo9InitProxyEv
OGf:_X509CertificateEnumerator_MoveNext_m3925432749
kA:__ZN12AudioManager31GetCurrentSpatializerDefinitionEv
bGd:_HybridDictionary_Add_m912320053
swf:_MonoBehaviour_Invoke_m4227543964
VIa:__ZN12MeshRenderer16UpdateCachedMeshEv
iSg:_KeyBuilder_IV_m3340234014
Z9a:__Z19TransferField_ArrayI14SafeBinaryRead27Converter_SimpleNativeClassI8GradientEEvRK23StaticTransferFieldInfoR31RuntimeSerializationCommandInfoRT0_
QCf:_RIPEMD160Managed_GG_m3020389474
z6e:_Array_InternalArray__ICollection_Remove_TisDictionaryEntry_t3123975638_m3699186409_gshared
$dd:_Object_Equals_m1397037629
qrf:_AsyncOperation_t1445031843_marshal_pinvoke_back
e6e:_Array_InternalArray__ICollection_Contains_TisX509ChainStatus_t133602714_m795171973_gshared
aBc:__ZN43b2SolveVelocityConstraintsContactSolverTask7TaskJobEPS_j
LTb:__ZN6Camera15SetOrthographicEb
Knb:__ZN13MonoBehaviourD2Ev
Kub:__ZN13GfxDeviceGLES14DisableScissorEv
Lmg:_ReadOnlyCollection_1_IndexOf_m1305514714_gshared
Vrf:_Bounds_get_size_m1178783246_AdjustorThunk
Kig:_Queue_1__ctor_m2068090025_gshared
rwg:__Z64RuntimeInvoker_Double_t594665363_RuntimeObject_Int32_t2950945753PFvvEPK10MethodInfoPvPS4_
mKe:_InternalEnumerator_1_System_Collections_IEnumerator_get_Current_m2141782011_AdjustorThunk
mDe:_Decimal_decimalMult_m3812462972
rEd:_RecordProtocol_BeginSendRecord_m615249746
cc:_glVertexAttrib4f
WBc:__ZN12b2BroadPhase13QueryCallbackEi
xfg:_List_1_System_Collections_IList_Insert_m4074493513_gshared
DRg:_Uri_GetOpaqueWiseSchemeDelimiter_m1909471550
_Ha:__ZN12ImageFilters4BlitER17ShaderPassContextP7TextureP13RenderTextureiP8MaterialiNS_9BlitFlagsE11CubemapFaceRK8Vector2fSC_
tFh:_GC_set_hdr_marks
pla:__Z17SetupObjectMatrixRK10Matrix4x4fi
gN:__ZN13RuntimeStaticINSt3__23mapINS0_4pairIPcS3_EEPFbPvR14SafeBinaryReadE20smaller_tstring_pairIPKcENS0_9allocatorINS2_IKS4_S9_EEEEEELb0EE13StaticDestroyES5_
kpe:_FileStream_FlushBufferIfDirty_m4249802951
Ldf:_Array_swap_TisRuntimeObject_m3281757310_gshared
bye:_Convert_ToSByte_m2653811524
VPa:__ZN30RuntimeInitializeOnLoadManager15ClassMethodInfo8TransferI19StreamedBinaryWriteILb0EEEEvRT_
Rcc:__ZZL31RegisterOtherRendererPropertiesR22GenericPropertyBindingEN30Wrapper_RendererReceiveShadows13SetFloatValueEPvf
ead:_MonoCustomAttrs_GetCustomAttributes_m1347331976
Lwg:__Z46RuntimeInvoker_RuntimeObject_Int16_t2552820387PFvvEPK10MethodInfoPvPS4_
E4c:_SynchronizationAttribute_set_Locked_m2760363037
dke:_Int16_Equals_m82811458
Xxd:_PrivateKeyInfo_Decode_m986145117
Gx:__ZN4FMOD5Sound11setUserDataEPv
OHc:__ZN4core8hash_setINS_4pairIKNSt3__24pairIPK10Collider2DS6_EEiLb0EEENS_9hash_pairINS4_23ColliderPairHashFunctorES8_iEENS_10equal_pairINS2_8equal_toIS7_EES8_iEEE4growEi
s2b:__ZNSt3__26vectorIN20GpuProgramParameters12UAVParameterENS_9allocatorIS2_EEE21__push_back_slow_pathIS2_EEvOT_
AZb:__ZN14SafeBinaryRead21TransferSTLStyleArrayINSt3__26vectorIN9ShaderLab19SerializedSubShaderENS1_9allocatorIS4_EEEEEEvRT_17TransferMetaFlags
NHc:__ZN4core8hash_setINS_4pairIKNSt3__24pairIPK10Collider2DS6_EEiLb0EEENS_9hash_pairINS4_23ColliderPairHashFunctorES8_iEENS_10equal_pairINS2_8equal_toIS7_EES8_iEEE4growEv
Kvg:__Z137RuntimeInvoker_Void_t1185182177_Int32_t2950945753_RuntimeObject_RuntimeObject_RuntimeObject_RuntimeObject_RuntimeObject_SByte_t1669577662PFvvEPK10MethodInfoPvPS4_
uje:_Guid_op_Equality_m4289903222
U_a:__ZNK25SingleBlockMemoryFileData4SizeEv
Y9f:__ZL68TypeInferenceRuleAttribute_t254868554_CustomAttributesCacheGeneratorP21CustomAttributesCache
TOc:__ZN11UnityEngine7Connect20RemoteConfigSettings19ConfigChangedStaticEPS1_RKN4core12basic_stringIcNS3_20StringStorageDefaultIcEEEER8JSONReadb
Nvh:__ZNK15dense_hashtableINSt3__24pairIK10KeyWrapperIP12Il2CppObjectEN6il2cpp2gc9CachedCCWEEES5_NS7_5utils11PointerHashIS3_EEN14dense_hash_mapIS5_S9_SD_NS5_14EqualsComparerINS0_8equal_toIS4_EEEENS0_9allocatorISA_EEE9SelectKeyESI_SK_E3endEv
vAe:_DateTime_System_IConvertible_ToUInt32_m3781235049
$L:__ZN17LowLevelAllocator4FreeEPvj
Isg:__Z92RuntimeInvoker_Int32_t2950945753_RuntimeObject_RuntimeObject_SByte_t1669577662_RuntimeObjectPFvvEPK10MethodInfoPvPS4_
_le:_Int64_System_IConvertible_ToType_m3223988955
XPb:__ZN14qsort_internal5QSortIP16RenderObjectDatai25RenderPrePassObjectSorterEEvT_S4_T0_T1_
wSd:_SymmetricAlgorithm_Dispose_m1120980942
OV:__ZL19StaticCleanupPlayerPv
fad:_MonoCustomAttrs_RetrieveAttributeUsage_m2717094301
_ne:_DirectoryInfo_Initialize_m1389772934
Mqf:_AnimationCurve_Init_m425927913
Oz:__ZN12AudioManager37RebindAudioSourcesAndSubMixersToMixerEP10AudioMixer
raa:__ZN9Behaviour10DeactivateE19DeactivateOperation
Bre:_Stream_WriteByte_m1519852120
ZZb:__ZN15dense_hashtableINSt3__24pairIKiN4core17string_with_labelILi1EEEEEi18SInt32HashFunctionN14dense_hash_mapIiS5_S7_NS0_8equal_toIiEE13stl_allocatorIS6_L18MemLabelIdentifier1ELi16EEE9SelectKeyESA_SD_E15insert_noresizeERKS6_
AVg:_Physics2D_Raycast_m1377762210
$wh:__ZN6il2cpp2vmL22RaiseOverflowExceptionEv
To:__Z23CalculateGlobalRotation23TransformAccessReadOnly
hna:__ZN16GraphicsSettings28SetLightsUseColorTemperatureEb
pua:__ZNK9ShaderLab7Program11IsSupportedEPK6Shader
HVc:_TypeBuilder_GetMethodImpl_m3583143647
Mcc:__Z43InitializeRendererAnimationBindingInterfacev
WU:__ZL26DestroyGameObjectRecursiveR10GameObjectR11BatchDelete
KFh:_GC_allochblk_nth
zSg:_SymmetricTransform_FinalEncrypt_m748885414
Vbc:__Z7HaloTexP9Texture2DPhiiii
MSh:dynCall_i
gE:__ZN17AudioCustomFilter4InitEv
dSh:dynCall_f
sGd:_ListDictionary_GetEnumerator_m3395631195
leb:__Z35Transfer_Blittable_FixedBufferFieldI24GenerateTypeTreeTransferjEvRK29SerializationCommandArgumentsR31RuntimeSerializationCommandInfo
L3e:_KeyPairPersistence_Save_m3111435398
R6g:__ZNK15dense_hashtableINSt3__24pairIK10KeyWrapperIP9FieldInfoEiEES5_N6il2cpp5utils11PointerHashIS3_EEN14dense_hash_mapIS5_iSB_NS5_14EqualsComparerINS0_8equal_toIS4_EEEENS0_9allocatorIS7_EEE9SelectKeyESG_SI_E13find_positionERS6_
GRh:dynCall_v
Gdc:__ZN13dynamic_arrayIS_I8Vector2fLj0EELj0EE18resize_initializedEj12ResizePolicy
RAb:__ZN7ApiGLES14TextureSamplerEjjRK24GfxTextureSamplingParams17TextureColorSpace
Nse:_SortedList_System_Collections_IEnumerable_GetEnumerator_m2738760439
Ylh:__ZN6il2cpp2vm6Thread8SetStateEP12Il2CppThreadNS0_11ThreadStateE
Iga:__ZN6Camera23VirtualRedirectTransferER14SafeBinaryRead
bKh:__ZNSt3__26vectorINS_12basic_stringIDsNS_11char_traitsIDsEENS_9allocatorIDsEEEENS4_IS6_EEE8__appendEj
FOc:__ZN11UnityEngine7Connect13ConnectConfig11ConfigValueD2Ev
sBb:__ZNSt3__26__treeINS_12__value_typeIjP14DataBufferGLESEENS_19__map_value_compareIjS4_NS_4lessIjEELb1EEENS_9allocatorIS4_EEE7destroyEPNS_11__tree_nodeIS4_PvEE
B5:__ZN9Scripting11UnityEngine9Rendering20SphericalHarmonicsL212CleanupProxyEv
bb:invoke_viiiiiiii
Gje:_Int16_System_IConvertible_ToDateTime_m3080274979_AdjustorThunk
wBb:__ZN18GfxFramebufferGLES24UpdateDefaultFramebufferEP17RenderSurfaceBaseS1_N2gl6HandleILNS2_10ObjectTypeE9EEE
gs:__ZL67__ManagedRegistrationHelperFunction_SharedBetweenAnimatorsAttributePv
dDf:_SslHandshakeHash__ctor_m4169387017
r4g:__ZN15dense_hashtableINSt3__24pairIK10KeyWrapperIN6il2cpp5utils13dynamic_arrayIPK10Il2CppTypeLj4EEEEPFvvEEESA_NS3_8metadata19Il2CppSignatureHashEN14dense_hash_mapISA_SD_SG_NSA_14EqualsComparerINSF_22Il2CppSignatureCompareEEENS0_9allocatorISE_EEE9SelectKeyESK_SM_E9copy_fromERKSP_j
RDa:__ZN16LightmapSettings5ResetEv
rCa:__ZN12FileAccessor4ReadEyPvPy
rxf:__ZN23InterfaceActionInvoker3I6Guid_tP22ByteU5BU5D_t4116647657iE6InvokeEjP11Il2CppClassP12Il2CppObjectS0_S2_i
ysg:__Z67RuntimeInvoker_Void_t1185182177_Int16_t2552820387_Int32_t2950945753PFvvEPK10MethodInfoPvPS4_
lhd:_EnumBuilder_get_BaseType_m1707640163
$Fb:__Z12IsFirstFramev
mkc:__ZN5Unity9rapidjson12PrettyWriterI16TempBufferWriterNS0_4UTF8IcEES4_13JSONAllocatorE12PrettyPrefixENS0_4TypeE
$hc:__Z70Register_UnityEngine_PropertyNameUtils_PropertyNameFromString_Injectedv
FR:__ZN8TypeTreeC2E10MemLabelId
CU:__ZNK15FileSystemEntry6ExistsEv
Huc:__ZN16PhysicsManager2D20FindParticleOverlapsER13dynamic_arrayI15BatchedOverlapsLj0EEPP10Collider2Dj
IQ:__ZN17PersistentManager18ReadObjectThreadedEiNS_9LockFlagsE
lBe:_DateTime_ToString_m884486936
jxd:_MD4Managed_HashCore_m3384203071
FB:__ZN13AudioListener23VirtualRedirectTransferER19StreamedBinaryWriteILb0EE
ZAd:_ClientRecordProtocol_createClientHandshakeMessage_m3325677558
Cvb:__ZN13GfxDeviceGLES11CopyTextureE9TextureIDS0_
_se:_SortedList_get_Capacity_m919184864
cVh:_emscripten_glViewport__wrapper
qI:__ZN11UnityEngine15CloudWebService23WebRequestUploadHandler13GetUploadDataERj
iYd:_String_IndexOfOrdinalUnchecked_m460601827
LRa:__ZN13dynamic_arrayI28EnlightenRendererInformationLj0EE6insertEPS0_PKS0_S4_
R2c:_ConfigHandler_ReadChannel_m781299361
ZQb:__Z59ProcessShadowCasterNodeVisibilityAndCullWithoutUmbra_KernelILN17CullingParameters9LayerCullE1ELi8EEvR9IndexListRK22SceneCullingParametersPK9SceneNodePK4AABBjjPKN4math7_float4E
rDg:__Z99RuntimeInvoker_Void_t1185182177_Int32_t2950945753_Int32_t2950945753_SByte_t1669577662_RuntimeObjectPFvvEPK10MethodInfoPvPS4_
Wjg:_Collection_1_set_Item_m2229506155_gshared
TAe:_DateTime_Compare_m2855073242
W4c:_InternalRemotingServices_GetCachedSoapAttribute_m1042302982
FG:__ZN11UnityEngine15CloudWebService17SessionEventQueue15RestoreFromFileER12FileAccessorPvy
$gd:_ConstructorBuilder_GetILGenerator_m1421260830
mNa:__ZN14PlayerSettingsD2Ev
WJd:_AsnEncodedData_SubjectAltName_m4049949414
HDc:__ZN10ClipperLib15FirstIsBottomPtEPKNS_5OutPtES2_
mLa:__ZN13dynamic_arrayI16BlendShapeVertexLj0EE18resize_initializedEj12ResizePolicy
AY:__ZN13PlayableGraph14DestroyOutputsEv
ejg:_Enumerator_System_Collections_IEnumerator_get_Current_m3895111131_gshared
Ne:___syscall122
ywe:_Convert_ToDecimal_m2858622624
ked:_OperatingSystem__ctor_m1545635730
nE:__ZN9AudioClip16EnableLegacyModeEv
c4c:_Context_DoCallBack_m749197451
lOh:_mkdir
tJc:__ZN9Scripting11UnityEngine7Physics12CleanupProxyEv
nIh:__GLOBAL__sub_I_MemoryMappedFile_cpp
M$d:_PKCS12_ReadSafeBag_m1585166574
ydc:__Z16CreateRenderLoopR6Camera
Mob:__ZN32SerializationCommandQueueBuilder3AddERK20SerializationCommand
jM:_tlsf_create
jQa:__ZN14SafeBinaryRead21TransferSTLStyleArrayINSt3__26vectorIN15ResourceManager10DependencyE13stl_allocatorIS4_L18MemLabelIdentifier52ELi16EEEEEEvRT_17TransferMetaFlags
_Cc:__ZN10ClipperLib7ClipperC1Ei
Vnb:__ZN13MonoBehaviour23VirtualRedirectTransferER18StreamedBinaryReadILb0EE
t$b:__ZN9ShaderLab20SerializedSubProgramC2ERKS0_
Qoe:_FileLoadException__ctor_m3879680456
kQh:__ZNK10__cxxabiv121__vmi_class_type_info27has_unambiguous_public_baseEPNS_19__dynamic_cast_infoEPvi
Tbd:_MulticastDelegate_CombineImpl_m2857239134
oJf:__ZL65AttributeUsageAttribute_t290877318_CustomAttributesCacheGeneratorP21CustomAttributesCache
xqf:_Version_op_Inequality_m1696193441
_0c:_Marshal_ReadByte_m1960935664
Zk:_emscripten_glGetActiveUniform
wae:_ArrayListWrapper_CopyTo_m3756520478
F$c:_ResourceInfo_t2872965302_marshal_pinvoke
xia:__ZN16RenderTextureMap5QueryEPK17RenderSurfaceBase
cdc:__ZN8Material8GetFloatEN9ShaderLab16FastPropertyNameE
Wsd:_HashAlgorithm_TransformBlock_m4006041779
Of:_glGetActiveUniform
W8e:_Array_InternalArray__IndexOf_TisSlot_t3975888750_m4250446283_gshared
Whc:__Z57Register_UnityEngine_MonoBehaviour_StartCoroutineManaged2v
Vf:_emscripten_glGetObjectParameterivARB
TPg:_CharacterClass_AddCharacter_m2370152363
Wga:__ZN15SerializeTraitsI10ColorRGBAfE8TransferI14SafeBinaryReadEEvRS0_RT_
QV:__ZN22BuiltinResourceManager13StaticDestroyEPv
n5:__ZN9Scripting11UnityEngine25SerializePrivateVariables12CleanupProxyEv
nwc:__ZNK14b2CapsuleShape11ComputeMassEP10b2MassDataf
MU:__ZN10GameObject17GetComponentIndexEPN5Unity9ComponentE
Scf:_Array_InternalArray__set_Item_TisILTokenInfo_t2325775114_m309595583_gshared
By:__ZN29AudioEffectInternalDefinition9CreateDSPEPN4FMOD6SystemEPvPfP23UnityAudioAmbisonicDataPP25UnityAudioSpatializerData
E$e:_SimpleCollator_ClearBuffer_m2975394169
wFf:_TlsStream_ReadInt24_m3096782201
LVb:__ZN35RegisterRuntimeInitializeAndCleanup22ExecuteInitializationsEv
pvc:__Z14b2TimeOfImpactP11b2TOIOutputPK10b2TOIInput
iTd:_TripleDESCryptoServiceProvider_CreateEncryptor_m450924958
mRg:_UriParser_GetParser_m544052729
Cu:__ZN23PreloadManagerOperation14SetFinalTimingEffff
i:DYNAMICTOP_PTR
wjd:_MethodBuilder_fixup_m1765890582
cod:_ObjectReader_ReadSimpleArray_m428957657
ROa:__ZN13BuildSettings8TransferI18StreamedBinaryReadILb0EEEEvRT_
M9c:_MissingFieldException__ctor_m4282575076
gDe:_Decimal_Equals_m2592017260
m3c:_ConfigHandler_OnEndParsing_m3764034673
Zld:_RemotingConfiguration_RegisterTypes_m2378540395
y9d:_ArrayList_get_Capacity_m431818936
yOe:_InternalEnumerator_1_System_Collections_IEnumerator_get_Current_m767948013_gshared
Yqf:_UnityAction_Invoke_m893829196
IV:__ZNK11TypeManager23FindAllRTTIDerivedTypesEPK4RTTIR13dynamic_arrayIS2_Lj0EEb
cs:__ZL58__ManagedRegistrationHelperFunction_AnimatorTransitionInfoPv
qOa:__ZN14AsyncOperationD0Ev
yyb:__Z29TextureIdMapGLES_QueryOrAlloc9TextureID
Uxf:_Object_Internal_InstantiateSingle_m4074556765
Rqb:__ZN13ScreenManager18SetAllowCursorLockEb25DisallowCursorLockReasons
dWg:__ZL11decimalLog2P19il2cpp_decimal_repr
qQa:__ZN15ResourceManager10Dependency8TransferI14SafeBinaryReadEEvRT_
aEh:_GC_extend_size_map
Fid:_GenericTypeParameterBuilder_GetCustomAttributes_m386082976
Xcd:_NumberFormatter_RoundDecimal_m2957290908
dz:__ZN4FMOD6System9setDriverEi
rSb:__ZNK9Transform11GetRotationEv
raf:_Array_InternalArray__ICollection_Add_TisSingle_t1397266774_m1873979703_gshared
zCg:__Z54RuntimeInvoker_TimeSpan_t881159249_TimeSpan_t881159249PFvvEPK10MethodInfoPvPS4_
meb:__Z18Transfer_BlittableI24GenerateTypeTreeTransferLb0EyEvRK29SerializationCommandArgumentsR31RuntimeSerializationCommandInfo
y9c:_Math_Max_m1873195862
sua:__ZN8Material14CreateMaterialER6ShaderN6Object9HideFlagsEb
skf:_TimeSpan_get_Minutes_m4278980001_AdjustorThunk
OB:__ZN12AudioManager19RemoveAudioListenerEP13AudioListener
Fka:__Z25GetBuiltinResourceManagerv
kvh:__ZN6il2cpp2gc8GCHandle15GetTargetHandleEP12Il2CppObjectii
Jke:_Int32_System_IConvertible_ToByte_m3832391412
lh:_llvm_trap
jP:__ZNSt3__27__sort5IRNS_6__lessIN12_GLOBAL__N_114ParamNameIndexES3_EEPS3_EEjT0_S7_S7_S7_S7_T_
LHf:_X509Certificate_VerifySignature_m3988463526
xEh:_get_index
vje:_GuidParser_AtEnd_m3409982497
p3e:_KeyBuilder_Key_m876696100
Fha:__Z26scripting_method_get_class18ScriptingMethodPtr
Nbh:__ZN15dense_hashtableINSt3__24pairIK10KeyWrapperINS1_IPK14Il2CppAssemblyP11Il2CppClassEEEjEES9_17ReflectionMapHashIS8_EN14dense_hash_mapIS9_jSD_NS9_14EqualsComparerINS0_8equal_toIS8_EEEENS0_9allocatorISB_EEE9SelectKeyESI_SK_EC2ERKSN_j
z9:__ZN9Scripting11UnityEngine14AnimationCurve12CleanupProxyEv
$Tc:__ZL65__ManagedRegistrationHelperFunction_Internal_SubsystemDescriptorsPv
z8g:__ZN6il2cpp2vm21ThreadPoolCompartment12DetachThreadEP12Il2CppThread
rqd:_SByte_System_IConvertible_ToInt16_m885121451_AdjustorThunk
dwe:_Decimal_stripStyles_m1823381019
mvb:__ZN13GfxDeviceGLES30SetBackBufferColorDepthSurfaceEP17RenderSurfaceBaseS1_
Z8f:__ZL63TexturePlayableOutput_t648497447_CustomAttributesCacheGeneratorP21CustomAttributesCache
wfc:__ZN16StreamedResource8TransferI18StreamedBinaryReadILb0EEEEvRT_
YZb:__ZN15dense_hashtableINSt3__24pairIKiN4core17string_with_labelILi1EEEEEi18SInt32HashFunctionN14dense_hash_mapIiS5_S7_NS0_8equal_toIiEE13stl_allocatorIS6_L18MemLabelIdentifier1ELi16EEE9SelectKeyESA_SD_E12resize_deltaEjj
IZh:_emscripten_glDisableVertexAttribArray__wrapper
Nea:__ZN14SafeBinaryRead21TransferSTLStyleArrayI13dynamic_arrayINSt3__24pairIi12ImmediatePtrIN5Unity9ComponentEEEELj0EEEEvRT_17TransferMetaFlags
P7:__ZN9Scripting11UnityEngine12Experimental10PlayerLoop14Initialization12CleanupProxyEv
Tzc:__ZN22b2IslandDiscreteSolver5SolveEv
Tad:_MonoType_GetAttributeFlagsImpl_m167182975
xre:_Stream_Dispose_m2589290611
Oyd:_EncryptedData_get_EncryptedContent_m3205649670
XIa:__ZN12MeshRenderer18CalculateLocalAABBER4AABBRKS_RK4Mesh
FYb:__ZN21UnityDefaultAllocatorI17LowLevelAllocatorE8AllocateEji
Loa:__ZN14SafeBinaryRead21TransferSTLStyleArrayI13dynamic_arrayI20SphericalHarmonicsL2Lj0EEEEvRT_17TransferMetaFlags
EFg:__Z54RuntimeInvoker_Vector2_t2156229523_Vector3_t3722313464PFvvEPK10MethodInfoPvPS4_
Krb:__ZN10UnityScene10ClearRootsEv
pXa:__ZN12HandlerChain10AtomicMoveER13FileEntryDataS1_
f5a:__ZN9GfxDevice17HasGPUFencePassedEPv
jY:__ZZN15DirectorManager15InitializeClassEvEN48PreLateUpdateDirectorDeferredEvaluateRegistrator7ForwardEv
aKc:__ZN20SpeedTreeWindManager6UpdateEf
Oyc:__ZN7b2World23SolveDiscreteIslandTaskERK10b2TimeStep
oxg:__Z68RuntimeInvoker_Int64_t3736567304_IntPtr_t_MonoIOErrorU26_t1548853198PFvvEPK10MethodInfoPvPS4_
STc:__Z20RegisterModule_WebGLv
ILa:__ZN14CompressedMesh8TransferI19StreamedBinaryWriteILb0EEEEvRT_
Obf:_Array_InternalArray__Insert_TisDouble_t594665363_m675699942_gshared
AUa:__ZN13dynamic_arrayI15ComputeShaderCBLj0EE6assignEPKS0_S3_
qpg:_UnityAction_1_Invoke_m3535252839_gshared
wCh:__ZNK6il2cpp5utils13VmStringUtils21CaseSensitiveComparerclERKNSt3__212basic_stringIcNS3_11char_traitsIcEENS3_9allocatorIcEEEEPKc
RMg:_PatternCompiler_EmitNotCategory_m2023580103
Mna:__ZN24GenerateTypeTreeTransfer8TransferI21PlatformShaderDefinesEEvRT_PKc17TransferMetaFlags
aQa:__ZNK15ResourceManager22GetTypeVirtualInternalEv
tsh:__ZN6il2cpp2vmL36AddNestedTypesToNametoClassHashTableEPK11Il2CppImagePK20Il2CppTypeDefinition
vxf:_PlayerConnection_MessageCallbackInternal_m1914517467
Crf:_AttributeHelperEngine__cctor_m1900959362
tyd:_RSAManaged_EncryptValue_m4149543654
_Jd:_X509SubjectKeyIdentifierExtension_ToString_m12089275
Mpf:_UnhandledExceptionEventArgs__ctor_m224348470
dYb:__ZL16MouseMoveHandleriPK20EmscriptenMouseEventPv
P8e:_Array_InternalArray__IndexOf_TisByte_t1134296376_m929524687_gshared
gLb:__ZN11HaloManager17RenderGeometryJobEP25DynamicVBOGeometryJobDataj
A2e:_BitConverterLE_UShortFromBytes_m1253080092
UZh:_emscripten_glBlendEquation__wrapper
bnh:__ZN15dense_hashtableINSt3__24pairIK10KeyWrapperIP11Il2CppClassES4_EES5_N6il2cpp8metadata16SZArrayClassHashEN14dense_hash_mapIS5_S4_SA_NS5_14EqualsComparerINS9_19SZArrayClassCompareEEENS0_9allocatorIS7_EEE9SelectKeyESE_SG_E13set_empty_keyERKS7_
dPh:__ZNSt3__212basic_stringIcNS_11char_traitsIcEENS_9allocatorIcEEE6__initEPKcj
rj:_emscripten_set_fullscreenchange_callback
Bkd:_PropertyBuilder_IsDefined_m406627924
nNg:_PatternCompiler_NewLink_m3699449496
VJ:__ZN11UnityEngine15CloudWebService14DataDispatcher22ResetNetworkRetryIndexEv
wj:_emscripten_glDrawArrays
REb:__ZZ23InitPlayerLoopCallbacksvEN43EarlyUpdateExecuteMainThreadJobsRegistrator7ForwardEv
yJ:__ZN11UnityEngine15CloudWebService19SessionEventManagerC2Ev
D8d:_Char_System_IConvertible_ToSingle_m2690985411_AdjustorThunk
Bj:_clock_getres
jGd:_DictionaryNodeEnumerator_FailFast_m2494733641
GTc:__ZN13RuntimeStaticI14dynamic_bitsetLb0EE16StaticInitializeEPv
d$:__ZNSt3__222__merge_move_constructIRNS_4lessIN4core12basic_stringIcNS2_20StringStorageDefaultIcEEEEEENS_11__wrap_iterIPS6_EESB_EEvT0_SC_T1_SD_PNS_15iterator_traitsISC_E10value_typeET_
pic:__Z41Register_UnityEngine_Camera_get_eventMaskv
JE:__ZL19CleanupModule_Audiov
fQd:_IntervalCollection_CopyTo_m2976848759
mbh:__ZN6il2cpp2os4File10DeleteFileERKNSt3__212basic_stringIcNS2_11char_traitsIcEENS2_9allocatorIcEEEEPi
d6a:__ZN18GlslGpuProgramGLES25LoadFromBinaryShaderCacheERjRKN4core12basic_stringIcNS1_20StringStorageDefaultIcEEEER17ShaderChannelMaskPKc
kzg:__Z81RuntimeInvoker_Void_t1185182177_Int64_t3736567304_RuntimeObject_Int32_t2950945753PFvvEPK10MethodInfoPvPS4_
bKa:__Z30DrawSpriteBatchedFromNodeQueueRK15RenderNodeQueueRK18RenderMultipleData16VertexInputMasks
qbb:__Z29Transfer_Blittable_ArrayFieldI14SafeBinaryReadiEvRT_R9ArrayInfoRK23StaticTransferFieldInfo
p9g:__ZN6il2cpp6icalls8mscorlib6System8MonoType8GetFieldEP20Il2CppReflectionTypeP12Il2CppStringi
s4g:__ZN15dense_hashtableINSt3__24pairIK10KeyWrapperIN6il2cpp5utils13dynamic_arrayIPK10Il2CppTypeLj4EEEEPFvvEEESA_NS3_8metadata19Il2CppSignatureHashEN14dense_hash_mapISA_SD_SG_NSA_14EqualsComparerINSF_22Il2CppSignatureCompareEEENS0_9allocatorISE_EEE9SelectKeyESK_SM_E5clearEv
FRd:_SHA256Managed_ProcessBlock_m2297835517
wWh:_emscripten_glVertexAttrib3fv__wrapper
g7e:_Array_InternalArray__ICollection_Remove_TisOrderBlock_t1585977831_m1449044465_gshared
hWh:_emscripten_glGetIntegerv__wrapper
kfd:_AssemblyName__ctor_m1753467291
$Fa:__ZN18StreamedBinaryReadILb0EE21TransferSTLStyleArrayI13dynamic_arrayI10Matrix4x4fLj16EEEEvRT_17TransferMetaFlags
Mac:__ZNK28MonoBehaviourPropertyBinding13GetFloatValueERKN11UnityEngine9Animation10BoundCurveE
yHb:__ZL20BlitToStagingTextureP7TextureiS0_i
nGh:_GC_generic_malloc
rJd:_WebHeaderCollection_get_Keys_m910440889
pvb:__ZN13GfxDeviceGLES32CreateDepthRenderSurfacePlatformEP17RenderSurfaceBase17DepthBufferFormat
mae:_ArrayListWrapper_Clear_m2625302714
i_h:_emscripten_glIsTexture__wrapper
_9e:_Array_InternalArray__ICollection_Add_TisDouble_t594665363_m4118067936_gshared
tAd:_CipherSuiteCollection_System_Collections_IEnumerable_GetEnumerator_m3240848888
lze:_Convert_ToUInt64_m1627266664
n1a:__ZN9GfxDevice25ReleaseAsyncCommandHeaderEPN21GfxDeviceAsyncCommand3ArgE
xIf:_X509Crl_Parse_m3164013387
ksb:__Z19InitializeGfxDevicev
eHc:__ZN17Physics2DSettings15InitializeClassEv
ACb:__ZN21UniformBufferTFMethod20IsBoneCountSupportedEi
$zh:__ZN6il2cpp6icalls8mscorlib6System11Environment11get_NewLineEv
IFe:_Enum_System_IConvertible_ToDecimal_m3435237785
f$c:_ResourceReader_CreateResourceInfo_m1818330740
KBd:_ClientSessionInfo_Dispose_m3253728296
jua:__ZN6Shader27MarkShaderStateNotSupportedEPKS_
n3:__ZL55__ManagedRegistrationHelperFunction_DrawShadowsSettingsPv
x3:__ZL52__ManagedRegistrationHelperFunction_GradientAlphaKeyPv
dCb:__ZN25TransformFeedbackSkinning8SkinMeshERK18VertexStreamSourceP9GfxBufferP17GPUSkinPoseBufferS4_ii17ShaderChannelMaskb
Urh:__ZN15dense_hashtableINSt3__24pairIK10KeyWrapperIP14Il2CppIUnknownEjEES5_N6il2cpp5utils11PointerHashIS3_EEN14dense_hash_mapIS5_jSB_NS5_14EqualsComparerINS0_8equal_toIS4_EEEENS0_9allocatorIS7_EEE9SelectKeyESG_SI_E12resize_deltaEjj
R_c:_ResolveEventArgs__ctor_m1455935166
Vlf:_Type_Equals_m1673304139
Gse:_SynchronizedReader_Read_m1388613247
Sgb:__Z22TransferField_NonArrayI19StreamedBinaryWriteILb0EE27Converter_SimpleNativeClassI8GUIStyleEEvRK23StaticTransferFieldInfoR31RuntimeSerializationCommandInfoRT0_
Iqc:__ZN8JSONRead8TransferIN4math12int3_storageEEEvRT_PKc17TransferMetaFlagsb
cGb:__ZN27IntermediateRendererManager29ClearAllIntermediateRenderersEv
Uo:__Z17CalculateGlobalSM23TransformAccessReadOnlyRKN4math7_float4E
NF:__ZN23CloudWebServicesManager23VirtualRedirectTransferER18StreamedBinaryReadILb0EE
ice:_CollectionBase_System_Collections_IList_Contains_m2994901969
hod:__ZN21InterfaceFuncInvoker1IP12Il2CppObject28StreamingContext_t3711869237E6InvokeEjP11Il2CppClassS1_S2_
zl:_emscripten_glLoadIdentity
YVb:__ZNSt3__26vectorINS_4pairIN4core12basic_stringIcNS2_20StringStorageDefaultIcEEEEPK17MessageIdentifierEENS_9allocatorISA_EEE26__swap_out_circular_bufferERNS_14__split_bufferISA_RSC_EEPSA_
jxe:_Convert_ToInt16_m2896657713
TZg:_NativeMethodAttribute_set_HasExplicitThis_m2961870915
UFb:__ZN6Shader16GetDefaultOrNullEv
np:__ZN4AABB8TransferI14SafeBinaryReadEEvRT_
Fuc:__ZN16PhysicsManager2D26GetGameObjectForRaycastHitERK12RaycastHit2D
lMa:__ZN12MeshRenderer23VirtualRedirectTransferER19StreamedBinaryWriteILb0EE
uZa:__ZNK17ArchiveFileSystem9EnumerateEPKcP19dynamic_block_arrayI13FileEntryInfoLj32EEbPPv19FileEnumerationFlag
mzc:__ZN15b2ContactSolver38SolveContinuousPositionConstraintsTaskEii
SXb:__Z11MD5ToStringPh
K7g:__ZN23InterfaceActionInvoker4IixxbE6InvokeEjP11Il2CppClassP12Il2CppObjectixxb
nAc:__ZN7b2WorldaSERKS_
LE:__ZN19AudioSampleProvider7AcquireEjRNS_6HandleE
k5e:_ContentInfo_get_ASN1_m1776225219
bH:__ZN9JSONWrite8TransferIN4core12basic_stringIcNS1_20StringStorageDefaultIcEEEEEEvRT_PKc17TransferMetaFlags
hGa:__ZN10SpriteBone8TransferI19StreamedBinaryWriteILb0EEEEvRT_
Fvc:__ZN24b2ChainAndPolygonContact6CreateEP9b2FixtureiS1_iP16b2BlockAllocator
tye:_Convert_ToSingle_m2533452644
mPh:__ZNSt3__212basic_stringIcNS_11char_traitsIcEENS_9allocatorIcEEE6resizeEjc
pNa:__ZN14PlayerSettings16CheckConsistencyEv
SD:__ZN11AudioModule30GetOrCreateDSPFromCustomFilterEP17AudioCustomFilter
Rm:FUNCTION_TABLE_viiiiiiiiiiiiii
frh:__ZN6il2cpp6icalls8mscorlib6System13GlobalizationL20culture_lcid_locatorEPKvS5_
lTd:_X509Certificate__ctor_m1413707489
Tya:__ZNK12CubemapArray16ExtractImageImplEP14ImageReferenceNS0_8BlitModeEbi
bgc:__ZN10systeminfo24GetSystemLanguageCultureEi
qCc:__ZN16CircleCollider2D5ResetEv
l3a:__ZN9GfxDevice24RequestAsyncReadbackDataEP20GfxAsyncReadbackDataRK27GfxAsyncReadbackRequestDesc
wEg:__Z240RuntimeInvoker_RuntimeObject_Int16_t2552820387_RuntimeObject_Int32_t2950945753_Int32_t2950945753_Int32_t2950945753_SByte_t1669577662_SByte_t1669577662_SByte_t1669577662_SByte_t1669577662_Int16_t2552820387_SByte_t1669577662_SByte_t1669577662PFvvEPK10MethodInfoPvPS4_
CNa:__ZN10VRSettings8TransferI14SafeBinaryReadEEvRT_
e8:__ZN9Scripting11UnityEngine12Experimental18GlobalIllumination11LightDataGI9InitProxyEv
tmf:_Type_IsMarshalByRefImpl_m914778231
qWa:__ZNK17FileSystemHandler10IsReadOnlyERK13FileEntryData
Xce:_Hashtable__ctor_m2302711321
fJe:_InternalEnumerator_1_get_Current_m2100201398_gshared
$Rh:dynCall_viiiiiif
aja:__ZN22PerThreadPageAllocator14AcquireNewPageEj
IYd:_String_ToString_m3872792296
Edb:__Z18Transfer_BlittableI24GenerateTypeTreeTransferLb1E9BoundsIntEvRK29SerializationCommandArgumentsR31RuntimeSerializationCommandInfo
Joe:_FileStream_GetSecureFileName_m449783930
AMb:__ZN6Camera13ClearNoSkyboxEb
U8c:_UnexceptionalStreamWriter_Flush_m82278468
pOe:_InternalEnumerator_1_get_Current_m3911557813_gshared
H3g:__ZNK15dense_hashtableI10KeyWrapperIPK17Il2CppGenericInstES4_N6il2cpp8metadata21Il2CppGenericInstHashEN14dense_hash_setIS4_S7_NS4_14EqualsComparerINS6_24Il2CppGenericInstCompareEEENSt3__29allocatorIS4_EEE8IdentityESB_SE_E12test_deletedEj
swd:_ASN1Convert_FromOid_m3844102704
n7c:_RemotingSurrogate_SetObjectData_m2713731796
F_d:_DecoderReplacementFallbackBuffer_Reset_m3943028589
A7f:__ZL56RenderTexture_t2108887433_CustomAttributesCacheGeneratorP21CustomAttributesCache
lBb:__ZN18GfxFramebufferGLES10InvalidateEv
_za:__ZN4crnd11crnd_deleteINS_13prefix_coding14decoder_tablesEEEvPT_
Shf:_CompressedStack_CreateCopy_m2591279216
QQd:_RSAPKCS1KeyExchangeFormatter_CreateKeyExchange_m1611814432
dO:__ZN10MemoryPoolD2Ev
UJd:_AsnEncodedData_KeyUsageExtension_m1792651780
Lwh:__ZN6il2cpp2os5posix15PosixWaitObjectD2Ev
E4a:__ZN14GfxDeviceStats19EndClientFrameStatsEv
ZNh:___mmap
ave:_DateTime_CoreParse_m428043272
sM:__ZL18InternalLogConsolePKcz
VLe:_InternalEnumerator_1_get_Current_m685192625_gshared
O8c:_UnexceptionalStreamReader_Read_m16956299
o$c:_ResourceReader_ReadValueVer1_m183253382
vS:__Z37scripting_method_get_nth_argumenttype18ScriptingMethodPtri
yA:__ZN11AudioSource16UpdatePauseStateEv
_W:__ZL52StaticUnregisterSceneLoadedCallback_LightmapSettingsPv
Lhc:__Z48Register_UnityEngine_MonoBehaviour_StopCoroutinev
mKh:__ZN6il2cpp5utils25NativeDelegateMethodCache17AddNativeDelegateEPFvvEPK10MethodInfo
GLb:__ZN27DeviceViewProjMatricesStateD2Ev
DAf:_SendMouseEvents__cctor_m2378365934
gmg:_ReadOnlyCollection_1_System_Collections_IList_set_Item_m3582274843_gshared
B_:__ZL39CreateRegisteredMessageIdentifiersArrayPv
pdb:__Z18Transfer_BlittableI24GenerateTypeTreeTransferLb0E8Vector3fEvRK29SerializationCommandArgumentsR31RuntimeSerializationCommandInfo
rLg:__Z86RuntimeInvoker_Boolean_t97287965_DateTimeOffset_t3229287507_DateTimeOffset_t3229287507PFvvEPK10MethodInfoPvPS4_
n$e:_SimpleCollator_FilterExtender_m72900315
Fdg:__ZL61CertificateHandler_t2739891000_CustomAttributesCacheGeneratorP21CustomAttributesCache
Z4e:_SymmetricTransform_CheckInput_m1829858759
LQa:__ZN19StreamedBinaryWriteILb0EE21TransferSTLStyleArrayINSt3__26vectorIN15ResourceManager10DependencyE13stl_allocatorIS5_L18MemLabelIdentifier52ELi16EEEEEEvRT_17TransferMetaFlags
hbd:_Binder_FindMostDerivedMatch_m239579024
yue:_Convert_ToByte_m3824130483
f:HEAPU32
hxa:__ZN6prcoreL10inner_flipILj2EEEvPhS1_j
M5g:__ZN6il2cpp2vm13MetadataCache14GetPointerTypeEP11Il2CppClass
Zwa:__ZNK14Texture2DArray16ExtractImageImplEP14ImageReferenceNS0_8BlitModeEbi
arh:__ZL23get_current_locale_namev
Xmc:__ZN9JSONWrite8TransferIbEEvRT_PKc17TransferMetaFlags
Nca:__ZN12TLSAllocatorI14StackAllocatorED0Ev
$Ec:__ZN19PhysicsJobOptions2D16CheckConsistencyEv
CMa:__ZN11TimeManager16CheckConsistencyEv
OIb:__ZN21GfxDeviceAsyncCommand10ArgScratch15ThreadedCleanupEv
_Dc:__ZN10ClipperLib14IntersectPointERNS_5TEdgeES1_RNS_8IntPointE
sfc:__Z14DoubleToStringd
IZd:_StringComparer_GetHashCode_m2080455020
Qcb:__ZN12NativeBufferI27Converter_UnityEngineObjectE15SetupForWritingER9ArrayInfo
shg:_List_1_CheckCollection_m2118769249_gshared
Td:_glTexImage3D
HE:__Z20RegisterModule_Audiov
doe:_Path_IsPathRooted_m3515805419
ycf:_Array_InternalArray__set_Item_TisChar_t3634460470_m741842250_gshared
eFf:_TlsServerSettings_set_RsaParameters_m853026166
Vth:__ZN6il2cpp2vm5Field22StaticGetValueInternalEP9FieldInfoPvS4_
QAe:_DateTime_AddMilliseconds_m3713972790_AdjustorThunk
gud:_RC2_Create_m2052783340
omf:_Type_GetProperty_m2258969843
ae:_JS_SystemInfo_GetCurrentCanvasWidth
dBh:__ZN6il2cpp8metadataL22FormatGenericArgumentsEPK17Il2CppGenericInst
NGg:__Z133RuntimeInvoker_Int32_t2950945753_Vector2_t2156229523_Vector2_t2156229523_Single_t1397266774_ContactFilter2D_t3805203441_RuntimeObjectPFvvEPK10MethodInfoPvPS4_
k5b:__ZL34GetComponentsImplementationRecurseILb1ELi0ELi1EEbR10GameObjectbRK17CompareParametersRK39GetComponentsImplementation_ReturnValue
ela:__ZNK17InstancingBatcher15RenderInstancesERK15RenderNodeQueuePK17BatchInstanceDataj16VertexInputMasksPFbPvS6_iR11MeshBuffersR16DrawBuffersRangeRiSC_E
jFe:_Double_Equals_m1674752021
fme:_Int64_System_IConvertible_ToUInt64_m2815650160_AdjustorThunk
_Na:__ZN10VRSettings8TransferI18StreamedBinaryReadILb0EEEEvRT_
Uka:__ZN17MeshRenderingData7ReleaseEv
pWa:__ZN22LocalFileSystemHandler4NameEv
CHc:__ZN22WorldContactListener2D12BeginContactEP9b2Contact
kDd:_TlsClientFinished_ProcessAsSsl3_m3094597606
usf:_Camera_get_allCamerasCount_m528453758
Ygb:__Z19TransferField_ArrayI19StreamedBinaryWriteILb0EE27Converter_SimpleNativeClassI8GradientEEvRK23StaticTransferFieldInfoR31RuntimeSerializationCommandInfoRT0_
hHa:__ZNK13ScreenManager12IsFullscreenEv
A0b:__ZN24GenerateTypeTreeTransfer8TransferINSt3__26vectorIN9ShaderLab20SerializedSubProgram15VectorParameterENS1_9allocatorIS5_EEEEEEvRT_PKc17TransferMetaFlags
stc:__ZNK12b2WheelJoint16GetReactionForceEf
H4d:_Array_CreateInstance_m2696293787
agf:_UnicodeEncoding__ctor_m1074918879
ZFa:__ZN7SubMesh8TransferI18StreamedBinaryReadILb0EEEEvRT_
akd:_OpCode_Equals_m1376200488_AdjustorThunk
Ge:_emscripten_glIsEnabled
CR:__Z29scripting_class_instance_size17ScriptingClassPtr
qqc:__Z29Transfer_Blittable_ArrayFieldI8JSONRead5RectTIiEEvRT_R9ArrayInfoRK23StaticTransferFieldInfo
esc:__ZN7b2World12DestroyJointEP7b2Joint
qLg:__Z68RuntimeInvoker_Boolean_t97287965_SByte_t1669577662_SByte_t1669577662PFvvEPK10MethodInfoPvPS4_
YJ:__ZN11UnityEngine15CloudWebService19SessionEventManager26ProcessEventQueueJobStaticEPv
QAf:_StackTraceUtility_ExtractStringFromExceptionInternal_m2686726792
fJ:__ZN11UnityEngine15CloudWebService19SessionEventManager37OnTimerExpiredPerformArchiveJobStaticEPv
Olc:__Z18Transfer_BlittableI9JSONWriteLb1E9BoundsIntEvRK29SerializationCommandArgumentsR31RuntimeSerializationCommandInfo
Y_e:_MSCompatUnicodeTable_FillCJKCore_m2347268515
kQg:_Group_GetWidth_m3299755715
Sof:_UInt64_System_IConvertible_ToDouble_m602078108
XJc:__ZN20QuadTreeNodeRenderer13StaticDestroyEPv
pwe:_Decimal_op_Implicit_m1920400487
fqa:__ZN10builtintex15GetWhiteTextureEv
d7c:_MonoMethodMessage_get_TypeName_m3758247133
Gde:_Enumerator_get_Entry_m2184304359
_Ae:_DateTime_FromBinary_m2489276715
UVg:__ZL10rescale128PyS_Piiiii
zB:__ZN9AudioClip7WWWSeekEPvjS0_
eNf:__ZL63FixedBufferAttribute_t3759792648_CustomAttributesCacheGeneratorP21CustomAttributesCache
vN:__ZL32StaticInitializeIUnityInterfacesPv
tIb:__Z13CameraProjectRK8Vector3fRK10Matrix4x4fS4_RK5RectTIiERS_b
XX:__Z22CreateMutexLockedStackv
dtb:__ZNSt3__27__sort5IRNS_4lessIN22BuiltinResourceManager8ResourceEEEPS3_EEjT0_S7_S7_S7_S7_T_
gdd:_NumberFormatter_FormatNumber_m1763569482
MFb:__ZN9ShaderLab11ShaderStateD2Ev
ufg:_List_1_System_Collections_IList_Add_m1681258361_gshared
hpb:__Z23TransferScriptingObjectI24GenerateTypeTreeTransferEvRT_18ScriptingObjectPtr17ScriptingClassPtrPK15MonoScriptCache
rNg:_PatternLinkStack_GetOffset_m3697714525
Egb:__ZL17Transfer_GUIStyleI19StreamedBinaryWriteILb0EELb0EEvRK29SerializationCommandArgumentsR31RuntimeSerializationCommandInfo
EMb:__ZN10TextureRef4InitEP7Textureb
ape:_MonoIO_GetFileType_m101289143
Jla:__Z19ScheduleJobInternalR8JobFencePFvPvES1_11JobPriority
m7:__ZN9Scripting11UnityEngine12Experimental9Rendering12VisibleLight9InitProxyEv
_Gd:_KeysCollection_get_Count_m3943311735
lsc:__ZN16b2BlockAllocator4FreeEPvi
PKe:_InternalEnumerator_1_get_Current_m2832154098_gshared
k7g:__ZNSt3__211__tree_nextIPNS_16__tree_node_baseIPvEEEET_S5_
fuh:__ZN15dense_hashtableI10KeyWrapperIP18Il2CppGenericClassES3_N6il2cpp8metadata22Il2CppGenericClassHashEN14dense_hash_setIS3_S6_NS3_14EqualsComparerINS5_25Il2CppGenericClassCompareEEENSt3__29allocatorIS3_EEE8IdentityESA_SD_E14squash_deletedEv
k0:__ZN6prcoreL17RemapGenericFloatI17TexFormatRGBAHalf17TexFormatRGBFloatEEvPKNS_9InnerInfoE
Ytg:__Z52RuntimeInvoker_Double_t594665363_Decimal_t2948259380PFvvEPK10MethodInfoPvPS4_
vPe:_InternalEnumerator_1_get_Current_m784835552_gshared
sXh:_pthread_cond_wait__wrapper
K3g:__ZNSt3__26__sortIRN6il2cpp5utils11collections13ArrayValueMapIPK10Il2CppType17Il2CppInteropData26InteropDataToTypeConverterNS1_8metadata14Il2CppTypeLessENSA_26Il2CppTypeEqualityComparerEE12SortComparerEPS8_EEvT0_SH_T_
wTa:__ZN11PreloadDataD2Ev
RSc:__ZN15DownloadHandler14ProcessHeadersERK9HeaderMap
Bb:invoke_iifi
v8d:_Char_System_IConvertible_ToInt16_m975497224_AdjustorThunk
Ttc:__ZNK16b2PrismaticJoint16GetReactionForceEf
SDe:_Delegate_CreateDelegate_m995503480
FYh:_emscripten_glGetObjectParameterivARB__wrapper
Fah:__ZNK6il2cpp5utils10StringViewIcE5RFindEc
Fqa:__ZN15SharedLightData15UpdateTransformERK9Transform
QLh:_playerScript_OnCollisionStay2D_m4168348825
QQf:__ZL49Binder_t2999457153_CustomAttributesCacheGeneratorP21CustomAttributesCache
uzf:_Ray_get_direction_m761601601
v1a:__ZN9GfxDevice24CreateRenderDepthSurfaceE9TextureIDiiii16TextureDimension17DepthBufferFormat18SurfaceCreateFlags
hUb:__ZL30CollectComponentsWithoutAddingR10GameObjectPKN5Unity4TypeE17ScriptingClassPtrR13dynamic_arrayI16AddComponentDataLj0EES9_PN4core12basic_stringIcNSA_20StringStorageDefaultIcEEEE
mu:__ZN18AssetBundleManagerD2Ev
hse:_StreamWriter_Dispose_m2818839127
Yy:__ZN4FMOD6System17setSoftwareFormatEi17FMOD_SOUND_FORMATii18FMOD_DSP_RESAMPLER
kY:__ZZN15DirectorManager15InitializeClassEvEN43PostLateUpdateDirectorLateUpdateRegistrator7ForwardEv
Jg:_JS_SystemInfo_GetCurrentCanvasHeight
oIe:_ArrayReadOnlyList_1_IndexOf_m1911574180_gshared
xNd:_X509EnhancedKeyUsageExtension_CopyFrom_m3750050754
zua:__ZNK8Material22GetTypeVirtualInternalEv
eyh:__ZN6il2cpp2gc16GarbageCollector11GetWeakLinkEPPv
Byh:__GLOBAL__sub_I_Console_cpp
a0:__ZN6prcoreL17RemapGenericFloatI14TexFormatRHalf17TexFormatRGBAHalfEEvPKNS_9InnerInfoE
Kud:_BigInteger_GetBytes_m1259701831
Vah:__ZN6il2cpp2vm7Runtime11InvokeArrayEPK10MethodInfoPvP11Il2CppArrayPP15Il2CppException
aZd:_String_memcpy_m2826223007
oCf:_RijndaelManaged_CreateDecryptor_m1421727258
A2a:__ZN9GfxDevice15BeginFrameStatsEv
Mff:_StringBuilder_Replace_m1682610486
OAb:__ZN4gles20EnsureTextureCreatedEP7ApiGLESP17RenderSurfaceGLES
U9:__ZN9Scripting5Unity11Collections8LowLevel6Unsafe48NativeDisableContainerSafetyRestrictionAttribute9InitProxyEv
cJb:__ZN15ReplacementPass13PrepareSubsetEjRK10RenderNodeifRK17ShaderReplaceData
Zz:__Z32AudioMeasurement_GetTimeConstantff
AQf:__ZL58UnmanagedMarshal_t984015687_CustomAttributesCacheGeneratorP21CustomAttributesCache
FBh:__ZN6il2cpp8metadata11FieldLayout12LayoutFieldsEjjjRKNSt3__26vectorIPK10Il2CppTypeNS2_9allocatorIS6_EEEERNS1_15FieldLayoutDataE
$Xa:__ZNK20LocalFileSystemPosix9EnumerateEPKcP19dynamic_block_arrayI13FileEntryInfoLj32EEbPPv19FileEnumerationFlag
jXc:_MethodInfo_MakeGenericMethod_m1996785325
I3c:_Context_get_HasGlobalDynamicSinks_m3672814609
fMg:_Match__ctor_m2464595873
xRb:__ZL27PrepareSceneNodesJobCombineP25ScheduleSceneNodesJobData
aIf:_X509CertificateEnumerator_Reset_m1825523691
E9a:__Z22TransferField_NonArrayI14SafeBinaryRead27Converter_SimpleNativeClassI8GUIStyleEEvRK23StaticTransferFieldInfoR31RuntimeSerializationCommandInfoRT0_
ohh:__ZN14dense_hash_mapI10KeyWrapperIPK10Il2CppTypeEjN6il2cpp8metadata14Il2CppTypeHashENS4_14EqualsComparerINS6_26Il2CppTypeEqualityComparerEEENSt3__29allocatorINSB_4pairIKS4_jEEEEEC2EjRKS7_RKSA_
fub:__ZN13GfxDeviceGLESD2Ev
GZb:__ZNSt3__26vectorIN9ShaderLab26SerializedShaderDependencyENS_9allocatorIS2_EEE6resizeEj
RX:__ZN18AsyncUploadManager13StaticDestroyEPv
QKc:__ZN9Scripting11UnityEngine4Font9InitProxyEv
hZb:__ZN6Shader7SetNameEPKc
Cwe:_Convert_ToDouble_m954895424
oVb:__ZN19CustomRenderTexture22HandleBoundaryWrappingERKNS_14UpdateZoneInfoEj
Py:__ZL50UnityAudioEffect_InternalSetFloatParameterCallbackP14FMOD_DSP_STATEif
BDc:__ZN10ClipperLib7Clipper16DoSimplePolygonsEv
e7g:__ZN6il2cpp2vm13MetadataCache32GenerateCustomAttributeTypeCacheEi
LWd:_Single_Equals_m438106747
bmf:_Type_GetTypeCodeInternal_m1968182887
_$c:_RuntimeResourceSet__ctor_m2765575100
Z1b:__ZN9ShaderLab9SubShader31UpdateLightModeToPassIndexTableEv
aDd:_TlsClientCertificate_ProcessAsSsl3_m3265529850
mdd:_NumberFormatter_Multiply10_m1733956269
UZd:_ASCIIEncoding_GetChars_m2543669481
r1e:_BigInteger_IsProbablePrime_m567194283
XWe:_Dictionary_2_System_Collections_IDictionary_Remove_m3518952519_gshared
RVd:_SecurityFrame_InitFromRuntimeFrame_m1714852458_AdjustorThunk
ujd:_MethodBuilder_GetCustomAttributes_m731278908
RAg:__Z51RuntimeInvoker_Single_t1397266774_Double_t594665363PFvvEPK10MethodInfoPvPS4_
ei:_glClearDepthf
vqa:__ZN19RuntimeSceneManager14GetActiveSceneEv
etb:__ZNSt3__218__insertion_sort_3IRNS_4lessIN22BuiltinResourceManager8ResourceEEEPS3_EEvT0_S7_T_
Ej:___cxa_begin_catch
qah:__ZN6il2cpp6icalls8mscorlib6SystemL8IsStaticEPK9EventInfo
RSf:__ZL49_Module_t135161706_CustomAttributesCacheGeneratorP21CustomAttributesCache
BPb:__ZNSt3__27__sort4IR15ReflProbeSorterPP15ReflectionProbeEEjT0_S6_S6_S6_T_
Tma:__ZN16GraphicsSettings10SmartResetEv
F3b:__ZN19StreamedBinaryWriteILb0EE4InitE24TransferInstructionFlags20BuildTargetSelection
Wpe:_FileStream_Flush_m948103572
F_g:__ZN15dense_hashtableINSt3__24pairIK10KeyWrapperIPK22Il2CppGenericParameterEP11Il2CppClassEES6_N6il2cpp5utils11PointerHashIS4_EEN14dense_hash_mapIS6_S9_SE_NS6_14EqualsComparerINS0_8equal_toIS5_EEEENS0_9allocatorISA_EEE9SelectKeyESJ_SL_E9copy_fromERKSO_j
x2e:_ASN1Convert_ToInt32_m254930636
jOa:__ZN26PlayerSettingsSplashScreen16CheckConsistencyEv
wpa:__ZN20SphericalHarmonicsL28TransferI19StreamedBinaryWriteILb0EEEEvRT_
upf:_UInt64_ToString_m1529093114
$Fc:__ZN16PhysicsManager2D45UnregisterTransformChangeInterestForRigidbodyEP11Rigidbody2D
FO:__ZL33TransformAccessArray_CleanupClassPv
e4d:_Array_GetLength_m2178203778
Kvf:_Input_GetMouseButtonDown_m2081676745
Kje:_Int16_System_IConvertible_ToDouble_m1661805412_AdjustorThunk
VLa:__ZN4Mesh14UploadMeshDataEb
Lpb:__ZN18ScreenManagerWebGL17RestoreCursorLockEv
sbc:__ZN14RenderSettings12CleanupClassEv
rC:__ZN21AudioScriptingClasses26InvokeOnAudioManagerUpdateEP21ScriptingExceptionPtr
s4a:__ZN18AsyncUploadManager15DoDeCruncherJobEP26FileAssetUploadInstruction
p2a:__ZN9GfxDevice15ImmediateNormalEfff
eBf:_Enumerator__ctor_m1351041375
Yhf:_CompressedStack_IsEmpty_m1305135551
DHa:__ZN9Texture3D23VirtualRedirectTransferER14SafeBinaryRead
d$b:__ZNSt3__26vectorIN9ShaderLab20SerializedSubProgram16TextureParameterENS_9allocatorIS3_EEE8__appendEj
UHf:_X509CertificateCollection_Contains_m743657353
X9e:_Array_InternalArray__ICollection_Add_TisSlot_t384495010_m3656484468_gshared
hBa:__ZN9Texture2D13UploadTextureEi
$zb:__ZN7ApiGLES9MapBufferEjN2gl12BufferTargetEllj
Zy:__ZN4FMOD6System19setSoftwareChannelsEi
J3a:__ZN9GfxDevice19SetSinglePassStereoE16SinglePassStereo
hKa:__Z36AddDefaultStreamsToMeshBuffersSpriteR9GfxDeviceR11MeshBuffersj17ShaderChannelMaskS3_b
cVf:__ZL93X509Certificate_t713131622_CustomAttributesCacheGenerator_X509Certificate_GetName_m1060481339P21CustomAttributesCache
zQh:_bitshift64Lshr
lla:__Z40BuildSingleStreamChannelInfoWithDefaultsP11ChannelInfoRK20VertexChannelsLayout17ShaderChannelMaskS4_S4_
ade:_Hashtable_System_Collections_IEnumerable_GetEnumerator_m2751657639
zic:__Z62ScriptableObject_CUSTOM_CreateScriptableObjectInstanceFromTypeP12Il2CppObject
a6c:_HeaderHandler_Invoke_m3513051789
Yug:__Z144RuntimeInvoker_RuntimeObject_RuntimeObject_Int32_t2950945753_RuntimeObject_RuntimeObject_RuntimeObject_RuntimeObject_RuntimeObject_RuntimeObjectPFvvEPK10MethodInfoPvPS4_
Mlf:_Type_get_IsPointer_m4067542339
Irf:_Component__ctor_m1928064382
PRh:dynCall_viiiii
aRb:__Z59ProcessShadowCasterNodeVisibilityAndCullWithoutUmbra_KernelILN17CullingParameters9LayerCullE1ELi12EEvR9IndexListRK22SceneCullingParametersPK9SceneNodePK4AABBjjPKN4math7_float4E
uBd:_Context_get_Protocol_m1078422015
nic:__Z44Register_UnityEngine_Camera_get_farClipPlanev
Yoa:__ZNSt3__26vectorINS_4pairI7Hash128iEE13stl_allocatorIS3_L18MemLabelIdentifier82ELi16EEE8__appendEj
mq:__Z25InverseTransformDirection23TransformAccessReadOnlyRKN4math7_float3Eb
vE:__ZNK12AudioManager15GetDSPBlockSizeEv
lL:__ZN13RuntimeStaticINSt3__28multimapIj25DeferredSkinningOperationNS0_4lessIjEENS0_9allocatorINS0_4pairIKjS2_EEEEEELb0EE13StaticDestroyEPv
$xa:__ZN13StreamingInfo8TransferI14SafeBinaryReadEEvRT_
hwh:__ZN6il2cpp2gc16GarbageCollector14GetOrCreateCCWEP12Il2CppObjectRK10Il2CppGuid
pth:__ZN6il2cpp2vm5Image21FromTypeNameParseInfoEPK11Il2CppImageRKNS0_17TypeNameParseInfoEb
pad:_MonoCustomAttrs_IsDefined_m2996012389
lxb:__ZN17BufferManagerGLES13AcquireBufferEjN14DataBufferGLES11BufferUsageEb
Gxe:_Decimal__ctor_m3650533794
fTd:_TripleDESTransform_GetStrongKey_m292426577
iQc:__ZN16UnityAdsSettingsD0Ev
pzb:__ZNK7ApiGLES10DebugLabelEN2gl10ObjectTypeEjPKc
Xdf:_Dictionary_2_Do_CopyTo_TisRuntimeObject_TisRuntimeObject_m976542334_gshared
F6:__ZN9Scripting11UnityEngine9Matrix4x412CleanupProxyEv
zoe:_DirectoryNotFoundException__ctor_m4004339866
jQh:__ZNK10__cxxabiv121__vmi_class_type_info16search_below_dstEPNS_19__dynamic_cast_infoEPKvib
$Gc:__ZZN11Rigidbody2D15InitializeClassEvEN35FunctorImpl_171kAnimatorMoveBuiltin4CallEPviR11MessageData
Lnd:_ObjectReader_ReadObjectGraph_m1689734232
Jwf:_MonoBehaviour_StopCoroutine_m907039165
vkh:_il2cpp_class_has_attribute
d3e:_DSAManaged_get_KeySize_m2738463749
qt:__ZN14SafeBinaryRead21TransferSTLStyleArrayI13dynamic_arrayIjLj0EEEEvRT_17TransferMetaFlags
_R:__Z27FindOrCreateMonoScriptCache17ScriptingClassPtr22InitScriptingCacheTypeP6Objecti
gHc:__Z23CleanupPhysicsManager2Dv
Dkb:__Z18Transfer_BlittableI18StreamedBinaryReadILb0EELb1E8Vector3fEvRK29SerializationCommandArgumentsR31RuntimeSerializationCommandInfo
oge:_CultureInfo_GetFormat_m732021304
qS:__Z35scripting_method_get_argument_count18ScriptingMethodPtr
cAg:__Z46RuntimeInvoker_RuntimeObject_Double_t594665363PFvvEPK10MethodInfoPvPS4_
U_d:_EncoderReplacementFallback__ctor_m2980727890
_9d:_ArrayList_Synchronized_m1327684267
$Wc:_MethodBase_get_IsPublic_m2180846589
hpe:_FileStream_get_CanWrite_m1199612770
BRb:__ZL21CullDynamicObjectsJobP14CullingJobDataj
_Vc:_TypeBuilder_get_IsGenericParameter_m1751799710
DAc:__ZN35b2SolvePositionJointConstraintsTask9QueueTaskERK8JobFence
PVb:__ZN14ManagerContext17InitializeClassesEv
oJ:__ZNSt3__26__treeINS_12__value_typeIN19CloudServiceHandler11ServiceTypeEPS2_EENS_19__map_value_compareIS3_S5_NS_4lessIS3_EELb1EEE13stl_allocatorIS5_L18MemLabelIdentifier88ELi16EEE25__emplace_unique_key_argsIS3_JRKNS_21piecewise_construct_tENS_5tupleIJRKS3_EEENSI_IJEEEEEENS_4pairINS_15__tree_iteratorIS5_PNS_11__tree_nodeIS5_PvEEiEEbEERKT_DpOT0_
Au:__ZN19StreamedBinaryWriteILb0EE21TransferSTLStyleArrayINSt3__26vectorI14ConstantStringNS2_9allocatorIS4_EEEEEEvRT_17TransferMetaFlags
Sib:__ZN18StreamedBinaryReadILb1EE21TransferSTLStyleArrayI31ArrayOfManagedObjectsTransfererEEvRT_17TransferMetaFlags
xbd:_MonoType_get_AssemblyQualifiedName_m2662925380
xQd:_RSACryptoServiceProvider__ctor_m2288290917
Cud:_BigInteger_GenerateRandom_m3872771375
FLg:__Z75RuntimeInvoker_RuntimeObject_Single_t1397266774_RuntimeObject_RuntimeObjectPFvvEPK10MethodInfoPvPS4_
zx:__ZN4FMOD7Channel11getUserDataEPPv
D3e:_KeyPairPersistence_ProtectMachine_m1313131097
fye:_Convert_ToSByte_m1679390684
Nl:_JS_Sound_SetPitch
Rif:_Thread_FreeLocalSlotValues_m1195763560
GVd:_String_IndexOf_m1977622757
jlh:_il2cpp_runtime_invoke_convert_args
Xpc:__Z19TransferField_ArrayI8JSONRead27Converter_SimpleNativeClassI10RectOffsetEEvRK23StaticTransferFieldInfoR31RuntimeSerializationCommandInfoRT0_
dwg:__Z114RuntimeInvoker_Int32_t2950945753_RuntimeObject_Int32_t2950945753_Int32_t2950945753_RuntimeObject_Int32_t2950945753PFvvEPK10MethodInfoPvPS4_
u9d:_ArrayList__cctor_m3052737821
yT:__ZN4core8hash_mapIiP4RTTIN11TypeManager27HashFunctorPersistentTypeIDENSt3__28equal_toIiEEE6insertERKiRKS2_
Zoh:__ZN6il2cpp6icalls8mscorlib6System2IO6MonoIO11GetFileStatEP12Il2CppStringPNS3_8FileStatEPi
_2a:__ZN9GfxDevice33InsertCustomMarkerCallbackAndDataEPFviPvEiS0_j
eJb:__ZNK9ShaderLab9IntShader6GetTagE11ShaderTagIDb
Ibe:_BitArray_Set_m2486900776
p8:__ZN9Scripting11UnityEngine8EnumInfo12CleanupProxyEv
Bpa:__ZN11Tetrahedron8TransferI19StreamedBinaryWriteILb0EEEEvRT_
fXd:_String__ctor_m229724522
MQf:__ZL54AssemblyName_t270931938_CustomAttributesCacheGeneratorP21CustomAttributesCache
wsa:__ZNK13RenderTexture37IsBoundMultisampledOnSecondaryTextureEv
oEh:_GC_freehblk
SEf:_X509ExtensionCollection__ctor_m551870633
l8b:__ZZL31RegisterRectTransformPropertiesR22GenericPropertyBindingEN32Wrapper_RectTransformAnchorMinx013GetFloatValueEPv
Bjd:_MethodBuilder_MakeGenericMethod_m2175748754
cLb:__Z28RenderSceneShaderReplacementRK13dynamic_arrayI16RenderObjectDataLj0EERK19SharedRendererSceneP6ShaderRKN4core12basic_stringIcNS9_20StringStorageDefaultIcEEEER17ShaderPassContext
CNg:_QuickSearch_Search_m3063517397
uXe:_Dictionary_2_TryGetValue_m1996088172_gshared
hd:_glClearColor
hSg:_KeyBuilder_Key_m2503211157
S5d:_AsyncCallback_Invoke_m3156993048
BSb:__ZNK6Camera48AreVRStereoViewMatricesWithinSingleCullToleranceEv
IXh:_glGetRenderbufferParameteriv__wrapper
e5e:_SymmetricTransform_FinalDecrypt_m1677319445
lle:_Int32_Equals_m3996243976_AdjustorThunk
F0b:__ZN24GenerateTypeTreeTransfer8TransferINSt3__26vectorIN9ShaderLab20SerializedSubProgram12UAVParameterENS1_9allocatorIS5_EEEEEEvRT_PKc17TransferMetaFlags
Sb:invoke_iiiiiiiiiiiiiii
Zyh:__ZN6il2cpp2os6Thread33UnregisterCurrentThreadForCleanupEv
k_h:_emscripten_glIsRenderbuffer__wrapper
voe:_DirectoryInfo__ctor_m1000259829
Zee:_CultureInfo_ConstructInvariant_m3774343375
iHb:__ZN10Instancing10SetKeywordER16ShaderKeywordSetNS_7KeywordE
MBa:__ZN15QualitySettings8TransferI14SafeBinaryReadEEvRT_
S4d:_Array_ClearInternal_m532048538
JCf:_RIPEMD160Managed_HashCore_m2350629432
Kve:_DateTime__ctor_m12900168
def:_Array_FindLast_TisRuntimeObject_m1088586648_gshared
OLc:__ZN9Scripting11UnityEngine14RemoteSettings12CleanupProxyEv
Osf:_CullingGroup_t2096318768_marshal_pinvoke_back
Ath:__ZNSt3__26vectorIN6il2cpp2vm5Image20EmbeddedResourceDataENS_9allocatorIS4_EEE21__push_back_slow_pathIS4_EEvOT_
wJh:__ZN6il2cpp2os9FastMutexD2Ev
jR:__ZN14SerializedFile10ReadObjectEx18ObjectCreationModebPPK8TypeTreePbR6Object
IPg:_Expression_GetFixedWidth_m945658
nQg:_Literal_Compile_m2228022079
htb:__ZN14dynamic_bitset6resizeEjb
K5e:_Array_InternalArray__ICollection_Contains_TisSlot_t3975888750_m58971838_gshared
yH:__ZN11UnityEngine15CloudWebService10RestClientINS0_23WebRequestRestHeaderMapEE7SetDataEPKhj
X0g:__ZN14dense_hash_mapI10KeyWrapperIPK11Il2CppClassEPKcN6il2cpp5utils11PointerHashIS1_EENS4_14EqualsComparerINSt3__28equal_toIS3_EEEENSC_9allocatorINSC_4pairIKS4_S6_EEEEE15set_deleted_keyERSI_
v0a:__ZN9GfxDevice34SetStencilRefWhenStencilWasSkippedEi
oLd:_X509Certificate2_Reset_m3988214799
Rb:invoke_fi
wIh:__ZN6il2cpp6icalls8mscorlib6System10Reflection4Emit11TypeBuilder20create_runtime_classEP27Il2CppReflectionTypeBuilderS7_
rM:__ZL21InternalAssertConsolePKcz
Pb:invoke_ff
x4e:_RSAManaged_add_KeyGenerated_m3688329863
zTe:_Enumerator_get_CurrentKey_m3735262888_gshared
Xsd:_HashAlgorithm_TransformFinalBlock_m3005451348
jje:_Guid_NewGuid_m923091018
ad:_emscripten_glVertexAttrib3f
weh:__ZN30dense_hashtable_const_iteratorINSt3__24pairIK10KeyWrapperINS1_IPK11Il2CppImageP11Il2CppClassEEEjEES9_17ReflectionMapHashIS8_EN14dense_hash_mapIS9_jSD_NS9_14EqualsComparerINS0_8equal_toIS8_EEEENS0_9allocatorISB_EEE9SelectKeyESI_SK_EppEv
_Qd:_RSAPKCS1SignatureDeformatter_SetKey_m614724234
CBc:__ZN35b2SolveDiscreteIslandVelocitiesTask7TaskJobEPS_j
fgf:_UnicodeEncoding_GetByteCount_m3498858619
Yif:_Thread_GetSerializedCurrentUICulture_m3681656498
_6e:_Array_InternalArray__ICollection_Remove_TisX509ChainStatus_t133602714_m3635989134_gshared
MTh:_emscripten_glDrawRangeElements__wrapper
OAc:__ZN39b2SolveDiscreteIslandIntegratePosesTask9QueueTaskERK8JobFence
Gha:__Z28scripting_class_is_valuetype17ScriptingClassPtr
I5:__ZN9Scripting11UnityEngine9Rendering13CommandBuffer9InitProxyEv
lYb:__ZNSt3__25dequeI10InputEventNS_9allocatorIS1_EEE19__add_back_capacityEv
_La:__ZN14BlendShapeDataD2Ev
Czb:__ZL18ProgramUniform3uivPK7ApiGLESjiihPKv
ACf:_RijndaelTransform_Encrypt128_m1940909042
Ead:_MonoEnumInfo_get_Cache_m752167006
KAa:__ZN5Image8SetImageEii13TextureFormatb
HS:__ZN17MessageIdentifier21GetRegisteredMessagesEv
QVg:_Rigidbody2D_AddForce_m1113499586
exh:__ZN6il2cpp2vm5Array3NewEP11Il2CppClassj
dMe:_InternalEnumerator_1_get_Current_m3900374024_gshared
KLg:_DelegatePInvokeWrapper_CostDelegate_t1722821004
rbe:_SynchronizedArrayListWrapper_CopyTo_m2886332653
dGd:_HybridDictionary_Remove_m2295600623
nsh:__GLOBAL__sub_I_Image_cpp
$Rd:_SHA512Managed__ctor_m330347986
Zva:__ZNSt3__27__sort5IRPFbRKNS_4pairIN9ShaderLab16FastPropertyNameEfEES6_EPS4_EEjT0_SB_SB_SB_SB_T_
e1e:_Kernel_LeftShift_m3302851050
vAh:__ZN14dense_hash_mapI10KeyWrapperIPK19Il2CppGenericMethodEP10MethodInfoN6il2cpp8metadata23Il2CppGenericMethodHashENS4_14EqualsComparerINS8_26Il2CppGenericMethodCompareEEENSt3__29allocatorINSD_4pairIKS4_S6_EEEEE15set_deleted_keyERSG_
Yab:__Z29Transfer_Blittable_ArrayFieldI14SafeBinaryRead4AABBEvRT_R9ArrayInfoRK23StaticTransferFieldInfo
xqc:__ZN8JSONRead21TransferSTLStyleArrayI13dynamic_arrayI8Vector4fLj0EEEEvRT_17TransferMetaFlags
qEd:_RecordProtocol_SendRecord_m515492272
S2c:_ConfigHandler_ReadProvider_m3620509535
Bwa:__ZN18DelayedCallManager8ClearAllEv
Btg:__Z180RuntimeInvoker_RuntimeObject_RuntimeObject_Int32_t2950945753_RuntimeObject_Int32U26_t1369213839_BooleanU26_t4125257963_BooleanU26_t4125257963_Int32U26_t1369213839_SByte_t1669577662PFvvEPK10MethodInfoPvPS4_
cQb:__ZNK25RenderPrePassObjectSorterclERK16RenderObjectDataS2_
P$c:_ResourceSet_Dispose_m1823973062
bjb:__Z22TransferField_NonArrayI18StreamedBinaryReadILb1EE27Converter_SimpleNativeClassI8GUIStyleEEvRK23StaticTransferFieldInfoR31RuntimeSerializationCommandInfoRT0_
Qd:_Mix_LoadWAV_RW
Pxd:_EncryptedPrivateKeyInfo__ctor_m25839594
YAb:__Z13IsFloatFormat14GraphicsFormat
rjd:_MethodBuilder_Invoke_m3837446660
fvh:__ZN6il2cpp2gcL12alloc_handleEPNS0_10HandleDataEP12Il2CppObjectb
vXh:_emscripten_glGetAttribLocation__wrapper
VLg:_Enumerator_MoveNext_m55255603
DJd:_WebRequest_AddDynamicPrefix_m4246631209
M_h:b98
JT:__ZL16ReadTypeTreeImplILb1EEbR8TypeTreeRK16TypeTreeIteratorRPKhS6_i
dJh:__ZN6il2cpp6icalls8mscorlib6System11Diagnostics10StackTrace9get_traceEP15Il2CppExceptionib
pHe:_Action_3_Invoke_m1376317295_gshared
ge:_glBlendEquationSeparate
Xl:_emscripten_glDeleteVertexArrays
rwb:__ZN13GfxDeviceGLES17SetComputeUniformE12ObjectHandleI18ComputeProgram_TagPvER18ComputeShaderParamjPKv
J_h:b95
xOg:_Parser_IsNameChar_m698176442
vhg:_List_1_RemoveAt_m3459335427_gshared
AZh:_emscripten_glValidateProgram__wrapper
Qic:__Z35Renderer_CUSTOM_get_bounds_InjectedP12Il2CppObjectR4AABB
bGf:_GeneralNames_ToString_m489778282
ne:_emscripten_glUniform3fv
r6e:_Array_InternalArray__ICollection_Contains_TisRaycastHit2D_t2279581989_m2733133723_gshared
Eue:_Convert_ToByte_m1442000130
zQd:_RSACryptoServiceProvider_get_KeySize_m2654153358
Uph:__ZN6il2cpp2vm9Exception20GetArgumentExceptionEPKcS3_
irc:__Z29Transfer_Blittable_ArrayFieldI8JSONReadiEvRT_R9ArrayInfoRK23StaticTransferFieldInfo
HXh:_glDrawArrays__wrapper
lE:__ZN9AudioClip27IsFormatSupportedByPlatformERKN4core12basic_stringIcNS0_20StringStorageDefaultIcEEEE
o5a:__ZN16GeometryJobTasks20ScheduleGeometryJobsER9GfxDevicePFvP15GeometryJobDataEPK22GeometryJobInstructionjb
s0b:__ZN9ShaderLab26SerializedShaderDependency8TransferI24GenerateTypeTreeTransferEEvRT_
nxh:__ZN13Il2CppHashMapIPcS0_N6il2cpp5utils15PassThroughHashIS0_EENSt3__28equal_toIS0_EENS5_9allocatorINS5_4pairIK10KeyWrapperIS0_ES0_EEEEEC2EjRKS4_RKS7_
hNg:_PatternCompiler_EmitUntil_m3644194775
M3e:_KeyPairPersistence_ToXml_m812591779
bbd:_MonoType_GetFields_internal_m776921855
gnf:_UInt16_System_IConvertible_ToInt64_m3635199533
k$c:_ResourceReader_Dispose_m3597121875
nha:__ZN12ImageFilters17RemoveImageFilterERK11ImageFilter
Krf:_BootConfigData__ctor_m4255151374
uJe:_InternalEnumerator_1_get_Current_m3073360606_AdjustorThunk
_Ch:__ZThn4_N6il2cpp2vm13ManagedObject14QueryInterfaceERK10Il2CppGuidPPv
$2a:__ZN9GfxDevice31InsertCustomBlitCallbackAndDataEPFviPvER33UnityRenderingExtCustomBlitParams
_Db:__Z32AddPathRemapsForBuiltinResourcesRKN4core12basic_stringIcNS_20StringStorageDefaultIcEEEE
Opa:__ZN14RenderSettings23VirtualRedirectTransferER24GenerateTypeTreeTransfer
ocb:__ZL26Transfer_SimpleNativeClassI17RemapPPtrTransfer17AnimationCurveTplIfELb0EEvRK29SerializationCommandArgumentsR31RuntimeSerializationCommandInfo
Zl:_glDeleteTransformFeedbacks
vng:_U3CCreateWhereIteratorU3Ec__Iterator1D_1_MoveNext_m612748497_gshared
Te:_JS_WebRequest_Send
hDh:__ZN6il2cpp2os4Time31GetTicks100NanosecondsMonotonicEv
Xzh:__ZNSt3__26__treeINS_12basic_stringIcNS_11char_traitsIcEENS_9allocatorIcEEEENS_4lessIS6_EENS4_IS6_EEE16__construct_nodeIJRKS6_EEENS_10unique_ptrINS_11__tree_nodeIS6_PvEENS_22__tree_node_destructorINS4_ISH_EEEEEEDpOT_
uoe:_MonoIO_GetFileSystemEntries_m37351365
gye:_Convert_ToSByte_m516918950
Pwf:_MonoBehaviour_print_m330341231
Pzf:_ReapplyDrivenProperties_Invoke_m1151937880
zCf:_RijndaelTransform_ECB_m670662322
g7g:__ZN6il2cpp2vm13MetadataCache21GetFieldInfoFromIndexEj
tF:__ZN5physx14PxLightCpuTaskD2Ev
Rp:__ZNSt3__26vectorIN4core12basic_stringIcNS1_20StringStorageDefaultIcEEEENS_9allocatorIS5_EEE6assignINS_11__wrap_iterIPS5_EEEENS_9enable_ifIXaasr21__is_forward_iteratorIT_EE5valuesr16is_constructibleIS5_NS_15iterator_traitsISE_E9referenceEEE5valueEvE4typeESE_SE_
Mjh:_il2cpp_init
xyg:__Z105RuntimeInvoker_RuntimeObject_RuntimeObject_StreamingContext_t3711869237_ISurrogateSelectorU26_t3801502798PFvvEPK10MethodInfoPvPS4_
Owc:__Z20b2TestSegmentSegmentRK6b2Vec2S1_S1_S1_RS_Rf
aLb:__ZL25UpdateCameraDepthTexturesRK17RenderLoopContextP13RenderTextureS3_RK13dynamic_arrayI16RenderObjectDataLj0EEbbbR17ShaderPassContext
vvb:__ZN13GfxDeviceGLES22UploadTextureSubData2DE9TextureIDPKhiiiiii14GraphicsFormat
dAf:_Scene_get_name_m622963475
Apc:__ZN8JSONRead8TransferIxEEvRT_PKc17TransferMetaFlagsb
cKc:__ZN13SpeedTreeWind7AdvanceEbd
qKe:_InternalEnumerator_1_get_Current_m923139215_AdjustorThunk
t4g:__ZN15dense_hashtableINSt3__24pairIK10KeyWrapperIN6il2cpp5utils13dynamic_arrayIPK10Il2CppTypeLj4EEEEPFvvEEESA_NS3_8metadata19Il2CppSignatureHashEN14dense_hash_mapISA_SD_SG_NSA_14EqualsComparerINSF_22Il2CppSignatureCompareEEENS0_9allocatorISE_EEE9SelectKeyESK_SM_E12expand_arrayEjN21dense_hash_map_traits17integral_constantIbLb0EEE
A8e:_Array_FindLastIndex_TisRuntimeObject_m2929523835_gshared
ydh:__ZN15dense_hashtableINSt3__24pairIK10KeyWrapperINS1_IPK10MethodInfoP11Il2CppClassEEEjEES9_17ReflectionMapHashIS8_EN14dense_hash_mapIS9_jSD_NS9_14EqualsComparerINS0_8equal_toIS8_EEEENS0_9allocatorISB_EEE9SelectKeyESI_SK_E15insert_noresizeERKSB_
sbf:_Array_InternalArray__ICollection_CopyTo_TisOrderBlock_t1585977831_m3156935870_gshared
TYb:__ZN10BootConfig4Data12InitFromFileEPPKcjS2_
Drc:__ZL62__ManagedRegistrationHelperFunction_ParticleSystemVertexStreamPv
Fy:__ZN12SoundManagerC2Ev
oYh:_emscripten_glGetUniformfv__wrapper
Yzb:__ZN14DataBufferGLES3MapEjjj
Jje:_Int16_System_IConvertible_ToDouble_m1661805412
hJa:__ZN14SpriteRenderer23VirtualRedirectTransferER19StreamedBinaryWriteILb0EE
Y1:__ZL77__ManagedRegistrationHelperFunction_NativeContainerIsAtomicWriteOnlyAttributePv
PQg:_Repetition_Compile_m988726715
Lva:__ZN18UnityPropertySheet11UnityTexEnv8TransferI19StreamedBinaryWriteILb0EEEEvRT_
Yfa:__ZNK6Camera33CalculateFarPlaneWorldSpaceLengthEv
HGh:_GC_make_descriptor
ueh:__ZNK15dense_hashtableINSt3__24pairIK10KeyWrapperINS1_IPK11Il2CppImageP11Il2CppClassEEEjEES9_17ReflectionMapHashIS8_EN14dense_hash_mapIS9_jSD_NS9_14EqualsComparerINS0_8equal_toIS8_EEEENS0_9allocatorISB_EEE9SelectKeyESI_SK_E5beginEv
rq:__ZL60__ManagedRegistrationHelperFunction_MeshReconstructionConfigPv
IXe:_DefaultComparer_Equals_m1163494476_gshared
mT:__ZN20dynamic_block_vectorI14FileIdentifierE5clearEv
Ddd:_NumberFormatter_NumberToString_m2529982306
AB:__ZN13AudioListenerD2Ev
pJh:__ZN6il2cpp2os5MutexC2Eb
UGf:_PKCS12__cctor_m3271060407
bxc:__Z16b2CollideCirclesP10b2ManifoldPK13b2CircleShapeRK11b2TransformS3_S6_
Kwd:_ARC4Managed_CheckInput_m1562172012
GBa:__ZNK15QualitySettings22GetTypeVirtualInternalEv
EEf:_TlsStream_ReadBytes_m2334803179
Guh:__ZNK15dense_hashtableI10KeyWrapperIP18Il2CppGenericClassES3_N6il2cpp8metadata22Il2CppGenericClassHashEN14dense_hash_setIS3_S6_NS3_14EqualsComparerINS5_25Il2CppGenericClassCompareEEENSt3__29allocatorIS3_EEE8IdentityESA_SD_E23find_position_with_hashERKS3_j
atf:_Debug_Log_m4051431634
YXh:_glUniform3uiv__wrapper
Cpe:_FileStream_EndRead_m3904255625
pqb:__ZL8MainLoopv
f4b:__ZN17TransformInternal25CopyTransformSubhierarchyER18TransformHierarchyjS1_yyjb
w5c:_CallContextRemotingData_Clone_m14303327
sUg:_AudioConfigurationChangeHandler_Invoke_m1233557945
m_h:_emscripten_glIsShader__wrapper
OCc:__ZN19CompositeCollider2D22QueryCompositeColliderEPK10Collider2DPK11Rigidbody2D
e3e:_DSAManaged_get_PublicOnly_m3575594967
Bif:_Mutex_ReleaseMutex_m3169074890
zdg:__ZL63RemoteConfigSettings_t1247263429_CustomAttributesCacheGeneratorP21CustomAttributesCache
jta:__ZN7TextureD0Ev
IB:__ZN13AudioListener23VirtualRedirectTransferER24GenerateTypeTreeTransfer
tXa:__ZNK12HandlerChain9EnumerateEPKcP19dynamic_block_arrayI13FileEntryInfoLj32EEbPPv19FileEnumerationFlag
vMa:__ZThn32_N12MeshRendererD1Ev
csa:__ZN13RenderTexture23VirtualRedirectTransferER19StreamedBinaryWriteILb0EE
bCh:__ZN6il2cpp2vm13ComObjectBase17GetMarshalSizeMaxERK10Il2CppGuidPvjS5_jPj
JOh:_truncate
f1b:__ZN9ShaderLab27SerializedShaderVectorValue8TransferI18StreamedBinaryReadILb0EEEEvRT_
LCa:__ZN8Renderer21RendererBecameVisibleEv
O6a:__ZN10Instancing11DrawAPIArgsD2Ev
BO:__ZN10MemoryPool16StaticInitializeEPv
k_:__ZN11TypeManager21CleanupGlobalInstanceEv
rGe:_Enum_ToString_m2240012010
N:Math_atan
rjh:__ZNSt3__212basic_stringIcNS_11char_traitsIcEENS_9allocatorIcEEE6__initIPKcEENS_9enable_ifIXsr21__is_forward_iteratorIT_EE5valueEvE4typeESA_SA_
Ox:__ZNK10SampleClip11GetResourceEv
cYc:_MonoEvent_get_Name_m3774595291
D0a:__ZN9GfxDevice15GetStereoMatrixE21MonoOrStereoscopicEye24BuiltinShaderMatrixParamR10Matrix4x4f
i_a:__ZN4core12basic_stringIcNS_20StringStorageDefaultIcEEE6resizeEj
AIc:__GLOBAL__sub_I_CmEventProfiler_cpp
pgf:_UnicodeEncoding_GetMaxByteCount_m3053620432
c5c:_ArgInfo__ctor_m1950205784
Ing:_Nullable_1_Equals_m4046255732_AdjustorThunk
kea:__ZN17GlobalGameManager23VirtualRedirectTransferER24GenerateTypeTreeTransfer
xOc:__ZN19UnityConnectServiceD0Ev
vZc:_MonoProperty_get_PropertyType_m4138957578
VK:___cxx_global_var_init_123
UNc:__ZN11UnityEngine15PlatformWrapper21GetCopyTextureSupportEv
AAe:_DateTime_get_Month_m1566006993_AdjustorThunk
pFd:_SslClientStream__ctor_m3478574780
RD:__ZN11AudioModule27IsFormatSupportedByPlatformEPKc
RBc:__Z14b2PairLessThanRK6b2PairS1_
nT:__ZN14SerializedFile14SerializedTypeD2Ev
cza:__ZN9Texture2D5ResetEv
arc:__Z19TransferField_ArrayI8JSONRead16Converter_StringEvRK23StaticTransferFieldInfoR31RuntimeSerializationCommandInfoRT0_
Ktd:_MACTripleDES_Setup_m560957914
lbc:__ZZN10MeshFilter15InitializeClassEvEN31FunctorImpl_108kDidAddComponent4CallEPviR11MessageData
S4g:__ZN15dense_hashtableINSt3__24pairIK10KeyWrapperIPK19Il2CppGenericMethodEPK26Il2CppGenericMethodIndicesEES6_N6il2cpp8metadata23Il2CppGenericMethodHashEN14dense_hash_mapIS6_SA_SE_NS6_14EqualsComparerINSD_26Il2CppGenericMethodCompareEEENS0_9allocatorISB_EEE9SelectKeyESI_SK_E6insertERKSB_
wuc:__ZN15b2WheelJointDef10InitializeEP6b2BodyS1_RK6b2Vec2S4_
lQb:__Z19SetupShadowCullDataRK27ScriptableCullingParametersRK17ShaderReplaceDataPK22SceneCullingParametersf16ShadowProjectionR14ShadowCullData
b5:__ZN9Scripting11UnityEngine14UnityException12CleanupProxyEv
qrc:__ZN5Unity9rapidjson13GenericReaderINS0_4UTF8IcEES3_13JSONAllocatorE11ParseObjectILj0ENS0_19GenericStringStreamIS3_EENS0_15GenericDocumentIS3_S4_S4_EEEEvRT0_RT1_
sx:__ZN4FMOD7Channel11set3DSpreadEf
LJh:__ZN6il2cpp2os6Memory14AlignedReAllocEPvjj
J7b:__Z13RegisterClassI14SpriteRendererEvPKc
cya:__ZN24GenerateTypeTreeTransfer16TransferTypelessEPjPKc17TransferMetaFlags
Dzb:__ZL18ProgramUniform4uivPK7ApiGLESjiihPKv
zif:_Mutex_CreateMutex_internal_m3763633491
kn:FUNCTION_TABLE_viiiiiiiiiiiiiii
Gaa:__ZN17PersistentManager43LocalSerializedObjectIdentifierToInstanceIDERK31LocalSerializedObjectIdentifierRiNS_9LockFlagsE
nO:__Z15GetGraphicsCapsv
mBb:__ZN7ApiGLES15BindVertexArrayEN2gl6HandleILNS0_10ObjectTypeE3EEE
BVe:_Dictionary_2_System_Collections_IDictionary_Remove_m316877720_gshared
XJb:__Z20IntersectionAABBAABBRK10MinMaxAABBS1_PS_
u8b:__ZZL31RegisterRectTransformPropertiesR22GenericPropertyBindingEN32Wrapper_RectTransformSizeDeltax013SetFloatValueEPvf
RDf:_SslStreamBase_get_SecurityProtocol_m596101988
xCg:__Z121RuntimeInvoker_Void_t1185182177_Int32_t2950945753_Int32_t2950945753_Int32_t2950945753_Int32_t2950945753_Int32_t2950945753PFvvEPK10MethodInfoPvPS4_
Sdc:__ZN18BackgroundJobQueue29ScheduleMainThreadJobInternalEPFvPvES0_
S$d:_DeriveBytes_set_Salt_m441577179
Lqg:_UnityEvent_3_FindMethod_Impl_m1640458315_gshared
PPf:__ZL61ConstructorBuilder_t2813524108_CustomAttributesCacheGeneratorP21CustomAttributesCache
B7a:__Z18Transfer_BlittableI14SafeBinaryReadLb1EhEvRK29SerializationCommandArgumentsR31RuntimeSerializationCommandInfo
__:__ZNSt3__224__buffered_inplace_mergeIRNS_4lessIN4core12basic_stringIcNS2_20StringStorageDefaultIcEEEEEENS_11__wrap_iterIPS6_EEEEvT0_SC_SC_T_NS_15iterator_traitsISC_E15difference_typeESG_PNSF_10value_typeE
QRa:__Z22GetGameManagerIfExistsi
JJb:__ZNK6Camera19GetStereoSeparationEv
AQ:__Z22DestroyObjectHighLevelP6Objectb
Nrd:_KeySizes__ctor_m3113946058
pKb:__Z26BeginRenderQueueExtractionR15RenderNodeQueuePK16RendererCullDataRK13CullingOutputPK12LODDataArray15ExtractionFlagsP18JobBatchDispatcher
Hwc:__ZNK11b2EdgeShape5CloneEP16b2BlockAllocator
Si:_emscripten_glVertexAttrib3fv
b5c:_LifetimeServices__cctor_m2128864873
vAf:_ScriptableObject_CreateScriptableObjectInstanceFromType_m2783367459
Fnf:_UInt16_TryParse_m3193697465
zoh:__ZN6il2cpp6icalls8mscorlib6System9Threading6Thread16SetName_internalEP12Il2CppThreadP12Il2CppString
Wi:_glBeginTransformFeedback
Mug:__Z92RuntimeInvoker_RuntimeObject_Int32_t2950945753_Int32_t2950945753_RuntimeObject_RuntimeObjectPFvvEPK10MethodInfoPvPS4_
JDe:_Decimal_op_Division_m2407964042
Vqa:__ZN18JobBatchDispatcherC2E11JobPriorityi
rJa:__ZThn32_N14SpriteRendererD0Ev
Ssd:_HashAlgorithm_Create_m644612360
aFc:__ZN23ColliderTilingExtension10IsTilingOnEv
byf:_Playable_get_Null_m3556999077
H0e:_BigInteger_TestBit_m1507066813
B2a:__ZN9GfxDevice13EndFrameStatsEv
acc:__Z7Empty2DP9Texture2DPhiiii
Ucf:_Array_InternalArray__set_Item_TisRefEmitPermissionSet_t484390987_m3786305619_gshared
Snh:__ZN6il2cpp6icalls8mscorlib6System7Runtime15InteropServices7Marshal19copy_from_unmanagedEiiP11Il2CppArrayi
Uu:__ZL34StaticDestroyAudioCustomFilterRootPv
nIe:_ArrayReadOnlyList_1_GetEnumerator_m3931906247_gshared
c6:__ZN9Scripting11UnityEngine9Profiling7Sampler9InitProxyEv
vUa:__ZN19ComputeShaderKernelD2Ev
uIa:__ZN10DynamicVBO9DrawChunkERK21DynamicVBOChunkHandleP17VertexDeclarationPKNS_10DrawParamsEi
p6b:__ZN10systeminfo21GetTemporaryCachePathEv
exc:__ZNK20b2SeparationFunction17FindMinSeparationEPiS0_f
bih:__ZN14dense_hash_mapI10KeyWrapperINSt3__24pairIPK9FieldInfoP11Il2CppClassEEEj17ReflectionMapHashIS8_ENS9_14EqualsComparerINS1_8equal_toIS8_EEEENS1_9allocatorINS2_IKS9_jEEEEE13set_empty_keyERSH_
Thf:_CompressedStack_Capture_m3327262890
Lff:_StringBuilder_Replace_m1968561789
dHc:__ZN13ProduceHelperI17Physics2DSettingsLb0EE7ProduceE10MemLabelId18ObjectCreationMode
Vdb:__Z18Transfer_BlittableI24GenerateTypeTreeTransferLb1E10Matrix4x4fEvRK29SerializationCommandArgumentsR31RuntimeSerializationCommandInfo
Ghf:_UTF8Encoding_GetMaxByteCount_m420651053
xnc:__ZN9JSONWrite8TransferI10Matrix4x4fEEvRT_PKc17TransferMetaFlags
Ahg:_List_1_get_Item_m1651423686_gshared
Klf:_Type_get_IsExplicitLayout_m1182254884
Jab:__ZN15SerializeTraitsI5RectTIfEE8TransferI14SafeBinaryReadEEvRS1_RT_
cgf:_UnicodeEncoding__ctor_m3604373700
QBg:__Z77RuntimeInvoker_RuntimeObject_DateTime_t3738529785_RuntimeObject_RuntimeObjectPFvvEPK10MethodInfoPvPS4_
TY:__ZN13PlayableGraph18DisableMultithreadEv
$Ca:__ZThn32_NK8Renderer11GetMaterialEi
BDh:__ZN6il2cpp6icalls8mscorlib6System7Runtime15InteropServices8GCHandle15GetTargetHandleEP12Il2CppObjectii
osf:_CameraCallback_Invoke_m3308824940
iNa:__ZN9InputAxis8TransferI18StreamedBinaryReadILb0EEEEvRT_
uL:__ZN13MemoryManager12GetAllocatorE10MemLabelId
Lud:_BigInteger_ToString_m3260066955
u0a:__ZN9GfxDevice29GetMinimumNodesPerGraphicsJobEv
$mg:_Func_1_Invoke_m370346740_gshared
t7b:__Z13RegisterClassI4MeshEvPKc
L9a:__ZN14SafeBinaryRead8TransferIyEEvRT_PKc17TransferMetaFlags
nsc:__ZNK11Rigidbody2D20GetAttachedCollidersER13dynamic_arrayIP10Collider2DLj0EE
eGf:_KeyUsageExtension_Encode_m2561267096
I0c:_GCHandle__ctor_m2690474163_AdjustorThunk
sZ:__ZN15DirectorManager17OnSampleFixedTimeEv
QRb:__ZNK13RendererScene21GetDynamicObjectCountEv
Nwe:_Double_Parse_m1135962389
TEf:_X509Extension__ctor_m710637961
Qfe:_CultureInfo_get_CurrentCulture_m1632690660
_3e:_PKCS1_OS2IP_m65970018
gvd:_ModulusRing_BarrettReduction_m3024442734
DPa:__ZNSt3__26vectorIN30RuntimeInitializeOnLoadManager9ClassInfoE13stl_allocatorIS2_L18MemLabelIdentifier13ELi16EEE8__appendEj
Beb:__ZN24GenerateTypeTreeTransfer32TransferSTLStyleArrayWithElementI23ManagedObjectTransfererEEvRT_17TransferMetaFlags
hAh:__ZN6il2cpp6icalls8mscorlib6System11Environment12get_PlatformEv
VHd:_HttpWebRequest__cctor_m1467954389
xAd:_CipherSuiteCollection_System_Collections_IList_Remove_m2463347416
G6b:__Z49Transform_CUSTOM_INTERNAL_CALL_TransformDirectionP12Il2CppObjectRK8Vector3fRS1_
Rvf:_DefaultValueAttribute_GetHashCode_m3368187153
CGd:_DictionaryNodeEnumerator_get_Value_m1345533116
J4b:__Z42Register_UnityEngine_Behaviour_get_enabledv
zDf:_SslStreamBase_EndNegotiateHandshake_m1124299797
jDf:_SslStreamBase__ctor_m3009266308
yih:__ZN6il2cpp2vm14TypeNameParser23ParseNestedTypeOptionalERi
dRa:__ZN17PersistentManager22CheckInstanceIDsLoadedEPiiNS_9LockFlagsE
ukf:_TimeSpan_get_Seconds_m1883479191_AdjustorThunk
Okg:_Collection_1_System_Collections_IList_IndexOf_m4096172810_gshared
vJh:__ZN6il2cpp2os13FastMutexImplC2Ev
APa:__ZN30RuntimeInitializeOnLoadManager9ClassInfo8TransferI14SafeBinaryReadEEvRT_
Tud:_BigInteger_op_Equality_m1194739960
$gf:_UTF7Encoding_GetCharCount_m2792854727
Bq:__ZN9Scripting11UnityEngine2XR5Tango24MeshReconstructionConfig9InitProxyEv
RNb:__ZL13RenderCastersiRK8Vector3fS1_RK13ShadowJobDataR17ShaderPassContextRKNSt3__26vectorI16ShadowCasterData13stl_allocatorIS9_L18MemLabelIdentifier2ELi16EEEERKNS8_I20ShadowCasterPartDataSA_ISG_LSB_2ELi16EEEERK15RenderNodeQueuebPKj
Sk:_emscripten_glGetShaderInfoLog
god:_ObjectReader_RecordFixup_m4125245357
cFc:__ZN14b2PolygonShape3SetEPK6b2Vec2i
fl:_glUniform1i
kra:__ZN6prcoreL11inner_clearILj3EEEvPhjjj
Jee:_CCGregorianCalendar_dmy_from_fixed_m494173177
N7d:_Byte_System_IConvertible_ToUInt64_m371883985_AdjustorThunk
Q9g:__ZN6il2cpp6icalls8mscorlib6System18CollectTypeMethodsINS_5utils10functional10TrueFilterEEEvP11Il2CppClassPKS7_jRKT_RNSt3__26vectorIPK10MethodInfoNSE_9allocatorISI_EEEERA65535_b
yqb:__Z14SetPlayerPause11PlayerPauseb
K2:__ZL48__ManagedRegistrationHelperFunction_CullingGroupPv
fce:_CollectionBase_System_Collections_ICollection_CopyTo_m2850099809
Q0c:_GCHandle_Free_m1457699368_AdjustorThunk
$if:_Thread_get_CurrentUICulture_m1397429997
EQd:_RSACryptoServiceProvider_Dispose_m1199148535
FP:__Z30scripting_stack_trace_info_for21ScriptingExceptionPtrR14StackTraceInfo
n8:__ZN9Scripting11UnityEngine6Events14UnityEventBase12CleanupProxyEv
WSh:_glCompressedTexSubImage3D__wrapper
Pma:__ZN18ShadowMapJobHeaderD0Ev
YLb:__ZN15SkyboxGenerator18GetSixFaceSkyboxVBEv
Veh:__ZN15dense_hashtableINSt3__24pairIK10KeyWrapperINS1_IPK12PropertyInfoP11Il2CppClassEEEjEES9_17ReflectionMapHashIS8_EN14dense_hash_mapIS9_jSD_NS9_14EqualsComparerINS0_8equal_toIS8_EEEENS0_9allocatorISB_EEE9SelectKeyESI_SK_EC2ERKSN_j
Cw:__ZN15AudioReverbZone7CleanupEv
XCb:__ZN10BufferGLESD0Ev
eqb:__Z20scripting_gc_disablev
c6d:_Attribute_IsDefined_m1430686743
cQd:_IntervalCollection_Optimize_m161975983
W8g:__ZN6il2cpp2vm10ThreadPool5QueueEP14Il2CppDelegatePPvS3_P12Il2CppObject
mqf:_Version__ctor_m417728625
Q1:__ZN16memory_pool_implILi68EE15AutoPoolWrapper10InitializeEPv
Jue:_Convert_ToByte_m3567528984
bwc:__ZNK14b2PolygonShape9TestPointERK11b2TransformRK6b2Vec2
Kog:_InvokableCall_1_Invoke_m3497872319_gshared
Uob:__ZN9Scripting35ErrorMessageForUnsupportedEnumFieldE17ScriptingFieldPtr
B_e:_Level2MapComparer__cctor_m1866197409
mkb:__Z29Transfer_Blittable_ArrayFieldI18StreamedBinaryReadILb1EEfEvRT_R9ArrayInfoRK23StaticTransferFieldInfo
AEd:_RecordProtocol_ReadRecordBuffer_m180543381
Bbe:_BitArray__ctor_m2765908219
FZd:_StringComparer_get_InvariantCultureIgnoreCase_m2404489191
kDh:__ZN6il2cpp6icalls8mscorlib6System7Runtime16CompilerServices14RuntimeHelpers15InitializeArrayEP11Il2CppArrayi
P3c:_Context_Freeze_m2594571993
WQc:__ZZN18UnityConnectClient23RegisterGlobalCallbacksEvEN46EarlyUpdateUnityConnectClientUpdateRegistrator7ForwardEv
Waf:_Array_InternalArray__ICollection_CopyTo_TisInt32_t2950945753_m3102754797_gshared
ozf:_Quaternion_ToString_m2203056442
bhd:_ModuleBuilder_GetTokenGenerator_m4177350090
bGa:__ZN10Matrix4x4f8TransferI18StreamedBinaryReadILb0EEEEvRT_
fjf:_Thread_Start_m2860771284
qwf:_MonoBehaviour_CancelInvoke_m4090783926
UQb:__ZL23NormalizeRobustInternalRK8Vector3fRfS2_f
G9e:_Array_LastIndexOf_TisRuntimeObject_m2701366436_gshared
G9g:__ZN6il2cpp6icalls8mscorlib6System8MonoType13GetInterfacesEP20Il2CppReflectionType
gI:__ZN11UnityEngine15CloudWebService25WebRequestDownloadHandler7OnAbortEv
NGb:__ZN6Camera12CustomRenderER11CullResultsR17ShaderPassContextPK21CameraRenderingParamsNS_10RenderFlagEPNS_21PerformRenderFunctionEPFvvE
FKd:_PublicKey_GetUnsignedBigInteger_m3873409673
Xyh:__ZN6il2cpp2os6Thread22SetNativeThreadCleanupEPFvPvE
pZe:_GenericEqualityComparer_1_Equals_m2669134646_gshared
$jh:_il2cpp_class_from_system_type
Spd:_RuntimeMethodHandle__ctor_m2867240657
rZd:_DecoderFallback_get_StandardSafeFallback_m2130338133
bLa:__ZN14SafeBinaryRead21TransferSTLStyleArrayI13dynamic_arrayI10BlendShapeLj0EEEEvRT_17TransferMetaFlags
Cm:FUNCTION_TABLE_vdd
Adb:__Z18Transfer_BlittableI24GenerateTypeTreeTransferLb1E10ColorRGBAfEvRK29SerializationCommandArgumentsR31RuntimeSerializationCommandInfo
J$:__ZN6prcoreL17RemapGenericFloatI18TexFormatRGBAFloat16TexFormatRGFloatEEvPKNS_9InnerInfoE
f9g:__ZN6il2cpp6icalls8mscorlib6System8MonoType8get_NameEP20Il2CppReflectionType
U$e:_SimpleCollator_LastIndexOf_m2130553617
X9a:__ZNSt3__26vectorI10RectOffset13stl_allocatorIS1_L18MemLabelIdentifier1ELi16EEE8__appendEj
dlf:_TimeSpan_op_Equality_m1999885032
TDf:_SslStreamBase_get_ServerCertificates_m2154373069
Ysh:__ZN6il2cpp2vmL29AddTypeToNametoClassHashTableEPK11Il2CppImagei
Ihf:_UTF8Encoding_GetDecoder_m2951334655
Wn:FUNCTION_TABLE_ff
tkg:_Collection_1_IndexOf_m202514423_gshared
Yn:FUNCTION_TABLE_fi
sdd:_NumberFormatter_ZeroTrimEnd_m3065471008
$1:__ZL93__ManagedRegistrationHelperFunction_NativeContainerSupportsDeallocateOnJobCompletionAttributePv
z0d:_X509Certificate_get_DSA_m1760272844
_if:_Thread_get_CurrentCulture_m349116646
Tif:_Thread_Thread_internal_m4184414727
s7b:__Z13RegisterClassI12MeshRendererEvPKc
Vc:_emscripten_glGetAttribLocation
aFb:__ZZ23InitPlayerLoopCallbacksvEN39PostLateUpdateResetInputAxisRegistrator7ForwardEv
Uz:__ZN4FMOD12ChannelGroup14getParentGroupEPPS0_
Zc:_emscripten_set_blur_callback
Ekg:_Collection_1_IsValidItem_m1475436662_gshared
zAa:__ZNK14ImageReference9ClipImageEiiii
Uac:__ZN4MeshC2E10MemLabelId18ObjectCreationMode
DOb:__ZN10Matrix4x4f30SetPositionAndOrthoNormalBasisERK8Vector3fS2_S2_S2_
oca:__ZN5RectTIfE8TransferI24GenerateTypeTreeTransferEEvRT_
Vwh:__ZN6il2cpp6icalls8mscorlib6System4Enum8ToObjectEP20Il2CppReflectionTypeP12Il2CppObject
uQb:__ZL30FrustumCullReflectionProbesJobP26ReflectionProbeCullJobDataj
iIb:__ZN12FlareManager6UpdateEv
pUh:_glColorMask__wrapper
Qqh:__ZN6il2cpp6icalls8mscorlib6System4Type29GetGenericTypeDefinition_implEP20Il2CppReflectionType
ZPa:__ZN27GenericSlowGarbageCollector16ProcessReferenceEi
y5:__ZN9Scripting11UnityEngine10Resolution9InitProxyEv
NVe:_Dictionary_2_get_Item_m1749337561_gshared
iqc:__ZN8JSONRead21TransferSTLStyleArrayI13dynamic_arrayI8BitFieldLj0EEEEvRT_17TransferMetaFlags
L4:__ZN35ScriptingManagedObjectProxyRegistry13RegisterProxyEPKcPFvvES3_
d3c:_LifetimeServices_set_SponsorshipTimeout_m2538334028
W6g:__ZN15dense_hashtableINSt3__24pairIK10KeyWrapperIP9FieldInfoEiEES5_N6il2cpp5utils11PointerHashIS3_EEN14dense_hash_mapIS5_iSB_NS5_14EqualsComparerINS0_8equal_toIS4_EEEENS0_9allocatorIS7_EEE9SelectKeyESG_SI_E4findERS6_
z3:__ZL43__ManagedRegistrationHelperFunction_Hash128Pv
BNh:_fopen
M5a:__ZN20GpuProgramParameters15AddTextureParamEPKciib16TextureDimensionP16PropertyNamesSet
lK:__ZN19CloudServiceHandler8SaveFileERKN4core12basic_stringIcNS0_20StringStorageDefaultIcEEEEPKvj
YDh:_GC_init
Eyc:__Z16AddTriggerReportP11Collision2DR13dynamic_arrayINS_13TriggerReportELj0EE
obd:_MonoType_IsPointerImpl_m3340652279
kVh:_glFramebufferTexture2D__wrapper
OKh:__ZN6il2cpp6icalls8mscorlib6System7Runtime8Remoting7Proxies9RealProxy27InternalGetTransparentProxyEP12Il2CppObjectP12Il2CppString
Dzh:__ZN6il2cpp2vm6Method10IsInflatedEPK10MethodInfo
nDh:__ZNK6il2cpp8metadata14Il2CppTypeLessclEPK10Il2CppTypeS4_
sEh:_GC_remove_header
Ila:__ZL17InstanceBufferJobIN10Instancing14RenderLoopArgsEEvP21InstanceBufferJobDataIT_E
sPa:__ZNSt3__26vectorIi13stl_allocatorIiL18MemLabelIdentifier13ELi16EEE8__appendEj
lTc:__GLOBAL__sub_I_artifacts_WebGL_legacybindings_VR_0_cpp
G7c:_ReturnMessage_get_OutArgs_m1641976511
L4c:_SynchronizationAttribute_IsContextOK_m324067792
Zuh:__ZN6il2cpp2vm6Object6IsInstEP12Il2CppObjectP11Il2CppClass
fSc:__ZN14RedirectHelper10OnRedirectEl
cpa:__ZN11Tetrahedron8TransferI14SafeBinaryReadEEvRT_
Ngb:__Z19TransferField_ArrayI19StreamedBinaryWriteILb0EE27Converter_UnityEngineObjectEvRK23StaticTransferFieldInfoR31RuntimeSerializationCommandInfoRT0_
RDc:__ZN10ClipperLib7Clipper15AddLocalMinPolyEPNS_5TEdgeES2_RKNS_8IntPointE
woa:__Z16GetMSAALevelDesc9MSAALevel
HGe:_Environment_GetMachineConfigPath_m43519138
CNe:_InternalEnumerator_1_System_Collections_IEnumerator_get_Current_m4203917072_gshared
fDe:_Decimal_decimal2Int64_m2102545213
dHb:__ZN8Renderer27EnsureTransformInfoUpToDateEv
MZh:_emscripten_glFrontFace__wrapper
Ca:invoke_fiffi
DT:__ZN14SerializedFile14SerializedType8ReadTypeILb1EEEbibRPKhS3_Pi
xDf:_InternalAsyncResult__ctor_m2194591319
nP:__ZN13RuntimeStaticI12GraphicsCapsLb0EE16StaticInitializeEPv
MHa:__ZN9Texture3D17UploadToGfxDeviceEv
Koc:__Z18Transfer_BlittableI8JSONReadLb1E8Vector4fEvRK29SerializationCommandArgumentsR31RuntimeSerializationCommandInfo
y1c:_ActivationServices_CreateProxyFromAttributes_m3864561181
_Td:_SecurityPermission_Cast_m2392017566
XYb:__ZN9Scripting20SendScriptingMessageER10GameObjectPKc18ScriptingObjectPtr
uqb:__Z26IsSplashScreenFadeCompletev
qic:__Z42Register_UnityEngine_Camera_get_clearFlagsv
Nnb:__ZN13MonoBehaviour13AwakeFromLoadE17AwakeFromLoadMode
I9g:__ZNSt3__26__treeIP11Il2CppClassNS_4lessIS2_EENS_9allocatorIS2_EEED2Ev
Zlg:_ReadOnlyCollection_1_System_Collections_IList_Add_m1307486000_gshared
DVb:__ZN13RenderManager27UpdatePreviousFrameMatricesEv
aib:__Z35Transfer_Blittable_FixedBufferFieldI18StreamedBinaryReadILb1EExEvRK29SerializationCommandArgumentsR31RuntimeSerializationCommandInfo
hef:_Array_InternalArray__get_Item_TisByte_t1134296376_m3566214066_gshared
KV:__Z22SetManagerPtrInContextiP6Object
bOa:__ZN14PlayerSettings8TransferI19StreamedBinaryWriteILb0EEEEvRT_
uoc:__Z18Transfer_BlittableI8JSONReadLb0E10ColorRGBAfEvRK29SerializationCommandArgumentsR31RuntimeSerializationCommandInfo
jfe:_NumberFormatInfo_set_NumberNegativePattern_m1999304795
did:_GenericTypeParameterBuilder_IsSubclassOf_m2266644074
L4g:__ZN15dense_hashtableINSt3__24pairIK10KeyWrapperIN6il2cpp5utils13dynamic_arrayIPK10Il2CppTypeLj4EEEEPFvvEEESA_NS3_8metadata19Il2CppSignatureHashEN14dense_hash_mapISA_SD_SG_NSA_14EqualsComparerINSF_22Il2CppSignatureCompareEEENS0_9allocatorISE_EEE9SelectKeyESK_SM_E14squash_deletedEv
Ife:_CompareInfo_ToString_m2684143229
aY:__ZN15DirectorManagerD2Ev
Ldh:__ZN15dense_hashtableINSt3__24pairIK10KeyWrapperINS1_IPK10MethodInfoP11Il2CppClassEEEjEES9_17ReflectionMapHashIS8_EN14dense_hash_mapIS9_jSD_NS9_14EqualsComparerINS0_8equal_toIS8_EEEENS0_9allocatorISB_EEE9SelectKeyESI_SK_E9copy_fromERKSN_j
MMd:_X509CertificateEnumerator_System_Collections_IEnumerator_get_Current_m4218613192
x9b:__ZNK30SpriteRendererAnimationBinding15GenerateBindingERKN4core12basic_stringIcNS0_20StringStorageDefaultIcEEEEbRN11UnityEngine9Animation14GenericBindingE
xgf:_UTF32Encoding__ctor_m1635603592
fRg:_Uri_IsPredefinedScheme_m1188665625
UEc:__ZN19PhysicsJobOptions2D8TransferI14SafeBinaryReadEEvRT_
H7g:_SessionStateChanged_Invoke_m1365949269
pCb:__ZN15TextureTFMethod16BindForRenderingEj
MBc:__ZN21b2ContactsCollideTask8FinalizeEv
urb:__ZN14GraphicsHelper20IsViewportFullscreenERK9GfxDevice
R7c:_SoapMethodAttribute_SetReflectionObject_m503748123
d5b:__ZL34GetComponentsImplementationRecurseILb0ELi1ELi0EEbR10GameObjectbRK17CompareParametersRK39GetComponentsImplementation_ReturnValue
Zsh:__ZN15dense_hashtableINSt3__24pairIK10KeyWrapperINS1_IPKcS4_EEEiEES6_24NamespaceAndNamePairHashN14dense_hash_mapIS6_iS9_NS6_14EqualsComparerI26NamespaceAndNamePairEqualsEENS0_9allocatorIS8_EEE9SelectKeyESD_SF_E4findERS7_
m7g:__ZN6il2cpp2os19SocketHandleWrapper7ReleaseEv
$rc:__ZN9Scripting11UnityEngine11Collision2D12CleanupProxyEv
Xqf:_BeforeRenderHelper_Invoke_m50072094
p6c:_MethodCall_get_MethodBase_m550047245
JOa:__ZNSt3__27__sort4IRNS_6__lessINS_4pairIPKN5Unity4TypeE7Hash128EES8_EEPS8_EEjT0_SC_SC_SC_T_
cLd:_X509Certificate2_get_PrivateKey_m450647294
Gca:__ZNK11NamedObject22GetTypeVirtualInternalEv
qEa:__ZN15SerializeTraitsI13dynamic_arrayI28EnlightenRendererInformationLj0EEE19ResizeSTLStyleArrayERS2_i
XQg:_Uri_EscapeString_m2061933484
Arf:_AttributeHelperEngine_GetDefaultExecutionOrderFor_m2255077112
Awe:_Convert_ToDecimal_m3815908452
nKc:__ZN9Scripting11UnityEngine13TreePrototype9InitProxyEv
$pe:_DelegatePInvokeWrapper_ReadDelegate_t714865915
D0d:_CollectionBase_Clear_m1509125218
Qxh:__ZL14on_heap_resizem
N3g:__ZNSt3__27__sort4IRN6il2cpp5utils11collections13ArrayValueMapIPK10Il2CppType17Il2CppInteropData26InteropDataToTypeConverterNS1_8metadata14Il2CppTypeLessENSA_26Il2CppTypeEqualityComparerEE12SortComparerEPS8_EEjT0_SH_SH_SH_T_
$Qh:dynCall_vidi
jOc:__ZN11UnityEngine15PlatformWrapper14GetCloudUserIdEv
Yre:_StreamReader_ReadToEnd_m371831293
mad:_MonoCustomAttrs_GetCustomAttributes_m1775925192
KTh:_glVertexAttribPointer__wrapper
otd:_HMAC_Create_m2148924157
LQh:___udivdi3
QGe:_Exception__ctor_m1406832249
J5b:__ZN11PlayerPrefs9SetStringERKN4core12basic_stringIcNS0_20StringStorageDefaultIcEEEES6_
sJc:__ZN9Scripting11UnityEngine7Physics9InitProxyEv
mHh:__ZN6il2cpp6icalls8mscorlib6System8Delegate18SetMulticastInvokeEP14Il2CppDelegate
Yvc:__ZL18b2FindIncidentEdgeP12b2ClipVertexPK14b2PolygonShapeRK11b2TransformiS3_S6_
SH:__ZN11UnityEngine15CloudWebService20WebRequestRestClient5BeginEv
pw:__ZN9AudioClip6ReloadEv
Cac:__ZN8Material12CleanupClassEv
ONh:_fseek
fKc:__ZN16memory_pool_implILi40EE15AutoPoolWrapper10InitializeEPv
Xcb:__Z22TransferField_NonArrayI17RemapPPtrTransfer27Converter_SimpleNativeClassI10RectOffsetEEvRK23StaticTransferFieldInfoR31RuntimeSerializationCommandInfoRT0_
W0d:_PKCS12_AddCertificate_m3618696508
abe:_SynchronizedArrayListWrapper_set_Item_m1979747874
y4:__ZL50__ManagedRegistrationHelperFunction_UnityExceptionPv
eEd:_HttpsClientStream_U3CHttpsClientStreamU3Em__0_m2058474197
Yye:_Convert_ToUInt32_m2215525276
TNa:__ZN24GenerateTypeTreeTransfer32TransferSTLStyleArrayWithElementI16SplashScreenLogoEEvRT_17TransferMetaFlags
jch:__ZN15dense_hashtableINSt3__24pairIK10KeyWrapperINS1_IPK9FieldInfoP11Il2CppClassEEEjEES9_17ReflectionMapHashIS8_EN14dense_hash_mapIS9_jSD_NS9_14EqualsComparerINS0_8equal_toIS8_EEEENS0_9allocatorISB_EEE9SelectKeyESI_SK_E6insertERKSB_
$Me:_InternalEnumerator_1_get_Current_m2680116177_gshared
GX:__Z37InitializeIntermediateRendererManagerPv
KDh:_GC_log_printf
gYd:_String_IndexOfOrdinal_m962178384
ptd:_HMACMD5__ctor_m3129799368
h5:__ZN9Scripting11UnityEngine9Texture2D12CleanupProxyEv
AVc:_TypeBuilder_GetEvent_m2166527753
lP:__ZN23DefaultMeshVertexFormatC2E17ShaderChannelMask
vib:__ZL26Transfer_SimpleNativeClassI18StreamedBinaryReadILb1EE8GradientLb1EEvRK29SerializationCommandArgumentsR31RuntimeSerializationCommandInfo
Lzg:__Z102RuntimeInvoker_Int32_t2950945753_RuntimeObject_Int32_t2950945753_CharU26_t1697032762_SByte_t1669577662PFvvEPK10MethodInfoPvPS4_
Gbd:_MonoType_get_Namespace_m2015358851
Mde:_HashKeys_CopyTo_m4219627824
Tg:_glBlendEquation
xze:_Convert_ToType_m2406080310
F2e:_BitConverterLE_ToSingle_m1153793442
sJh:__ZN6il2cpp2os5Mutex7TryLockEjb
Bje:_Int16_System_IConvertible_ToByte_m3161982419
gO:__Z20IsVectorBuiltinParamPKcPi
Jth:__ZN6il2cpp2vm5Field8GetFlagsEP9FieldInfo
_td:_MD5CryptoServiceProvider_HashFinal_m2625727830
CWd:_Single_System_IConvertible_ToUInt32_m289030200
i7b:__Z58Register_UnityEngine_SceneManagement_Scene_GetNameInternalv
REe:_Double_System_IConvertible_ToDouble_m3692611612
QE:__Z83Register_UnityEngine_Experimental_Audio_AudioSampleProvider_InternalSetScriptingPtrv
fT:__Z13IsFileCreatedRKN4core12basic_stringIcNS_20StringStorageDefaultIcEEEE
lpe:_FileStream_FlushBuffer_m914568182
bEa:__ZN16LightmapSettings18TransferDeprecatedI14SafeBinaryReadEEvRT_
sKa:__ZN8Renderer11SetMaterialE4PPtrI8MaterialEi
Uff:_StringBuilder_AppendFormat_m921870684
owh:__ZN15dense_hashtableINSt3__24pairIK10KeyWrapperIP12Il2CppObjectEN6il2cpp2gc9CachedCCWEEES5_NS7_5utils11PointerHashIS3_EEN14dense_hash_mapIS5_S9_SD_NS5_14EqualsComparerINS0_8equal_toIS4_EEEENS0_9allocatorISA_EEE9SelectKeyESI_SK_E5eraseE30dense_hashtable_const_iteratorISA_S5_SD_SM_SI_SK_E
Sce:_Hashtable__ctor_m1684344284
J2d:_Activator_CheckAbstractType_m2015247896
JQd:_RSACryptoServiceProvider_ImportParameters_m614616705
iDf:_SslHandshakeHash_CreateSignature_m1634235041
TTe:_ShimEnumerator_get_Current_m3504536618_gshared
o9:__ZN9Scripting11UnityEngine21AttributeHelperEngine9InitProxyEv
Wia:__ZN12FlareManager9AddCameraER6Camera
Xoe:_FileNotFoundException__ctor_m2477162036
ICe:_Decimal_System_IConvertible_ToDouble_m3125524987
llb:__Z18Transfer_BlittableI18StreamedBinaryReadILb0EELb0E12PropertyNameEvRK29SerializationCommandArgumentsR31RuntimeSerializationCommandInfo
sDc:__ZTv0_n12_N10ClipperLib7ClipperD0Ev
O1b:__ZN9ShaderLab9IntShader26CreateFromSerializedShaderERKNS_16SerializedShaderERNSt3__26vectorI4PPtrI6ShaderENS4_9allocatorIS8_EEEEbPS7_
jMg:_Match_get_Empty_m2060287462
I6a:__ZN19ShaderPropertySheet16SetComputeBufferEN9ShaderLab16FastPropertyNameE15ComputeBufferIDNS_8SetFlagsE
Jxf:_U3CInvokeMessageIdSubscribersU3Ec__AnonStorey0_U3CU3Em__0_m444206473
FAh:__ZNK15dense_hashtableINSt3__24pairIK10KeyWrapperIPK19Il2CppGenericMethodEP10MethodInfoEES6_N6il2cpp8metadata23Il2CppGenericMethodHashEN14dense_hash_mapIS6_S9_SD_NS6_14EqualsComparerINSC_26Il2CppGenericMethodCompareEEENS0_9allocatorISA_EEE9SelectKeyESH_SJ_E5beginEv
fIe:_ArrayReadOnlyList_1_get_Item_m1974867852_gshared
P_e:_MSCompatUnicodeTable_IsIgnorableNonSpacing_m47098938
$ke:_Int32_System_IConvertible_ToSingle_m896140682_AdjustorThunk
KK:__GLOBAL__sub_I_Runtime_Graphics_7_cpp
gSb:__ZL12CullGroupJobP20CullingGroupsJobDataj
QEh:_GC_remove_dangling_disappearing_links
JI:__ZN11UnityEngine15CloudWebService14RestDownloader9IsAbortedEv
sn:FUNCTION_TABLE_f
$n:FUNCTION_TABLE_i
hPg:_AnchorInfo_get_Position_m1133366486
Wre:_StreamReader_FindNextEOL_m2574298119
p_:__ZN11TypeManager12RegisterTypeERK20TypeRegistrationDesc
tq:__ZL44__ManagedRegistrationHelperFunction_PoseDataPv
Um:FUNCTION_TABLE_v
hLa:__ZNSt3__26vectorI17BlendShapeChannelNS_9allocatorIS1_EEE8__appendEj
LLh:_playerScript_Start_m1877633170
gFb:__ZZ23InitPlayerLoopCallbacksvEN43PostLateUpdateUpdateAllRenderersRegistrator7ForwardEv
oSa:__ZN21LightProbeProxyVolume13GetRenderDataER27LightProbeProxyVolumeSample
$ah:__ZN6il2cpp2vm7Runtime30CallUnhandledExceptionDelegateEP12Il2CppDomainP14Il2CppDelegateP15Il2CppException
s3c:_Context_get_ContextProperties_m3283598326
U4c:_Identity_set_Disposed_m1049871465
MMa:__ZN11TimeManager8TransferI24GenerateTypeTreeTransferEEvRT_
blc:__ZN8JSONRead8TransferItEEvRT_PKc17TransferMetaFlagsb
Rih:__ZN6il2cpp2vm17TypeNameParseInfoC2ERKS1_
hPc:__ZN18UnityConnectClient17InitConnectClientEv
vMh:_memcmp
dQc:__ZN22UnityAnalyticsSettings5ResetEv
Rie:_GuidParser_ParseHexPrefix_m3148550086
fOc:__ZN11UnityEngine7Connect18ConnectSessionInfo8TransferER9JSONWrite
hD:__Z74Register_UnityEngine_AudioListener_INTERNAL_CALL_ReadExtensionPropertyNamev
mdf:_Array_InternalArray__set_Item_TisHitInfo_t3229609740_m1576844560_gshared
xKa:__ZN9Scripting32GetCachedPtrFromScriptingWrapperE18ScriptingObjectPtr
GFd:_SslClientStream_OnBeginNegotiateHandshake_m3734240069
Fz:__ZN5audio5mixer22CreateAudioMixerMemoryERKNS0_18AudioMixerConstantEPN4FMOD6SystemERN7mecanim6memory9AllocatorEib
ntg:__Z121RuntimeInvoker_Void_t1185182177_Int32_t2950945753_Int32_t2950945753_Int32_t2950945753_SByte_t1669577662_SByte_t1669577662PFvvEPK10MethodInfoPvPS4_
ASh:dynCall_iiif
SAg:__Z52RuntimeInvoker_Single_t1397266774_Single_t1397266774PFvvEPK10MethodInfoPvPS4_
n8b:__ZZL31RegisterRectTransformPropertiesR22GenericPropertyBindingEN32Wrapper_RectTransformAnchorMiny113GetFloatValueEPv
Nae:_FixedSizeArrayListWrapper_InsertRange_m1706982628
Ipf:_UIntPtr_ToString_m984583492_AdjustorThunk
Esb:__ZL20ShaderWarmupFuncImplP6ShaderiPN9ShaderLab4PassERK16ShaderKeywordSetP10DynamicVBOPvR17ShaderPassContext
syc:__ZN7b2World4StepEfii
s7d:_Byte_System_IConvertible_ToDateTime_m3654084722
D3g:__ZN15dense_hashtableI10KeyWrapperIPK17Il2CppGenericInstES4_N6il2cpp8metadata21Il2CppGenericInstHashEN14dense_hash_setIS4_S7_NS4_14EqualsComparerINS6_24Il2CppGenericInstCompareEEENSt3__29allocatorIS4_EEE8IdentityESB_SE_E6insertERKS4_
Abh:__ZN15dense_hashtableINSt3__24pairIK10KeyWrapperINS1_IPK14Il2CppAssemblyP11Il2CppClassEEEjEES9_17ReflectionMapHashIS8_EN14dense_hash_mapIS9_jSD_NS9_14EqualsComparerINS0_8equal_toIS8_EEEENS0_9allocatorISB_EEE9SelectKeyESI_SK_E3endEv
dif:_NativeEventCalls_ResetEvent_internal_m885886540
Dad:_MonoEnumInfo_get_enum_info_m1661176095
Fyb:__ZN14DataBufferGLES12RecordUpdateEv
whc:__Z34MonoBehaviour_CUSTOM_StopCoroutineP12Il2CppObjectP12Il2CppString
qwh:__ZN6il2cpp2vm12GenericClass12SetupMethodsEP11Il2CppClass
n2:__ZL50__ManagedRegistrationHelperFunction_AnimationCurvePv
cYa:__ZNK20LocalFileSystemPosix18GetApplicationPathEv
Iob:__ZN9Scripting30IsSystemCollectionsGenericListE17ScriptingClassPtr
hxf:_PlayerEditorConnectionEvents_AddAndCreate_m3046878154
uUc:__ZN9Scripting11UnityEngine12Experimental2XR14PlaneAlignment9InitProxyEv
FWe:_Dictionary_2_Add_m1279427033_gshared
OHf:_X509Certificate_get_IsSelfSigned_m4064195693
zea:__ZN10GameObject16CheckConsistencyEv
qbc:__ZN14RenderSettings15InitializeClassEv
txa:__ZL35stbir__resample_horizontal_upsampleP11stbir__infoPf
OFf:_AuthorityKeyIdentifierExtension_get_Identifier_m548598067
bjg:_Enumerator__ctor_m3419056812_AdjustorThunk
kPe:_InternalEnumerator_1_System_Collections_IEnumerator_get_Current_m1299775605_gshared
ZJa:__ZN14SpriteRenderer13GetRenderDataEv
kRh:dynCall_iifii
hYd:__Z3BoxP11Il2CppClassPv
Ewf:_MonoBehaviour_StartCoroutine_m3411253000
uCb:__ZN21UniformBufferTFMethodD2Ev
rRa:__ZN18LoadSceneOperation21PostLoadSceneAdditiveEv
KOe:_InternalEnumerator_1_System_Collections_IEnumerator_get_Current_m1096730143_AdjustorThunk
cTb:__Z36CreateScriptingArrayFromUnityObjectsI13dynamic_arrayIP6CameraLj0EEE17ScriptingArrayPtrRKT_17ScriptingClassPtr
v2f:__ZL74AssetFileNameExtensionAttribute_t1361241164_CustomAttributesCacheGeneratorP21CustomAttributesCache
c5b:__ZL34GetComponentsImplementationRecurseILb1ELi1ELi2EEbR10GameObjectbRK17CompareParametersRK39GetComponentsImplementation_ReturnValue
f1:__ZN6prcoreL12RemapGenericI15TexFormatRGB56515TexFormatRGB888EEvPKNS_9InnerInfoE
GVg:_Physics2D_GetRayIntersectionAll_Internal_Injected_m1793592321
JHh:__ZN6il2cpp5utils10MemoryPool9AddRegionEj
ilg:_Collection_1_set_Item_m3051224697_gshared
vLc:__ZN5Umbra16FileOutputStreamD0Ev
_3d:_Array_System_Collections_IList_RemoveAt_m41405158
tag:__ZL89GameObject_t1113636619_CustomAttributesCacheGenerator_GameObject_GetComponent_m1027872079P21CustomAttributesCache
Lic:__Z52Register_UnityEngine_Object_FindObjectFromInstanceIDv
ICh:__ZN6il2cpp2os11Environment17GetProcessorCountEv
HZb:__ZNSt3__26vectorIN9ShaderLab26SerializedShaderDependencyENS_9allocatorIS2_EEE8__appendEj
_U:__ZN32TransformHierarchyChangeDispatch26DispatchSelfAndAllChildrenE15TransformAccessNS_12InterestTypeE
lD:__Z46Register_UnityEngine_AudioSource_get_isPlayingv
eNc:__ZN11UnityEngine15PlatformWrapper21GetVRDeviceMirrorModeEv
sW:__ZN13RuntimeStaticI22VirtualJoystickManagerLb0EE13StaticDestroyEPv
SOd:_Interpreter_Balance_m1978770534
qw:__ZN13AudioListener12ApplyFiltersEv
H5:__ZN9Scripting11UnityEngine9Rendering8GPUFence12CleanupProxyEv
vUc:__ZN9Scripting11UnityEngine12Experimental2XR14PlaneAlignment12CleanupProxyEv
yUg:_AudioConfigurationChangeHandler_BeginInvoke_m4104069447
oJh:__ZN6il2cpp8metadata27Il2CppGenericContextCompare7CompareEPK20Il2CppGenericContextS4_
ORh:dynCall_viiii
Efe:_CompareInfo_IsPrefix_m796715920
d$g:__ZNK15dense_hashtableINSt3__24pairIK10KeyWrapperIPK22Il2CppGenericParameterEP11Il2CppClassEES6_N6il2cpp5utils11PointerHashIS4_EEN14dense_hash_mapIS6_S9_SE_NS6_14EqualsComparerINS0_8equal_toIS5_EEEENS0_9allocatorISA_EEE9SelectKeyESJ_SL_E23find_position_with_hashERS7_j
cKa:__ZL19SpriteMeshExtractorPv16VertexInputMasksiR11MeshBuffersR16DrawBuffersRangeRiS5_
Ovd:_PrimalityTest_Invoke_m2948246884
sHb:__Z11CopyTextureP7TextureiiS0_ii
Vih:__ZNSt3__214__split_bufferIN6il2cpp2vm17TypeNameParseInfoERNS_9allocatorIS3_EEED2Ev
Twb:__ZThn10632_N13GfxDeviceGLES26EnableScissorRectsPlatformEv
ZXc:_MonoEvent_get_Attributes_m3048829315
yZ:__ZN15DirectorManager14ConnectionPool16GrowEmptyBucketsEv
cce:_CaseInsensitiveHashCodeProvider_AreEqual_m3534448780
LQ:__ZN17PersistentManager32CopyToAwakeFromLoadQueueInternalER18AwakeFromLoadQueue
KCg:__Z104RuntimeInvoker_Boolean_t97287965_Int32_t2950945753_Int64U5BU5DU26_t194432655_StringU5BU5DU26_t2154486980PFvvEPK10MethodInfoPvPS4_
GEc:__ZN10Collider2D23VirtualRedirectTransferER24GenerateTypeTreeTransfer
YGb:__ZNK6Camera16SetActiveVRUsageEv
_oc:__ZL26Transfer_SimpleNativeClassI8JSONRead8GradientLb1EEvRK29SerializationCommandArgumentsR31RuntimeSerializationCommandInfo
YMh:_open
pGc:__ZN6b2Body7SetTypeE10b2BodyType
HIf:_X509CrlEntry_get_SerialNumber_m3627212772
nph:__ZN6il2cpp6icalls8mscorlib6System5Array5CloneEP11Il2CppArray
JVb:__Z30GetPlayerShouldRunInBackgroundv
mwf:_Mathf__cctor_m1175545152
eYc:_MonoEvent_IsDefined_m10931749
fHd:_NameValueCollection_AsSingleString_m3776180906
$0:__ZN6prcoreL12RemapGenericI11TexFormatI815TexFormatRGB565EEvPKNS_9InnerInfoE
Wke:_Int32_System_IConvertible_ToInt64_m3520470966
W9:__ZN9Scripting5Unity11Collections8LowLevel6Unsafe54NativeContainerSupportsMinMaxWriteRestrictionAttribute9InitProxyEv
$tb:__ZNK13TranslateGLES17FramebufferTargetEN2gl17FramebufferTargetE
Pxh:__ZL11on_gc_event11GCEventType
EPe:_InternalEnumerator_1_System_Collections_IEnumerator_get_Current_m1612699335_gshared
ABd:_TlsServerHello__ctor_m3887266572
mXh:b62
lXh:b61
eXh:b60
EXh:b67
zXh:b66
yXh:b65
LYh:b69
FXh:b68
ULg:_Enumerator_get_Current_m359737019
bia:__ZNSt3__26__treeINS_12__value_typeIi17ShadowCachingDataEENS_19__map_value_compareIiS3_NS_4lessIiEELb1EEE13stl_allocatorIS3_L18MemLabelIdentifier66ELi16EEE7destroyEPNS_11__tree_nodeIS3_PvEE
p6d:_BitConverter_ToInt64_m349022421
e_e:_Enumerator_System_Collections_IEnumerator_get_Current_m323862414_AdjustorThunk
crb:__Z28SetupPixelCorrectCoordinatesi
Z3b:__ZNSt3__218__insertion_sort_3IRN10vector_mapIiiNS_4lessIiEE13stl_allocatorINS_4pairIiiEEL18MemLabelIdentifier1ELi16EEE13value_compareEPS6_EEvT0_SD_T_
hyb:__Z5SplitRKN4core12basic_stringIcNS_20StringStorageDefaultIcEEEEcRNSt3__26vectorIS3_NS6_9allocatorIS3_EEEEi
d4e:_PKCS1_Sign_v15_m2719206817
PSg:_AesTransform__ctor_m3143546745
N6e:_Array_InternalArray__ICollection_Remove_TisRuntimeObject_m2110193223_gshared
Qph:__ZN6il2cpp2vm9Exception20GetArgumentExceptionERKNS_5utils10StringViewIDsEES6_
jFa:__ZNSt3__26vectorI13dynamic_arrayI8Vector2fLj0EENS_9allocatorIS3_EEE7reserveEj
rig:_Enumerator_System_Collections_IEnumerator_Reset_m1487823313_AdjustorThunk
B6c:_MethodCallDictionary__cctor_m2213329406
Xv:__ZN12AudioManagerD0Ev
DMh:___fwritex
FJh:__ZN6il2cpp5utils35RegisterRuntimeInitializeAndCleanupC2EPFvvES3_i
s$e:_SortKeyBuffer_Initialize_m3786111493
i$d:_Encoding__cctor_m1936558127
fAf:_Scene_get_name_m622963475_AdjustorThunk
ISf:__ZL55_EnumBuilder_t2580004198_CustomAttributesCacheGeneratorP21CustomAttributesCache
Std:_MD5_Create_m3289886172
BVg:_Physics2D_RaycastNonAlloc_Internal_m4193835177
CTd:_X509Certificate_get_Subject_m2638144878
Zde:_SyncHashtable_get_Count_m3689832098
vrf:_AsyncOperation_Finalize_m1841265672
BEb:__ZN11TypeManager18InitializeAllTypesEv
s8:__ZN9Scripting11UnityEngine16DiagnosticSwitch9InitProxyEv
ytc:__ZN13b2PulleyJointC2EPK16b2PulleyJointDef
TA:__ZN9AudioClipD0Ev
ekh:_il2cpp_class_from_name
Uig:_Queue_1__ctor_m1971992302_gshared
$ad:_MonoType_GetEvent_m28975240
dAb:__ZN14GfxContextGLES11MakeCurrentER7ApiGLESN2gl13ContextHandleE
Ipe:_MonoIO_Write_m3999708352
w8b:__ZZL31RegisterRectTransformPropertiesR22GenericPropertyBindingEN32Wrapper_RectTransformSizeDeltay113SetFloatValueEPvf
Kaf:_Array_InternalArray__ICollection_CopyTo_TisChar_t3634460470_m3599063464_gshared
ahf:_UTF7Encoding_InternalGetChars_m2722395139
U6g:__ZN15dense_hashtableINSt3__24pairIK10KeyWrapperIP9FieldInfoEiEES5_N6il2cpp5utils11PointerHashIS3_EEN14dense_hash_mapIS5_iSB_NS5_14EqualsComparerINS0_8equal_toIS4_EEEENS0_9allocatorIS7_EEE9SelectKeyESG_SI_E12maybe_shrinkEv
Bsb:__ZN16GraphicsSettings22WarmupPreloadedShadersEv
xqd:_SByte_System_IConvertible_ToSingle_m1083054891
MLg:_CostDelegate_Invoke_m898648402
Vgf:_UTF7Encoding_Equals_m227704363
otf:_DisplaysUpdatedDelegate_Invoke_m3203573844
a2b:__ZN9ShaderLab4Pass6RetainEv
w3e:_KeyPairPersistence_get_ContainerName_m4274536094
hSc:__ZN20UnityWebRequestProtoI24UnityWebRequestTransport16AtomicRefCounter14RedirectHelper14ResponseHelper15DownloadHandler13UploadHandler18CertificateHandler12HeaderHelper14AsyncOperationE25Job_RedirectTo_MainThreadEPS9_
X8e:_Array_InternalArray__IndexOf_TisSlot_t384495010_m3224390719_gshared
aTe:_Enumerator_System_Collections_IDictionaryEnumerator_get_Key_m4039922590_AdjustorThunk
Mch:__ZN6il2cpp2gc19AppendOnlyGCHashMapIPK10Il2CppTypeP20Il2CppReflectionTypeNS_8metadata14Il2CppTypeHashENS7_26Il2CppTypeEqualityComparerEE3AddERKS4_S6_
ZF:__ZN11UnityEngine15CloudWebService17CloudJobScheduler11ScheduleJobEPFvPvES2_
Vu:__ZN13RuntimeStaticINSt3__23mapIjP19AudioSampleProviderNS0_4lessIjEE13stl_allocatorINS0_4pairIKjS3_EEL18MemLabelIdentifier27ELi16EEEELb0EE13StaticDestroyEPv
WG:__ZN11UnityEngine15CloudWebService17CloudServiceEvent12ToJsonStringER9JSONWrite
_Ad:_TlsClientHello__ctor_m1986768336
VW:__ZNK18VertexChannelsInfoltERKS_
wDg:__Z89RuntimeInvoker_Boolean_t97287965_Int32_t2950945753_Int32U26_t1369213839_Int32_t2950945753PFvvEPK10MethodInfoPvPS4_
i8d:_Char_System_IConvertible_ToType_m4138905176_AdjustorThunk
Ykc:__ZN9JSONWrite8TransferIfEEvRT_PKc17TransferMetaFlags
_fa:__ZNK6Camera13GetCameraRectEbb
A_a:__ZN10MemoryFileD0Ev
wzh:__ZN6il2cpp2os10ThreadImpl22SetNativeThreadCleanupEPFvPvE
BBe:_DateTimeOffset__cctor_m3610253033
_ee:_NumberFormatInfo_get_InvariantInfo_m349577018
P7d:_Byte_CompareTo_m4285128861_AdjustorThunk
$2c:_ConfigHandler_ExtractAssembly_m2143791058
Kuh:__ZN6il2cpp8metadataL24RecursiveGenericDepthForEPK17Il2CppGenericInst
fBf:_Transform_GetChild_m1092972975
x9a:__ZN13GUIStyleState8TransferI14SafeBinaryReadEEvRT_
qkb:__Z29Transfer_Blittable_ArrayFieldI18StreamedBinaryReadILb1EEiEvRT_R9ArrayInfoRK23StaticTransferFieldInfo
od:_glDrawArrays
CF:__ZN9Scripting11UnityEngine23ClothSphereColliderPair12CleanupProxyEv
vUg:_AudioSource_get_clip_m1234340632
w$c:_ResourceCacheItem_t51292791_marshal_pinvoke_back
F5a:__ZNSt3__26vectorIN20GpuProgramParameters15StructParameterENS_9allocatorIS2_EEE21__push_back_slow_pathIS2_EEvOT_
Vnc:__ZN9JSONWrite8TransferI13dynamic_arrayI8Vector3fLj0EEEEvRT_PKc17TransferMetaFlags
xLa:__ZN14BlendShapeData8TransferI18StreamedBinaryReadILb0EEEEvRT_
v5g:__ZN15dense_hashtableINSt3__24pairIK10KeyWrapperIPK11Il2CppClassEPKcEES6_N6il2cpp5utils11PointerHashIS3_EEN14dense_hash_mapIS6_S9_SE_NS6_14EqualsComparerINS0_8equal_toIS5_EEEENS0_9allocatorISA_EEE9SelectKeyESJ_SL_E12maybe_shrinkEv
Dof:_UInt32_ToString_m4293943134_AdjustorThunk
VRe:_Comparer_1__cctor_m1018589532_gshared
S_:__ZL20FormatOrderedProcessPKcP17FormatOrderedDataPc
gbf:_Array_InternalArray__ICollection_CopyTo_TisResourceCacheItem_t51292791_m766230259_gshared
f_d:_Decoder_set_Fallback_m3834517714
shc:__Z35DebugLogHandler_CUSTOM_Internal_Log7LogTypeP12Il2CppStringP12Il2CppObject
xlh:_il2cpp_type_equals
wVh:_emscripten_glShaderBinary__wrapper
Gzb:__ZL17ProgramUniform3ivPK7ApiGLESjiihPKv
E9d:_ArrayList_Shift_m395607654
E1a:__ZN9GfxDevice25GetBackBufferColorSurfaceEv
Gfa:__ZN23TransformChangeDispatch37InitTransformHierarchyTRSChangedMasksER18TransformHierarchy
B3b:__Z29AwakeAndActivateClonedObjectsPP6ObjectRK10vector_mapIiiNSt3__24lessIiEE13stl_allocatorINS3_4pairIiiEEL18MemLabelIdentifier1ELi16EEE
Ahh:__ZN15dense_hashtableINSt3__24pairIK10KeyWrapperINS1_IPK10MethodInfoP11Il2CppClassEEEjEES9_17ReflectionMapHashIS8_EN14dense_hash_mapIS9_jSD_NS9_14EqualsComparerINS0_8equal_toIS8_EEEENS0_9allocatorISB_EEE9SelectKeyESI_SK_E14squash_deletedEv
a3e:_KeyGeneratedEventHandler_Invoke_m4131555809
zZd:_String_CharCopyReverse_m1548661297
WTc:__ZN13RuntimeStaticI11WindManagerLb0EE13StaticDestroyEPv
rmc:__Z18Transfer_BlittableI9JSONWriteLb1EaEvRK29SerializationCommandArgumentsR31RuntimeSerializationCommandInfo
vhh:__ZN13Il2CppHashMapINSt3__24pairIPK10MethodInfoP11Il2CppClassEEj17ReflectionMapHashIS7_ENS0_8equal_toIS7_EENS0_9allocatorINS1_IK10KeyWrapperIS7_EjEEEEEC2EjRKS9_RKSB_
ZKb:__ZN11HaloManager11HasAnyHalosEPK11CullResults
zHa:__ZN9Texture3D23VirtualRedirectTransferER19StreamedBinaryWriteILb0EE
lFh:_GC_reclaim_block
S_a:__ZN25SingleBlockMemoryFileData5WriteEyyPKv
klg:_Collection_1_IsValidItem_m93481171_gshared
Wvc:__Z23b2CollideRadialPolygonsP10b2ManifoldPK14b2PolygonShapeRK11b2TransformS3_S6_
fOb:__ZNK23ForwardShaderRenderLoop18RenderObjectSorterILb1EEclERK21ForwardRenderPassDataS4_
Ube:_CaseInsensitiveComparer__ctor_m1508720200
h5g:__ZN15dense_hashtableI10KeyWrapperIPK19Il2CppGenericMethodES4_N6il2cpp8metadata23Il2CppGenericMethodHashEN14dense_hash_setIS4_S7_NS4_14EqualsComparerINS6_26Il2CppGenericMethodCompareEEENSt3__29allocatorIS4_EEE8IdentityESB_SE_E12maybe_shrinkEv
SCb:__ZN10BufferGLES10BeginWriteEjj
f5g:__ZNK15dense_hashtableI10KeyWrapperIPK19Il2CppGenericMethodES4_N6il2cpp8metadata23Il2CppGenericMethodHashEN14dense_hash_setIS4_S7_NS4_14EqualsComparerINS6_26Il2CppGenericMethodCompareEEENSt3__29allocatorIS4_EEE8IdentityESB_SE_E12test_deletedEj
XNb:__ZN21BillboardBatchManager24AutoBillboardShaderPropsC2ER16ShaderKeywordSetR24BuiltinShaderParamValues
fEb:__ZN20ArchiveStorageReader10InitializeER15FileSystemEntryyb
cmh:__GLOBAL__sub_I_ArrayMetadata_cpp
xcc:__ZN22AsyncGPUReadbackBuffer6UpdateEb
RCb:__ZN7ApiGLES11FlushBufferEjN2gl12BufferTargetEll
d6b:__Z62Register_UnityEngine_PlayerConnectionInternal_RegisterInternalv
Fqb:__ZN13dynamic_arrayI22NativePlayerLoopSystemLj0EE18resize_initializedEj12ResizePolicy
Inc:__ZN9JSONWrite8TransferI13dynamic_arrayI9BoundsIntLj0EEEEvRT_PKc17TransferMetaFlags
o4:__ZL48__ManagedRegistrationHelperFunction_SceneManagerPv
jdc:__ZNK24RendererAnimationBinding9BindValueER6ObjectRKN11UnityEngine9Animation14GenericBindingERNS3_10BoundCurveE
pVc:_TypeBuilder_has_ctor_method_m2987175843
oe:_glBindBuffer
Qlb:__ZN8GUIStyle8TransferI18StreamedBinaryReadILb0EEEEvRT_
LLe:_InternalEnumerator_1_get_Current_m3500427238_gshared
yX:__ZNSt3__213__stable_sortIRN10vector_mapIijNS_4lessIiEENS_9allocatorINS_4pairIijEEEEE13value_compareENS_11__wrap_iterIPS6_EEEEvT0_SE_T_NS_15iterator_traitsISE_E15difference_typeEPNSH_10value_typeEi
NMb:__ZNK18ForwardLightsBlock33CompareWithoutSHAndMainLightAttenERKS_
$Na:__ZN10VRSettings8Daydream8TransferI18StreamedBinaryReadILb0EEEEvRT_
Yua:__ZNSt3__26__treeINS_12__value_typeIN9ShaderLab16FastPropertyNameEN18UnityPropertySheet11UnityTexEnvEEENS_19__map_value_compareIS3_S6_NS_4lessIS3_EELb1EEENS_9allocatorIS6_EEE7destroyEPNS_11__tree_nodeIS6_PvEE
_lg:_ReadOnlyCollection_1_System_Collections_IList_Clear_m108858531_gshared
WFg:__Z57RuntimeInvoker_Boolean_t97287965_Guid_t_Int32_t2950945753PFvvEPK10MethodInfoPvPS4_
Oxg:__Z102RuntimeInvoker_RuntimeObject_Int32_t2950945753_RuntimeObject_RuntimeObject_RuntimeObject_RuntimeObjectPFvvEPK10MethodInfoPvPS4_
VAd:_Context_Clear_m2678836033
haa:__ZN9Scripting5Unity11Collections8LowLevel6Unsafe24NativeContainerAttribute12CleanupProxyEv
u6g:__ZN6il2cpp2vm13MetadataCache24GetExportedTypeFromIndexEi
wkc:__ZN5Unity9rapidjson6WriterI16TempBufferWriterNS0_4UTF8IcEES4_13JSONAllocatorE9WriteUintEj
FOh:_getuid
Wzb:__ZN13dynamic_arrayI21ComputeShaderResourceLj0EE9push_backERKS0_
ake:_Int16_System_IConvertible_ToUInt64_m134975563_AdjustorThunk
d9g:__ZN6il2cpp6icalls8mscorlib6System8MonoType22get_IsGenericParameterEP20Il2CppReflectionType
V8a:__Z34scripting_class_array_element_size17ScriptingClassPtr
Cng:_Nullable_1_get_Value_m1801617894_gshared
f5e:_SymmetricTransform_TransformFinalBlock_m4059448527
Mye:_Convert_ToUInt16_m3216249716
Bva:__ZN18StreamedBinaryReadILb0EE19TransferSTLStyleMapINSt3__23mapIN9ShaderLab16FastPropertyNameE10ColorRGBAfNS2_4lessIS5_EENS2_9allocatorINS2_4pairIKS5_S6_EEEEEEEEvRT_17TransferMetaFlags
cjg:_Enumerator_System_Collections_IEnumerator_Reset_m4269083576_gshared
Bmd:_SoapServices_EncodeNs_m635167772
CVb:__ZN13RenderManager28AreCamerasUsingMotionVectorsEv
GW:__Z25InitializeLODGroupManagerPv
_Lg:_Mark_get_IsDefined_m2539660708
Bwb:__ZN13GfxDeviceGLES12EndStereoEyeE15StereoscopicEye
Gqd:_SByte_System_IConvertible_ToUInt64_m4151910932_AdjustorThunk
QHb:__ZNK12ImageFilters28ApplyAfterTransparentFiltersEv
uvf:_GameObject__ctor_m3707688467
bNb:__Z20CalculateLightMatrixRK15SharedLightDataP10Matrix4x4f
GMc:__ZN11UnityEngine7Connect15AppRunningEvent12ToJsonStringER9JSONWrite
iwa:__ZN19ShaderPropertySheet5ClearEb
sQd:_RSA_Create_m4065275734
tge:_CultureInfo_GetCultureInfo_m630276874
Zu:__ZL53__ManagedRegistrationHelperFunction_AudioClipPlayablePv
XQ:__ZN6Object17InsertObjectInMapEPS_
fLb:__ZNK6Camera11GetPositionEv
SYh:_emscripten_glClearDepth__wrapper
Jja:__ZN13dynamic_arrayI16ShaderKeywordSetLj0EE9push_backERKS0_
z$a:__ZNK16MemoryFileSystem8FilenameERK13FileEntryData
sf:_glUniform1fv
wf:_JS_FileSystem_Sync
wGg:__Z58RuntimeInvoker_Single_t1397266774_PropertyName_t3749835189PFvvEPK10MethodInfoPvPS4_
nBb:__ZNSt3__26__treeINS_12__value_typeI21GLESRenderTargetSetupN2gl6HandleILNS3_10ObjectTypeE9EEEEENS_19__map_value_compareIS2_S7_NS_4lessIS2_EELb1EEENS_9allocatorIS7_EEE7destroyEPNS_11__tree_nodeIS7_PvEE
R3e:_KeyPairPersistence__IsUserProtected_m438961964
zYd:_String_Replace_m1273907647
wld:_RealProxy_InternalGetProxyType_m2154819545
Ldd:_NumberFormatter_NumberToString_m827252518
uf:__emscripten_sample_gamepad_data
ldc:__Z22DelayedDestroyCallbackP6ObjectPv
uX:__Z14FindSceneIndexRK13dynamic_arrayI10SceneRangeLj0EEi
Qvg:__Z96RuntimeInvoker_Void_t1185182177_SByte_t1669577662_ByteU5BU5DU26_t4057885439_Int32U26_t1369213839PFvvEPK10MethodInfoPvPS4_
$qg:__Z78RuntimeInvoker_Boolean_t97287965_RuntimeObject_RuntimeObject_SByte_t1669577662PFvvEPK10MethodInfoPvPS4_
sGf:_PKCS12__ctor_m2471257156
Zrf:_Camera_get_nearClipPlane_m837839537
NS:__Z34scripting_class_get_declaring_type17ScriptingClassPtr
NOc:__ZN11UnityEngine7Connect20BasePersistentValues13RestoreValuesER8JSONRead
AMa:__ZN11TimeManagerD0Ev
g9:__ZN9Scripting11UnityEngine9Behaviour9InitProxyEv
hA:__ZN12AudioManager33GetAudioEffectInternalDefinitionsEv
Pza:__ZN9Texture2D16DeleteGfxTextureEv
zXa:__ZN20LocalFileSystemPosix4OpenER13FileEntryData14FilePermission16FileAutoBehavior
pgh:__ZN6il2cpp2gc19AppendOnlyGCHashMapIPK10Il2CppTypeP20Il2CppReflectionTypeNS_8metadata14Il2CppTypeHashENS7_26Il2CppTypeEqualityComparerEEC2Ev
$fd:_CustomAttributeData_GetCustomAttributes_m2141595938
o4g:__ZN15dense_hashtableINSt3__24pairIK10KeyWrapperIN6il2cpp5utils13dynamic_arrayIPK10Il2CppTypeLj4EEEEPFvvEEESA_NS3_8metadata19Il2CppSignatureHashEN14dense_hash_mapISA_SD_SG_NSA_14EqualsComparerINSF_22Il2CppSignatureCompareEEENS0_9allocatorISE_EEE9SelectKeyESK_SM_ED2Ev
z$c:_ResourceEnumerator_get_Entry_m1508537883
Bfc:__Z37GetTransformFromComponentOrGameObjectP6Object
vUb:__ZN23ManagedAttributeManager21GetRequiredComponentsE17ScriptingClassPtr
Afc:__ZN18DelayedCallManager14HasDelayedCallE4PPtrI6ObjectEPF15CallObjectStatePS1_PvEPFbS5_S5_ES5_
Ykd:_RemotingServices_Unmarshal_m3744595373
q3:__ZL51__ManagedRegistrationHelperFunction_ShadowSplitDataPv
dNb:__ZN19ShaderPropertySheet17UpdateTextureInfoEiRK23FastTexturePropertyNamePK10TextureRef
knd:_ObjectRecord_SetMemberValue_m1045887821
ose:_StreamWriter_Write_m2487601391
$Eb:__ZZ23InitPlayerLoopCallbacksvEN38PreUpdateCheckTexFieldInputRegistrator7ForwardEv
lAa:__ZN4crnd12crn_unpacker22decode_color_endpointsEv
Ur:__ZL54__ManagedRegistrationHelperFunction_PositionConstraintPv
vWc:_FieldInfo_get_IsLiteral_m534699794
HX:__Z34CleanupIntermediateRendererManagerPv
eie:_RegionInfo_get_CurrencyNativeName_m2071178612
uif:_Monitor_Pulse_m82725344
fge:_CultureInfo_get_NumberFormat_m1244033732
Ype:_FileStream_Dispose_m2599766137
Zdc:__Z13RegisterClassI17GlobalGameManagerEvPKc
Kg:_JS_WebRequest_GetResponseHeaders
tpb:__ZNSt3__26__treeINS_12__value_typeI26SerializedObjectIdentifieriEENS_19__map_value_compareIS2_S3_NS_4lessIS2_EELb1EEENS_9allocatorIS3_EEE7destroyEPNS_11__tree_nodeIS3_PvEE
ocf:_Array_InternalArray__Insert_TisPlayerLoopSystem_t105772105_m352117147_gshared
o3b:__ZN9Scripting18RaiseNullExceptionEPKcz
Ns:__ZN9Scripting11UnityEngine10Animations18RotationConstraint9InitProxyEv
LZ:__ZN13RuntimeStaticI13RendererSceneLb0EE16StaticInitializeEPv
Vg:_glCreateProgram
agh:__ZN6il2cpp2vm10Reflection7IsFieldEP12Il2CppObject
XLb:__ZN15SkyboxGenerator26ReleaseSkyboxVertexBuffersEv
Zie:_Guid_Compare_m231009821
Sda:__ZN24GenerateTypeTreeTransfer32TransferSTLStyleArrayWithElementI17SortingLayerEntryEEvRT_17TransferMetaFlags
CUh:_glUniformMatrix3fv__wrapper
z5e:_Array_Exists_TisRuntimeObject_m3896745628_gshared
O2:__ZL65__ManagedRegistrationHelperFunction_CustomRenderTextureUpdateZonePv
rib:__Z18Transfer_BlittableI18StreamedBinaryReadILb1EELb1E12PropertyNameEvRK29SerializationCommandArgumentsR31RuntimeSerializationCommandInfo
Xgh:__ZN15dense_hashtableINSt3__24pairIK10KeyWrapperIPK22Il2CppGenericParameterEPK24MonoGenericParameterInfoEES6_N6il2cpp5utils11PointerHashIS4_EEN14dense_hash_mapIS6_SA_SF_NS6_14EqualsComparerINS0_8equal_toIS5_EEEENS0_9allocatorISB_EEE9SelectKeyESK_SM_EC2ERKSP_j
vGh:_GC_general_register_disappearing_link
MO:__ZN23TransformChangeDispatch12CleanupClassEPv
Bma:__ZN17CollisionMeshData20VertexDataHasChangedEv
JMg:_PatternCompiler_Emit_m604664654
A6e:_Array_InternalArray__ICollection_Remove_TisKeyValuePair_2_t3842366416_m278128148_gshared
Ucc:__ZN8Renderer15SetSortingOrderEs
BLh:_deathRestart_OnTriggerEnter2D_m1021423655
Uga:__ZNK6Camera16GetTargetTextureEv
YXd:_String_CompareTo_m3030934538
Cjb:__ZN18StreamedBinaryReadILb1EE21TransferSTLStyleArrayI13dynamic_arrayI10Matrix4x4fLj0EEEEvRT_17TransferMetaFlags
VNb:__ZN13BatchRenderer12EndLoopFlushEv
t1d:_X509CertificateEnumerator_System_Collections_IEnumerator_Reset_m2928805663
oNd:_X509ChainElementEnumerator_System_Collections_IEnumerator_get_Current_m1913555061
nWd:_Single_System_IConvertible_ToDouble_m1584722292_AdjustorThunk
S8b:__ZN16MessageForwarder23RegisterMessageCallbackEiPFvPviR11MessageDataEPKN5Unity4TypeE
dxd:_MD2Managed_HashFinal_m808964912
sBe:_DateTime_op_Equality_m1022058599
Wla:__ZN4Mesh30AcquireSharedMeshRenderingDataEv
rbb:__Z35Transfer_Blittable_SingleValueFieldI14SafeBinaryReadiEvRT_R17GeneralMonoObjectRK23StaticTransferFieldInfo
Mh:_emscripten_glUniform3i
Exb:__ZNK7ApiGLES10GetContextEv
i8a:__Z18Transfer_BlittableI14SafeBinaryReadLb1E5RectTIfEEvRK29SerializationCommandArgumentsR31RuntimeSerializationCommandInfo
lCa:__ZN15TextureSettings14SetAnisoLimitsEii
dg:_glGetFramebufferAttachmentParameteriv
Neb:__Z19TransferField_ArrayI24GenerateTypeTreeTransfer27Converter_SimpleNativeClassI10RectOffsetEEvRK23StaticTransferFieldInfoR31RuntimeSerializationCommandInfoRT0_
hpf:_UInt64_System_IConvertible_ToUInt32_m2784653358_AdjustorThunk
yke:_Int16_TryParse_m1675418240
U$:__ZN6prcoreL17RemapGenericFloatI18TexFormatARGBFloat15TexFormatRGHalfEEvPKNS_9InnerInfoE
gFg:__Z107RuntimeInvoker_Void_t1185182177_Single_t1397266774_Single_t1397266774_Single_t1397266774_Single_t1397266774PFvvEPK10MethodInfoPvPS4_
Gsh:__ZN15dense_hashtableINSt3__24pairIK10KeyWrapperINS1_IPKcS4_EEEiEES6_24NamespaceAndNamePairHashN14dense_hash_mapIS6_iS9_NS6_14EqualsComparerI26NamespaceAndNamePairEqualsEENS0_9allocatorIS8_EEE9SelectKeyESD_SF_E12maybe_shrinkEv
n_h:_emscripten_glIsProgram__wrapper
abc:__ZL22PrepareMeshRenderNodesILb1EEvR35RenderNodeQueuePrepareThreadContext
aYa:__ZN20LocalFileSystemPosix5TouchER13FileEntryData
bi:_emscripten_glDrawElements
qdd:_NumberFormatter_AppendDecimalString_m10636623
nQf:__ZL59ParameterBuilder_t1137139675_CustomAttributesCacheGeneratorP21CustomAttributesCache
xAc:__ZN21b2ReportPostSolveTask7TaskJobEPS_j
VVh:_glVertexAttrib4fv__wrapper
kI:__ZN11UnityEngine15CloudWebService23WebRequestUploadHandlerD2Ev
aLa:__ZN14SafeBinaryRead21TransferSTLStyleArrayI13dynamic_arrayI16BlendShapeVertexLj0EEEEvRT_17TransferMetaFlags
eFc:__ZN20SpriteTilingProperty8TransferI14SafeBinaryReadEEvRT_
v8a:__ZL26Transfer_SimpleNativeClassI14SafeBinaryRead8GradientLb0EEvRK29SerializationCommandArgumentsR31RuntimeSerializationCommandInfo
DZh:_emscripten_glClientActiveTexture__wrapper
kvg:__Z68RuntimeInvoker_Boolean_t97287965_Int32_t2950945753_SByte_t1669577662PFvvEPK10MethodInfoPvPS4_
afd:_Assembly_GetExecutingAssembly_m4021024968
I1g:__ZNK15dense_hashtableINSt3__24pairIK10KeyWrapperIPKcEP11Il2CppClassEES5_N6il2cpp5utils11StringUtils12StringHasherIS4_EEN14dense_hash_mapIS5_S8_SE_NS5_14EqualsComparerINSB_13VmStringUtils21CaseSensitiveComparerEEENS0_9allocatorIS9_EEE9SelectKeyESJ_SL_E10test_emptyEj
Jnd:_MessageFormatter_ReadMethodResponse_m1946725361
dsa:__ZN13RenderTexture23VirtualRedirectTransferER18StreamedBinaryReadILb0EE
ikc:__ZN5Unity9rapidjson13GenericReaderINS0_4UTF8IcEES3_13JSONAllocatorE9ParseHex4INS0_25GenericInsituStringStreamIS3_EEEEjRT_
PBb:__Z17ComputeMipmapSizeiii14GraphicsFormat
Pwe:_Double_TryParseStringConstant_m3290212599
Byc:__ZN19ProcessContactsData3JobEPS_j
umh:__ZNK15dense_hashtableINSt3__24pairIK10KeyWrapperINS1_IP11Il2CppClassjEEES4_EES6_N6il2cpp8metadata14ArrayClassHashEN14dense_hash_mapIS6_S4_SB_NS6_14EqualsComparerINSA_17ArrayClassCompareEEENS0_9allocatorIS8_EEE9SelectKeyESF_SH_E3endEv
YQb:__Z59ProcessShadowCasterNodeVisibilityAndCullWithoutUmbra_KernelILN17CullingParameters9LayerCullE0ELi8EEvR9IndexListRK22SceneCullingParametersPK9SceneNodePK4AABBjjPKN4math7_float4E
N5:__ZN9Scripting11UnityEngine9Transform12CleanupProxyEv
PM:__Z16realloc_internalPvjj10MemLabelId15AllocateOptionsPKci
bSb:__Z24ScheduleCullingAllGroupsR8JobFenceRK22SceneCullingParametersiRK13CullingOutputRK13dynamic_arrayIP12CullingGroupLj0EERKS_
vHg:__Z78RuntimeInvoker_Void_t1185182177_RuntimeObject_RuntimeObject_Single_t1397266774PFvvEPK10MethodInfoPvPS4_
ROh:_internal_memalign
anb:__ZL19RequireCorLibMethodPKcS0_S0_
Hba:__ZNK5Unity9Component22GetTypeVirtualInternalEv
Fl:_emscripten_get_fullscreen_status
z0:__ZN6prcoreL26RemapGenericIntegerToFloatI17TexFormatARGB888817TexFormatRGBFloatEEvPKNS_9InnerInfoE
x9:__ZN9Scripting11UnityEngine11Application12CleanupProxyEv
U5c:_MethodDictionary_SetMethodProperty_m3032369066
zih:__ZN6il2cpp2vm14TypeNameParser26ParseTypeArgumentsOptionalERi
VRb:__ZN15LODGroupManager27GarbageCollectCameraLODDataEv
w7b:__Z13RegisterClassI7TextureEvPKc
GVb:__ZN13ScreenManagerC2Ev
_db:__Z18Transfer_BlittableI24GenerateTypeTreeTransferLb0E12PropertyNameEvRK29SerializationCommandArgumentsR31RuntimeSerializationCommandInfo
Axb:__ZN7ApiGLES4InitERK14GfxContextGLESR16GfxDeviceLevelGL
omd:_RemotingServices_CreateClientProxy_m809906894
y7c:_ReturnMessage_get_LogicalCallContext_m2352570297
q_:__ZN11TypeManager36FatalErrorOnPersistentTypeIDConflictEiPKc
bed:_Object_InternalGetHashCode_m4213713973
TCa:__ZN8Renderer15SetIsRenderableEb
MJf:__ZL54IEnumerator_t1853284238_CustomAttributesCacheGeneratorP21CustomAttributesCache
IAa:__Z14DecodeBC7BlockP9HDRColorAPKh
K1e:_BigInteger_op_RightShift_m2934036419
hdc:__ZNK24RendererAnimationBinding12GetPPtrValueERKN11UnityEngine9Animation10BoundCurveE
SRg:_Uri_Unescape_m3373094076
kLd:_X509Certificate2_Find_m2734168143
O6d:_Boolean_System_IConvertible_ToSByte_m806999
V6d:_Boolean_System_IConvertible_ToUInt32_m2723177447_AdjustorThunk
DGh:_GC_new_proc_inner
Mb:invoke_fiiffi
vra:__ZN19RenderBufferManager13GetTempBufferE17RenderTextureDesc
I_e:_MSCompatUnicodeTable_BuildTailoringTables_m1316979344
y7a:__Z35Transfer_Blittable_FixedBufferFieldI14SafeBinaryReadiEvRK29SerializationCommandArgumentsR31RuntimeSerializationCommandInfo
VHb:__ZNK25CameraStackRenderingState21IsRenderingLastCameraEv
Dxa:__ZL24stbir__filter_catmullromff
KDc:__ZN10ClipperLib7Clipper8AddOutPtEPNS_5TEdgeERKNS_8IntPointE
OUd:_SecurityElement_AddChild_m1606852781
nah:__ZN6il2cpp6icalls8mscorlib6SystemL16CheckMemberMatchI9EventInfoNS_5utils10functional6FilterINSt3__212basic_stringIcNS8_11char_traitsIcEENS8_9allocatorIcEEEENS5_13VmStringUtils21CaseSensitiveComparerEEEEEbPKT_PK11Il2CppClassSN_iRKT0_
rUb:__Z23ValidateScriptComponentP10MonoScriptPN4core12basic_stringIcNS1_20StringStorageDefaultIcEEEE
IGa:__ZNSt3__215__inplace_mergeIRNS_4lessI4PPtrI11SpriteAtlasEEENS_11__wrap_iterIPS4_EEEEvT0_SA_SA_T_NS_15iterator_traitsISA_E15difference_typeESE_PNSD_10value_typeEi
k:ABORT
JLh:_playerScript_getMovement_m153307894
Gxb:__ZN26SinglePassStereoSupportExt27InitSinglePassStereoSupportEP21ISinglePassStereoImplP9GfxDevice
VLh:_spawnPlatform_Spawn_m3926395926
Shd:_FieldBuilder_get_FieldHandle_m535167546
o6c:_MethodCall_get_GenericArguments_m1010093584
SIh:__ZNSt3__26__treeINS_12__value_typeINS_12basic_stringIcNS_11char_traitsIcEENS_9allocatorIcEEEEPFvvEEENS_19__map_value_compareIS7_SA_NS_4lessIS7_EELb1EEENS5_ISA_EEE25__emplace_unique_key_argsIS7_JRKNS_21piecewise_construct_tENS_5tupleIJOS7_EEENSL_IJEEEEEENS_4pairINS_15__tree_iteratorISA_PNS_11__tree_nodeISA_PvEEiEEbEERKT_DpOT0_
WWd:_Single_ToString_m3947131094_AdjustorThunk
Eob:__Z25scripting_field_get_flags17ScriptingFieldPtr
N_e:_MSCompatUnicodeTable_Level3_m1870873670
THb:__ZNK25CameraStackRenderingState28GetDstTextureForImageFiltersEv
ALd:_X509ChainStatus_GetInformation_m245493206
pMg:_MatchCollection__ctor_m4138850022
Qpc:__ZN8JSONRead8TransferIyEEvRT_PKc17TransferMetaFlagsb
M0f:__ZL79X509Chain_t194917408_CustomAttributesCacheGenerator_X509Chain_Build_m1705729171P21CustomAttributesCache
c8a:__Z18Transfer_BlittableI14SafeBinaryReadLb0EtEvRK29SerializationCommandArgumentsR31RuntimeSerializationCommandInfo
EL:__ZNK20DynamicHeapAllocatorI17LowLevelAllocatorE8ContainsEPKv
ltd:_HMAC_HashFinal_m1921180827
ive:_DateTime__ParseString_m2913931606
nqh:__ZN6il2cpp2vm14PlatformInvoke36MarshalCppStringToCSharpStringResultEPKc
rPb:__ZN8Material23GetStencilWriteMaterialEv
WAb:__Z12GetBlockSize14GraphicsFormat
S5e:_Array_InternalArray__ICollection_Contains_TisIntPtr_t_m272531112_gshared
Dld:_RemotingProxy_get_TypeName_m4085898624
eid:_GenericTypeParameterBuilder_not_supported_m3358960901
Rda:__ZN10TagManager8TransferI24GenerateTypeTreeTransferEEvRT_
lJc:__ZL43__ManagedRegistrationHelperFunction_PhysicsPv
llg:_Collection_1_ConvertItem_m169929357_gshared
ooe:_MonoIO_GetCurrentDirectory_m762333289
Bda:__ZN10TagManager23VirtualRedirectTransferER24GenerateTypeTreeTransfer
Ubf:_Array_InternalArray__Insert_TisCustomAttributeNamedArgument_t287865710_m3526512389_gshared
sIc:__Z70Register_UnityEngine_Physics2D_GetRayIntersectionAll_Internal_Injectedv
w3:__ZL44__ManagedRegistrationHelperFunction_GradientPv
xxa:__ZL23stbir__filter_trapezoidff
eD:__Z44Register_UnityEngine_AudioClip_get_ambisonicv
vxh:__ZN15dense_hashtableINSt3__24pairIK10KeyWrapperIPcES3_EES4_N6il2cpp5utils15PassThroughHashIS3_EEN14dense_hash_mapIS4_S3_SA_NS4_14EqualsComparerINS0_8equal_toIS3_EEEENS0_9allocatorIS6_EEE9SelectKeyESF_SH_EC2ERKSK_j
Pnf:_UInt32_System_IConvertible_ToBoolean_m1763673183
$Sb:__ZN23ScriptableRenderContextD2Ev
TNf:__ZL52ArrayList_t2718874744_CustomAttributesCacheGeneratorP21CustomAttributesCache
Dqd:_SByte_System_IConvertible_ToUInt32_m4275534457
fEc:__ZNSt3__26vectorINS0_IN10ClipperLib8IntPointENS_9allocatorIS2_EEEENS3_IS5_EEE21__push_back_slow_pathIRKS5_EEvOT_
apa:__ZN14SafeBinaryRead21TransferSTLStyleArrayI13dynamic_arrayI11TetrahedronLj0EEEEvRT_17TransferMetaFlags
zph:__ZN6il2cpp6icalls8mscorlib6System19ExtractWidenedValueE14Il2CppTypeEnumPv
Vab:__ZN14SafeBinaryRead21TransferSTLStyleArrayI13dynamic_arrayI9BoundsIntLj0EEEEvRT_17TransferMetaFlags
GRd:_SHA256Managed_HashFinal_m2914312286
Dtb:__ZN12GPUFencePoolC2Ev
jGh:_GC_invoke_finalizers
JYd:_String_Format_m2556382932
gWg:__ZL14adjustScale128PyS_i
p8a:__Z18Transfer_BlittableI14SafeBinaryReadLb0E8BitFieldEvRK29SerializationCommandArgumentsR31RuntimeSerializationCommandInfo
Nef:_Array_InternalArray__get_Item_TisTimeSpan_t881159249_m1885583191_gshared
Eie:_Guid__ctor_m3421080095
ema:__ZNK10GameObject25QueryComponentByExactTypeEPKN5Unity4TypeE
EHe:_U3CGetEnumeratorU3Ec__Iterator0_System_Collections_Generic_IEnumeratorU3CTU3E_get_Current_m52354244_gshared
pja:__ZNK9ShaderLab22ShaderStencilStateDesc17ToGfxStencilStateEPK19ShaderPropertySheetS3_RK14GfxRasterStateR15GfxStencilState
Ayc:__ZN19ProcessContactsDataC2ERN16PhysicsManager2D15PhysicsContactsEb
JAa:__Z15DecodeBC6HBlockP9HDRColorAPKh
_rf:_Camera_get_farClipPlane_m538536689
Z6:__ZN9Scripting11UnityEngine16HelpURLAttribute12CleanupProxyEv
isd:_DSA_Create_m1220983153
qGh:_GC_malloc_uncollectable
a1d:_Array_Clone_m2672907798
c4:__ZL40__ManagedRegistrationHelperFunction_RectPv
y$a:__ZNK16MemoryFileSystem6ParentERK13FileEntryDataRN4core12basic_stringIcNS3_20StringStorageDefaultIcEEEE
c8c:_SynchronizedWriter_Write_m1297715977
IW:__ZN15LODGroupManagerD2Ev
Vnd:_ObjectReader_ReadRefTypeObjectInstance_m3311150386
a1e:_BigInteger_op_Multiply_m3801644593
Qvf:_DefaultValueAttribute_Equals_m443523471
w_a:__ZN12IFileAdapter9SetLengthER13FileEntryDatay
kc:_Mix_PlayMusic
iAe:_DateTime_System_IConvertible_ToSByte_m4130251280
Tsf:_CullingGroup_SendEvents_m2491312335
jSc:__Z34GetUnityWebRequestScriptingClassesv
STh:___cxa_pure_virtual__wrapper
a5:__ZN9Scripting11UnityEngine14UnityException9InitProxyEv
Zke:_Int32_System_IConvertible_ToSByte_m3133688512_AdjustorThunk
tm:FUNCTION_TABLE_fii
Irb:__ZN19RuntimeSceneManager24PrepareNewBootstrapSceneEv
$ld:_RemotingException__ctor_m1814113852
Uch:__ZNK15dense_hashtableINSt3__24pairIK10KeyWrapperIPK10Il2CppTypeEjEES6_N6il2cpp8metadata14Il2CppTypeHashEN14dense_hash_mapIS6_jSB_NS6_14EqualsComparerINSA_26Il2CppTypeEqualityComparerEEENS0_9allocatorIS8_EEE9SelectKeyESF_SH_E12test_deletedEj
cca:__ZN10SpookyHash7Hash128EPKvjPyS2_
lRb:__ZL60CombineDirectionalShadowCasterCullingIndexListsAndDestroyJobP20ShadowCullingJobData
Tce:_Hashtable__ctor_m3890751112
Ec:_emscripten_get_now_is_monotonic
KBf:_Vector2_ToString_m1205609053_AdjustorThunk
h0b:__ZN9ShaderLab18SerializedPropertyC2ERKS0_
fJa:__ZN14SpriteRenderer10SmartResetEv
qjf:_ThreadPool_QueueUserWorkItem_m1526970260
Ibc:__ZN16ReflectionProbes20DidChangeActiveSceneEP10UnitySceneS1_
MQc:__ZN18UnityConnectClientC2Ev
GYd:_String_ToUpperInvariant_m2531236323
cFa:__ZN16SpriteRenderData8TransferI14SafeBinaryReadEEvRT_
ITh:_emscripten_glVertexAttrib3f__wrapper
Yrd:_DESTransform_GetStrongKey_m1464830895
BCf:_RijndaelTransform_Encrypt192_m3191066202
ZXa:__ZN20LocalFileSystemPosix4CopyER13FileEntryDataS1_
t3g:__ZNK15dense_hashtableI10KeyWrapperIPK19Il2CppGenericMethodES4_N6il2cpp8metadata23Il2CppGenericMethodHashEN14dense_hash_setIS4_S7_NS4_14EqualsComparerINS6_26Il2CppGenericMethodCompareEEENSt3__29allocatorIS4_EEE8IdentityESB_SE_E3endEv
kPb:__ZL31SetRenderStateForStencilMarkingR9GfxDeviceR17ShaderPassContextjj
a$a:__ZN20ArchiveStorageReader20FillChunkCachedBlockEPNS_11CachedBlockE
Cre:_StreamAsyncResult__ctor_m3118856368
B4d:_Array_SetValue_m282347242
mab:__ZNSt3__26vectorI17AnimationCurveTplIfE13stl_allocatorIS2_L18MemLabelIdentifier1ELi16EEE7reserveEj
Wmf:_UInt16_System_IConvertible_ToChar_m2096055221
n1b:__ZN9ShaderLab16SerializedTagMap8TransferI19StreamedBinaryWriteILb0EEEEvRT_
_qe:_MonoIO_get_PathSeparator_m4045322458
ONd:_X509SubjectKeyIdentifierExtension_FromHex_m1011249985
LEc:__ZN17Physics2DSettings16CheckConsistencyEv
Koh:__ZN6il2cpp6icalls8mscorlib6System9Threading6Thread25SetCachedCurrentUICultureEP12Il2CppThreadP12Il2CppObject
K3d:_ArithmeticException__ctor_m479063094
Wnd:_ObjectReader_ReadObjectInstance_m3952621118
nRb:__Z22CullDirectionalShadowsR9IndexListPK9SceneNodePK4AABBR22DirectionalCullContext
Efd:_Default_BindToMethod_m490530316
lRc:__ZN11UnityEngine7Connect20RemoteConfigSettings16Internal_DestroyEPv
Ble:_Int32_ToString_m2507389746
cKd:_X509KeyUsageExtension_ToString_m3542316380
lCf:_RijndaelManaged__ctor_m1562735454
JAd:_SslCipherSuite__ctor_m1470082018
V5g:__ZN15dense_hashtableINSt3__24pairIK10KeyWrapperIPK11Il2CppClassEPKcEES6_N6il2cpp5utils11PointerHashIS3_EEN14dense_hash_mapIS6_S9_SE_NS6_14EqualsComparerINS0_8equal_toIS5_EEEENS0_9allocatorISA_EEE9SelectKeyESJ_SL_E4findERS7_
xJ:__ZN11UnityEngine15CloudWebService14RestDownloader7OnAbortEv
WEh:_alloc_mark_stack
ZTa:__ZN13MonoBehaviour26WillUnloadScriptableObjectEv
Oeb:__Z19TransferField_ArrayI24GenerateTypeTreeTransfer27Converter_SimpleNativeClassI8GradientEEvRK23StaticTransferFieldInfoR31RuntimeSerializationCommandInfoRT0_
yEf:_TlsCipherSuite__ctor_m3580955828
uG:__ZN11UnityEngine15CloudWebService16SessionContainer16MarkAsDispatchedERKN4core12basic_stringIcNS2_20StringStorageDefaultIcEEEE
wwh:__ZN6il2cpp2vm12GenericClass6IsEnumEP18Il2CppGenericClass
djc:__ZN16memory_pool_implILi28EE15AutoPoolWrapper10InitializeEPv
Khg:_List_1_System_Collections_IList_IndexOf_m3921550135_gshared
ZEc:__ZN17Physics2DSettings8TransferI19StreamedBinaryWriteILb0EEEEvRT_
$vf:_Logger_GetString_m3669755330
D9b:__ZN16GraphicsSettings15InitializeClassEv
xNg:_PatternLinkStack_SetCurrent_m366511098
fhf:_UTF7Decoder__ctor_m546843796
eFe:_Double_System_IConvertible_ToUInt32_m271206838_AdjustorThunk
ODa:__ZN16LightmapSettingsD0Ev
W6b:__ZN14AsyncOperation26ClearCachedScriptingObjectEv
lua:__ZNK9ShaderLab11ShaderState34ShouldRemoveAnyUnsupportedProgramsEv
Wcf:_Array_InternalArray__set_Item_TisResourceCacheItem_t51292791_m3621128445_gshared
NLh:_playerScript_setMovement_m2468495105
ymg:_ReadOnlyCollection_1_System_Collections_IList_Add_m1881324749_gshared
c7g:__ZL32InitializeCustomAttributesCachesPv
f$a:__ZN20ArchiveStorageReaderD0Ev
iZb:__ZN6Shader23VirtualRedirectTransferER19StreamedBinaryWriteILb0EE
QLc:__ZN9Scripting11UnityEngine20RemoteConfigSettings12CleanupProxyEv
r5a:__ZN18GlslGpuProgramGLESC2ERK13dynamic_arrayIhLj0EER22CreateGpuProgramOutput
pp:__ZN14SafeBinaryRead21TransferSTLStyleArrayI13dynamic_arrayI8Vector3fLj0EEEEvRT_17TransferMetaFlags
rRg:_Uri__ctor_m3848281005
dpc:__Z35Transfer_Blittable_FixedBufferFieldI8JSONReadaEvRK29SerializationCommandArgumentsR31RuntimeSerializationCommandInfo
dYa:__ZNK20LocalFileSystemPosix20GetApplicationFolderEv
Hpd:_StreamingContext_Equals_m2722903674_AdjustorThunk
wG:__ZN11UnityEngine15CloudWebService14DataDispatcher31SetupSessionContainerToDispatchEv
Wkh:_il2cpp_method_get_return_type
Hrd:_CspParameters__ctor_m1928090281
r2:__ZL50__ManagedRegistrationHelperFunction_AsyncOperationPv
$ta:__ZN9ShaderLab11shaderprops9GetVectorEPK19ShaderPropertySheetS3_NS_16FastPropertyNameE
Lv:__ZN4FMOD12ChannelGroup10getDSPHeadEPPNS_3DSPE
ECc:__ZN10Collider2D9SetOffsetERK8Vector2f
Yv:__ZN12AudioManager17MainThreadCleanupEv
BUd:_Evidence_CopyTo_m872435527
o2d:_SecurityParser_OnEndElement_m2088612360
$fa:__ZNK6Camera18ScreenToWorldPointERK8Vector3f
ov:__ZN9Scripting11UnityEngine5Audio18AudioMixerPlayable9InitProxyEv
bub:__ZNK13TranslateGLES13GetFormatDescE14GraphicsFormat
sGc:__ZNK15b2ContactFilter13ShouldCollideEP9b2FixtureS1_
MYa:__ZN17ArchiveFileSystemD0Ev
WNg:_BackslashNumber_ResolveReference_m4176908213
CLe:_InternalEnumerator_1_System_Collections_IEnumerator_get_Current_m888718134_AdjustorThunk
lbe:_SynchronizedArrayListWrapper_IndexOf_m1028529531
qWg:__ZL22div192by96to32withRestPyS_S_jjj
UNb:__ZN14qsort_internal5QSortIP20ShadowCasterSortDatai26ShadowCasterSortDataSorterEEvT_S4_T0_T1_
HJ:__ZN11UnityEngine15CloudWebService19SessionEventManager5StartERKN4core12basic_stringIcNS2_20StringStorageDefaultIcEEEEii
rr:__ZNSt3__27__sort4IR23DependencySortPredicatePN4core4pairIiP9BehaviourLb0EEEEEjT0_S9_S9_S9_T_
hab:__Z22TransferField_NonArrayI14SafeBinaryRead27Converter_SimpleNativeClassI8GradientEEvRK23StaticTransferFieldInfoR31RuntimeSerializationCommandInfoRT0_
af:_emscripten_glBufferData
Iqg:_UnityEvent_2_FindMethod_Impl_m2569180594_gshared
ef:_glUniform3iv
PNh:___fseeko
gFc:__ZN20SpriteTilingProperty8TransferI18StreamedBinaryReadILb0EEEEvRT_
Nlc:__Z18Transfer_BlittableI9JSONWriteLb0E9BoundsIntEvRK29SerializationCommandArgumentsR31RuntimeSerializationCommandInfo
jmf:_Type_GetMethod_m1197120913
tOh:_fwrite
w0c:_COMException__ctor_m3707984232
ica:__ZN14SafeBinaryRead8TransferIiEEvRT_PKc17TransferMetaFlags
Lnb:__ZN13MonoBehaviourD0Ev
sSg:_SymmetricTransform_CTS_m764800021
YNh:_pipe
bTb:__Z28CleanupScriptableCullResultsP21ScriptableCullResults
pGf:_SubjectAltNameExtension_ToString_m3628154311
Wuf:_RenderPipelineManager_get_currentPipeline_m1638613344
X2:__ZL47__ManagedRegistrationHelperFunction_LightDataGIPv
Gsc:__ZNK12b2MotorJoint10GetAnchorBEv
Z$b:__ZNSt3__26vectorIN9ShaderLab19SerializedSubShaderENS_9allocatorIS2_EEE6resizeEj
_Vb:__ZN4FileC2Ev
jCg:__Z81RuntimeInvoker_Void_t1185182177_RuntimeObject_Double_t594665363_Int32_t2950945753PFvvEPK10MethodInfoPvPS4_
S1g:__ZN14dense_hash_mapI10KeyWrapperIP9FieldInfoEiN6il2cpp5utils11PointerHashIS1_EENS3_14EqualsComparerINSt3__28equal_toIS2_EEEENS9_9allocatorINS9_4pairIKS3_iEEEEEC2EjRKS7_RKSC_
B2e:_BitConverterLE_UIntFromBytes_m3974925535
Jlf:_Type_GetTypeFromHandle_m1620074514
Fdh:__ZN15dense_hashtableINSt3__24pairIK10KeyWrapperINS1_IPK10MethodInfoP11Il2CppClassEEEjEES9_17ReflectionMapHashIS8_EN14dense_hash_mapIS9_jSD_NS9_14EqualsComparerINS0_8equal_toIS8_EEEENS0_9allocatorISB_EEE9SelectKeyESI_SK_E12maybe_shrinkEv
Dfa:__ZN14BatchAllocator16AllocateInternalEPPvijjj
wvf:_GameObject_SendMessage_m3720186693
C3d:_ArgumentException_get_Message_m520762021
AJe:_InternalEnumerator_1_System_Collections_IEnumerator_get_Current_m1641466962_AdjustorThunk
O2g:__ZN14dense_hash_setI10KeyWrapperIPK17Il2CppGenericInstEN6il2cpp8metadata21Il2CppGenericInstHashENS4_14EqualsComparerINS6_24Il2CppGenericInstCompareEEENSt3__29allocatorIS4_EEEC2EjRKS7_RKSA_
$Fd:_HybridDictionary_Switch_m3818192922
lEh:_min_bytes_allocd
tjb:__ZN17AnimationCurveTplIfE15InvalidateCacheEv
pke:_Int32_CheckStyle_m3421319992
dGa:__ZN6Sprite8TransferI19StreamedBinaryWriteILb0EEEEvRT_
to:__ZN9Scripting11UnityEngine2AI7NavMesh9InitProxyEv
abf:_Array_InternalArray__ICollection_CopyTo_TisLabelData_t360167391_m175414846_gshared
Jf:_glReadPixels
Z0e:_BigInteger_op_Implicit_m378428706
oGc:__ZN10Collider2D27UpdateColliderMaterialStateEv
qPa:__Z14resize_trimmedINSt3__26vectorIi13stl_allocatorIiL18MemLabelIdentifier13ELi16EEEEEvRT_j
HFe:_Enum_System_IConvertible_ToDateTime_m3823814707
Tlb:__Z22TransferField_NonArrayI18StreamedBinaryReadILb0EE27Converter_SimpleNativeClassI8GUIStyleEEvRK23StaticTransferFieldInfoR31RuntimeSerializationCommandInfoRT0_
mFe:_Double_CompareTo_m3151899116_AdjustorThunk
Ccd:_NumberFormatter_Init_m2982613221
_Zh:_glIsEnabled__wrapper
yhd:_EnumBuilder_GetCustomAttributes_m166600193
HSg:_Check_Source_m4098695967
wxe:_Convert_ToInt32_m2128774575
hGh:_GC_notify_or_invoke_finalizers
LJc:__Z18RegisterModule_TLSv
Uyh:__ZN6il2cpp2os6Thread5SleepEjb
Yib:__ZN18StreamedBinaryReadILb1EE21TransferSTLStyleArrayIN4core12basic_stringIcNS2_20StringStorageDefaultIcEEEEEEvRT_17TransferMetaFlags
jda:__ZN25ThreadsafeLinearAllocator15SelectFreeBlockEv
WXd:_String_Compare_m1293271421
Awf:_MonoBehaviour_StartCoroutine_m2618285814
Oke:_Int32_System_IConvertible_ToDateTime_m1824716955_AdjustorThunk
HTh:_emscripten_glUniform3f__wrapper
Zm:FUNCTION_TABLE_viiiifii
Ogg:_List_1_set_Item_m3289315279_gshared
ile:_Int32_CompareTo_m2864982090
SAh:__ZN15dense_hashtableINSt3__24pairIK10KeyWrapperIPK19Il2CppGenericMethodEP10MethodInfoEES6_N6il2cpp8metadata23Il2CppGenericMethodHashEN14dense_hash_mapIS6_S9_SD_NS6_14EqualsComparerINSC_26Il2CppGenericMethodCompareEEENS0_9allocatorISA_EEE9SelectKeyESH_SJ_E4findERS7_
Jda:__ZN10TagManager23AddDefaultLayerIfNeededEv
Tia:__ZN10FlareLayer12AddToManagerEv
WX:__ZN18AsyncUploadManagerC2E10MemLabelId
Inh:__ZNK15dense_hashtableINSt3__24pairIK10KeyWrapperINS1_IP11Il2CppClassjEEES4_EES6_N6il2cpp8metadata14ArrayClassHashEN14dense_hash_mapIS6_S4_SB_NS6_14EqualsComparerINSA_17ArrayClassCompareEEENS0_9allocatorIS8_EEE9SelectKeyESF_SH_E12test_deletedEj
T2b:__ZNSt3__26__treeIN12ShaderErrors11ShaderErrorENS_4lessIS2_EENS_9allocatorIS2_EEE25__emplace_unique_key_argsIS2_JS2_EEENS_4pairINS_15__tree_iteratorIS2_PNS_11__tree_nodeIS2_PvEEiEEbEERKT_DpOT0_
zOa:__ZN13BuildSettings23VirtualRedirectTransferER24GenerateTypeTreeTransfer
Eeb:__ZN24GenerateTypeTreeTransfer21TransferSTLStyleArrayINSt3__26vectorI8GUIStyle13stl_allocatorIS3_L18MemLabelIdentifier1ELi16EEEEEEvRT_17TransferMetaFlags
poc:__Z18Transfer_BlittableI8JSONReadLb1E8Vector2fEvRK29SerializationCommandArgumentsR31RuntimeSerializationCommandInfo
W_a:__ZN20ArchiveStorageReader15ReadFromStorageEyyPvPy
uFe:_Double_ToString_m1051753975
Pxc:__ZNSt3__27__sort4IRN14Raycast2DQuery31RaycastHitsByFractionComparitorEP12RaycastHit2DEEjT0_S6_S6_S6_T_
aM:__ZN13MemoryManager12LowLevelFreeEPvj
ZFb:__Z16PresentAfterDrawN9GfxDevice11PresentModeE
zIa:__ZN10DynamicVBO19FillQuadIndexBufferER21DynamicVBOChunkHandle
mHf:_PKCS12_Clone_m2085085101
SBh:__ZN6il2cpp2vm6String8NewUtf16ERKNS_5utils10StringViewIDsEE
wxd:_MD5SHA1__ctor_m4081016482
MCc:__ZN16PhysicsManager2D15PhysicsContacts15DestroyContactsEP10Collider2D
dYh:_glBindBufferBase__wrapper
Vkg:_Collection_1_Add_m1180505945_gshared
LO:__ZN23TransformChangeDispatch15InitializeClassEPv
qLb:__ZN22MotionVectorRenderLoop16PerformRenderingER8JobFence
d1b:__ZN9ShaderLab20SerializedSubProgram15StructParameter8TransferI18StreamedBinaryReadILb0EEEEvRT_
hXh:_glTexSubImage2D__wrapper
EI:__ZN11UnityEngine15CloudWebService18RestFileDownloader13OnReceiveDataEPKvj
Jkc:__ZN5Unity9rapidjson6WriterI16TempBufferWriterNS0_4UTF8IcEES4_13JSONAllocatorE10StartArrayEv
Ylg:_ReadOnlyCollection_1_System_Collections_IEnumerable_GetEnumerator_m610559569_gshared
uja:__ZL22PrepareValueParametersI27OverridingParameterPreparerEvRK13dynamic_arrayIN20GpuProgramParameters14ValueParameterELj0EEjjjRS1_IhLj4EERKT_
OSh:dynCall_iiiiiiiii
bZb:__ZN6ShaderD0Ev
Tdc:__ZN18BackgroundJobQueue19ScheduleJobInternalEPFvPvES0_RKNS_8JobFenceE
ivh:__ZN6il2cpp2gc8GCHandle9GetTargetEj
P6:__ZN9Scripting11UnityEngine8Keyframe12CleanupProxyEv
yGb:__ZN25CameraStackRenderingState18EndStereoRenderingEv
HXa:__ZN20LocalFileSystemPosix9SetLengthER13FileEntryDatay
_me:_IntPtr_op_Explicit_m1593085246
kKh:__ZN6il2cpp5utils25NativeDelegateMethodCache17GetNativeDelegateEPFvvE
Fj:_emscripten_glGetProgramiv
PNa:__ZN26PlayerSettingsSplashScreen8TransferI24GenerateTypeTreeTransferEEvRT_
M$:__ZN6prcoreL17RemapGenericFloatI18TexFormatRGBAFloat14TexFormatRHalfEEvPKNS_9InnerInfoE
xGe:_Environment_get_Platform_m520224871
ree:_FormatException__ctor_m1479314061
bg:_glScissor
sge:_CultureInfo_insert_into_shared_tables_m4239017467
MEf:_TlsClientSettings_set_ClientCertificate_m3374228612
Iqe:_MemoryStream_Read_m337792459
Tbf:_Array_InternalArray__Insert_TisRuntimeObject_m1619219378_gshared
mse:_StreamWriter_LowLevelWrite_m1318762026
Rbd:_MulticastDelegate_GetHashCode_m3864330728
Ccg:__ZL95Physics2D_t1528932956_CustomAttributesCacheGenerator_Physics2D_Raycast_m1407159225____minDepth4P21CustomAttributesCache
Dvg:__Z133RuntimeInvoker_Int32_t2950945753_RuntimeObject_RuntimeObject_Int32_t2950945753_Int32_t2950945753_RuntimeObject_ContextU26_t3937453398PFvvEPK10MethodInfoPvPS4_
svb:__ZN13GfxDeviceGLES21RegisterNativeTextureE9TextureIDi16TextureDimension
Gm:FUNCTION_TABLE_iiiiiiif
mxg:__Z118RuntimeInvoker_Int32_t2950945753_IntPtr_t_RuntimeObject_Int32_t2950945753_Int32_t2950945753_MonoIOErrorU26_t1548853198PFvvEPK10MethodInfoPvPS4_
BYh:_emscripten_glUniform4fv__wrapper
Em:FUNCTION_TABLE_iiiiiiii
Oea:__ZN14SafeBinaryRead21TransferSTLStyleArrayI13dynamic_arrayIN10GameObject13ComponentPairELj0EEEEvRT_17TransferMetaFlags
r_:__ZN4core8hash_mapIiP4RTTIN11TypeManager27HashFunctorPersistentTypeIDENSt3__28equal_toIiEEEixERKi
BIc:__ZN19ControllerHitReportD2Ev
wMe:_InternalEnumerator_1_System_Collections_IEnumerator_get_Current_m4189894603_gshared
XHh:__ZN6il2cpp2os11MutexHandle4WaitEv
tI:__ZN11UnityEngine15CloudWebService23WebRequestUploadHandler8GetBytesEv
gWd:_Single_System_IConvertible_ToChar_m1898259383
b1:__ZN6prcoreL12RemapGenericI11TexFormatI817TexFormatARGB4444EEvPKNS_9InnerInfoE
cje:_Guid_Equals_m1866984197_AdjustorThunk
sNa:__ZNK14PlayerSettings22GetTypeVirtualInternalEv
j_e:_Enumerator_MoveNext_m1050804954_AdjustorThunk
Sue:_Convert_ToChar_m2261593104
pCc:__ZN16CircleCollider2D16CheckConsistencyEv
Ish:__ZN15dense_hashtableINSt3__24pairIK10KeyWrapperINS1_IPKcS4_EEEiEES6_24NamespaceAndNamePairHashN14dense_hash_mapIS6_iS9_NS6_14EqualsComparerI26NamespaceAndNamePairEqualsEENS0_9allocatorIS8_EEE9SelectKeyESD_SF_EC2ERKSI_j
cNf:__ZL61ComImportAttribute_t1295173782_CustomAttributesCacheGeneratorP21CustomAttributesCache
WFe:_Enum_FormatSpecifier_X_m2932245600
DY:__ZN15DirectorManager12RegisterJobsEP13PlayableGraph
Ite:_Stack_Push_m2529252115
EJ:__ZN11UnityEngine15CloudWebService14DataDispatcher10InitializeERKN4core12basic_stringIcNS2_20StringStorageDefaultIcEEEEPvjRNS0_18ICloudJobSchedulerE
JQc:__ZN22CrashReportingSettingsC2Ev
bsd:_DESTransform__cctor_m244488330
hvb:__ZN13GfxDeviceGLES23ResolveDepthIntoTextureE12ObjectHandleI17RenderSurface_TagP17RenderSurfaceBaseES4_
fDh:__ZN6il2cpp2vm13ComObjectBaseD2Ev
xfd:_AssemblyName_OnDeserialization_m3779987437
bJ:__ZN11UnityEngine15CloudWebService14DataDispatcher17PlayerLoopHandlerEv
Ewe:_Convert_ToDouble_m1177445661
NOd:_Interpreter_GetString_m94448266
Y2:__ZL48__ManagedRegistrationHelperFunction_LightmappingPv
EMc:__ZN11UnityEngine7Connect15AppRunningEventC2Ejjjj
pnc:__ZN9JSONWrite8TransferI13dynamic_arrayI12PropertyNameLj0EEEEvRT_PKc17TransferMetaFlags
nLh:__ZN6il2cpp6icalls8mscorlib6System8DateTime16GetTimeMonotonicEv
BUa:__ZN19ComputeShaderKernelC2ERKS_
Ama:__ZN4Mesh14ClearSkinCacheEv
s8c:_TextReader_ReadToEnd_m2648397074
tmc:__Z18Transfer_BlittableI9JSONWriteLb0EjEvRK29SerializationCommandArgumentsR31RuntimeSerializationCommandInfo
_pg:_UnityAction_2_BeginInvoke_m1769266175_gshared
E1b:__ZL15GetIndexForNameRNSt3__23mapIN4core12basic_stringIcNS1_20StringStorageDefaultIcEEEEiNS_4lessIS5_EENS_9allocatorINS_4pairIKS5_iEEEEEERSA_
qg:__exit
Qsg:__Z86RuntimeInvoker_Int32_t2950945753_Int16_t2552820387_Int32_t2950945753_Int32_t2950945753PFvvEPK10MethodInfoPvPS4_
Yme:_IntPtr_op_Inequality_m3063970704
aZ:__ZNK15PlayableMethods19InvokeBehaviourPlayER18ScriptingObjectPtrRK9HPlayableP18ScriptingFrameData
oMc:__ZN22BaseUnityConnectClient19OnEnterStateStoppedEv
_Yb:__ZL31FindActiveTransformWithPathImplPKcR10GameObjectb
EUh:_glViewport__wrapper
olg:_ReadOnlyCollection_1_System_Collections_Generic_ICollectionU3CTU3E_Add_m3521523143_gshared
XSh:b5
sEd:_SendRecordAsyncResult__ctor_m425551707
eSf:__ZL57DispIdAttribute_t491906453_CustomAttributesCacheGeneratorP21CustomAttributesCache
QSh:b0
RSh:b1
SSh:b2
oLa:__ZN4Mesh8TransferI24GenerateTypeTreeTransferEEvRT_
srg:__Z128RuntimeInvoker_Boolean_t97287965_Int32U26_t1369213839_RuntimeObject_SByte_t1669577662_SByte_t1669577662_ExceptionU26_t3600731591PFvvEPK10MethodInfoPvPS4_
_Sh:b8
$Sh:b9
U8g:__ZN6il2cpp2vm21ThreadPoolCompartmentC2Ev
jva:__Z14resize_trimmedINSt3__26vectorIN4core12basic_stringIcNS2_20StringStorageDefaultIcEEEE13stl_allocatorIS6_L18MemLabelIdentifier1ELi16EEEEEvRT_j
sG:__ZN11UnityEngine15CloudWebService16SessionContainer13DeleteArchiveERKN4core12basic_stringIcNS2_20StringStorageDefaultIcEEEE
PE:__Z50AudioSampleProvider_CUSTOM_InternalSetScriptingPtrjP12Il2CppObject
OFe:_Enum_System_IConvertible_ToSingle_m1234919892
HId:_IPv6Address_Parse_m3004687047
dSc:__ZN20UnityWebRequestProtoI24UnityWebRequestTransport16AtomicRefCounter14RedirectHelper14ResponseHelper15DownloadHandler13UploadHandler18CertificateHandler12HeaderHelper14AsyncOperationE11PostRequestEv
ddh:__ZN15dense_hashtableINSt3__24pairIK10KeyWrapperIPK10Il2CppTypeEjEES6_N6il2cpp8metadata14Il2CppTypeHashEN14dense_hash_mapIS6_jSB_NS6_14EqualsComparerINSA_26Il2CppTypeEqualityComparerEEENS0_9allocatorIS8_EEE9SelectKeyESF_SH_E9copy_fromERKSK_j
fqg:__ZN18VirtActionInvoker2I17Scene_t2348375561S0_E6InvokeEjP12Il2CppObjectS0_S0_
IJ:__ZN19CloudServiceHandler17PauseEventHandlerEb
Tla:__ZN19ShaderPropertySheetD0Ev
WXe:_DefaultComparer_GetHashCode_m605456464_gshared
WCf:_RIPEMD160Managed_HHH_m2839246531
Dnf:_UInt32_Parse_m2778221109
geb:__Z18Transfer_BlittableI24GenerateTypeTreeTransferLb0EaEvRK29SerializationCommandArgumentsR31RuntimeSerializationCommandInfo
WF:__ZN11UnityEngine15CloudWebService18CloudServiceConfigD2Ev
b0:__ZN6prcoreL17RemapGenericFloatI15TexFormatRGHalf15TexFormatRFloatEEvPKNS_9InnerInfoE
BVa:__ZN2UI13RectTransform8TransferI19StreamedBinaryWriteILb0EEEEvRT_
pid:_GenericTypeParameterBuilder_GetPropertyImpl_m2584778600
rad:_MonoCustomAttrs_IsDefinedInternal_m2193933235
gZc:_MonoMethod_get_IsGenericMethodDefinition_m3024870835
b$a:__ZN20ArchiveStorageReader18DestroyCachedBlockEPNS_11CachedBlockE
Cgh:__ZN15dense_hashtableINSt3__24pairIK10KeyWrapperIPK14Il2CppAssemblyEPK22Il2CppMonoAssemblyNameEES6_N6il2cpp5utils11PointerHashIS4_EEN14dense_hash_mapIS6_SA_SF_NS6_14EqualsComparerINS0_8equal_toIS5_EEEENS0_9allocatorISB_EEE9SelectKeyESK_SM_E9copy_fromERKSP_j
Ajc:__ZN9Scripting11UnityEngine10GUIUtility9InitProxyEv
U1b:__ZN9ShaderLab4Pass24CreateFromSerializedPassERKNS_14SerializedPassEPK6Shader
itd:_HMAC_Dispose_m3665032088
Xk:_emscripten_set_deviceorientation_callback
Jwa:__ZNK14Texture2DArray22GetTypeVirtualInternalEv
oJe:_InternalEnumerator_1_System_Collections_IEnumerator_get_Current_m1277470738_gshared
Tfh:__ZN6il2cpp2vm10Reflection15GetParamObjectsEPK10MethodInfoP11Il2CppClass
VY:__ZN8Playable16ProcessPlayStateERK19DirectorVisitorInfo
c1d:_X501_ToString_m2278029064
Bqh:__ZN6il2cpp2vm13LivenessState14TraverseObjectEP12Il2CppObjectPS1_
ma:invoke_viifiii
DGa:__ZNSt3__26vectorIN4core12basic_stringIcNS1_20StringStorageDefaultIcEEEE13stl_allocatorIS5_L18MemLabelIdentifier81ELi16EEE21__push_back_slow_pathIRKS5_EEvOT_
B2b:__ZN9ShaderLab20SerializedSubProgram15AddTextureParamEPKciib16TextureDimension
otc:__ZNK7b2Mat3315GetSymInverse33EPS_
oPa:__ZN14SafeBinaryRead21TransferSTLStyleArrayINSt3__26vectorIN30RuntimeInitializeOnLoadManager15ClassMethodInfoE13stl_allocatorIS4_L18MemLabelIdentifier13ELi16EEEEEEvRT_17TransferMetaFlags
d7:__ZN9Scripting11UnityEngine16GradientAlphaKey12CleanupProxyEv
TNg:_Parser_NewParseException_m686511029
xad:_MonoEnumInfo__ctor_m3350651181_AdjustorThunk
pAa:__ZN4crnd12crn_unpacker22decode_alpha_selectorsEv
_Gg:__Z98RuntimeInvoker_ContactFilter2D_t3805203441_Int32_t2950945753_Single_t1397266774_Single_t1397266774PFvvEPK10MethodInfoPvPS4_
Pgc:__ZN9Scripting30CreateScriptableObjectWithTypeE28ScriptingSystemTypeObjectPtrb
yBg:__Z131RuntimeInvoker_Int32_t2950945753_RuntimeObject_Int32_t2950945753_RuntimeObject_RuntimeObject_SByte_t1669577662_Int32U26_t1369213839PFvvEPK10MethodInfoPvPS4_
yub:__ZN13GfxDeviceGLES19SetUserBackfaceModeEb
vNb:__ZN30ForwardShaderRenderLoopScratchD2Ev
hnf:_UInt16_System_IConvertible_ToInt64_m3635199533_AdjustorThunk
kRg:_Uri_CompactEscaped_m2984961597
jDh:__ZN6il2cpp6icalls8mscorlib6System7Runtime16CompilerServices14RuntimeHelpers22get_OffsetToStringDataEv
zPc:__ZN20UnityConnectSettingsD0Ev
jqa:__Z15GetLightManagerv
gla:__ZN9GfxDevice24GetMaxStaticBatchIndicesEv
IXg:__ZL24UnresolvedVirtualCall_70P12Il2CppObjectS0_iS0_S0_S0_S0_S0_S0_PK10MethodInfo
WFf:_ExtendedKeyUsageExtension_Decode_m2326833343
y0a:__ZN9GfxDevice13SetViewMatrixERK10Matrix4x4f
Xr:__ZL50__ManagedRegistrationHelperFunction_AnimationStatePv
gLc:__ZN9Scripting11UnityEngine8Tilemaps8TileBase9InitProxyEv
A1:__ZN6prcoreL12RemapGenericI17TexFormatRGBA888817TexFormatARGB1555EEvPKNS_9InnerInfoE
Wzf:_Renderer_get_bounds_m1803204000
uha:__ZN13MonoBehaviour30InvokeMethodOrCoroutineCheckedE18ScriptingMethodPtr18ScriptingObjectPtrP21ScriptingExceptionPtr
w0a:__ZN9GfxDevice21SetWorldMatrixAndTypeERK10Matrix4x4f13TransformType
lde:_Hashtable_set_Item_m1120781262
Hd:emscriptenWebGLComputeImageSize
rla:__Z19GetVertexFormatSize12VertexFormat
nig:_List_1_get_Item_m1878021807_gshared
qBa:__ZN17SharedTextureData17GetImageReferenceEP14ImageReferenceii
kef:_Array_InternalArray__get_Item_TisKeyValuePair_2_t3842366416_m3937535230_gshared
sCc:__ZNK16CircleCollider2D22GetTypeVirtualInternalEv
fsf:_Camera_ScreenPointToRay_m2198551247
ryh:__ZN6il2cpp6icalls8mscorlib6System9AppDomain15getFriendlyNameEP15Il2CppAppDomain
Gwa:__ZN14Texture2DArray13AwakeFromLoadE17AwakeFromLoadMode
LIb:__ZL18ReplacementPassJobPN21GfxDeviceAsyncCommand10ArgScratchEPKNS_3ArgE
bSe:_Comparer_1__cctor_m1360765445_gshared
xub:__ZN13GfxDeviceGLES12GetSRGBWriteEv
XLh:__GLOBAL__sub_I_Il2CppCodeRegistration_cpp
qOg:_Parser_ParseOptions_m2606822689
CNc:__ZN11UnityEngine15PlatformWrapper15GetBuildVersionEv
OQd:_RSAPKCS1KeyExchangeFormatter__ctor_m1170240343
OSe:_Enumerator_VerifyCurrent_m829026141_AdjustorThunk
cSb:__ZN12CullingGroup13NotifyVisibleEv
Lha:__ZN18ScriptingArguments9AddIntPtrEPv
v9c:_OverflowException__ctor_m694321376
hN:__ZNSt3__26__treeINS_12__value_typeINS_4pairIPcS3_EEPFbPvR14SafeBinaryReadEEENS_19__map_value_compareIS4_SA_20smaller_tstring_pairIPKcELb1EEENS_9allocatorISA_EEE7destroyEPNS_11__tree_nodeISA_S5_EE
Ooa:__ZN19LightProbeOcclusion8TransferI14SafeBinaryReadEEvRT_
TP:__ZN19ScriptingInvocationC2E18ScriptingMethodPtr
g3c:_LeaseManager_SetPollTime_m3584231103
Epa:__ZN11LightProbes14LightProbeDataD2Ev
l0g:__ZN6il2cpp2vm5Class9IsGenericEPK11Il2CppClass
D7a:__Z18Transfer_BlittableI14SafeBinaryReadLb0EfEvRK29SerializationCommandArgumentsR31RuntimeSerializationCommandInfo
tHb:__Z11CopyTextureP7TextureiiiiiiS0_iiii
pVh:_glFramebufferTextureLayer__wrapper
b_:__ZNSt3__26__treeINS_12__value_typeIPK6CameraNS_6vectorIfNS_9allocatorIfEEEEEENS_19__map_value_compareIS4_S9_NS_4lessIS4_EELb1EEENS6_IS9_EEE7destroyEPNS_11__tree_nodeIS9_PvEE
GOd:_Interpreter_ReadProgramCount_m1121096263
Ibd:_MonoType_get_DeclaringType_m90362326
jQc:__ZN16UnityAdsSettings5ResetEv
GPc:__ZN20UnityConnectSettings23VirtualRedirectTransferER24GenerateTypeTreeTransfer
idf:_Array_InternalArray__set_Item_TisPlayerLoopSystem_t105772105_m93492520_gshared
AQh:_llvm_bswap_i32
fB:__ZN9AudioClip8TransferI24GenerateTypeTreeTransferEEvRT_
Uje:_Int16_System_IConvertible_ToSingle_m3569332870_AdjustorThunk
nd:_pthread_getspecific
iHe:_Action_3_Invoke_m313705495_gshared
tAe:_DateTime_System_IConvertible_ToUInt16_m4182197229
qNa:__ZN14PlayerSettings5ResetEv
GTe:_Enumerator_MoveNext_m1107569389_AdjustorThunk
UTe:_ShimEnumerator_Reset_m2548503932_gshared
Nac:__ZNK28MonoBehaviourPropertyBinding13SetFloatValueERKN11UnityEngine9Animation10BoundCurveEf
oPd:_IntStack_Push_m1082581210_AdjustorThunk
hNa:__ZN9InputAxis8TransferI24GenerateTypeTreeTransferEEvRT_
ykf:_TimeSpan_get_TotalHours_m306507525_AdjustorThunk
VVe:_Dictionary_2_Add_m4262304220_gshared
eY:__ZZN15DirectorManager15InitializeClassEvEN40EarlyUpdateDirectorSampleTimeRegistrator7ForwardEv
TAb:__ZN7ApiGLES15BlitFramebufferEN2gl6HandleILNS0_10ObjectTypeE9EEENS0_15FramebufferReadES3_iiNS0_15FramebufferTypeE
Vpa:__ZN14RenderSettings8TransferI17RemapPPtrTransferEEvRT_
I9e:_Array_LastIndexOf_TisRuntimeObject_m1719321980_gshared
L:Math_acos
V0g:__ZN14dense_hash_mapI10KeyWrapperIPK11Il2CppClassEPKcN6il2cpp5utils11PointerHashIS1_EENS4_14EqualsComparerINSt3__28equal_toIS3_EEEENSC_9allocatorINSC_4pairIKS4_S6_EEEEEC2EjRKSA_RKSF_
Nne:_File_Exists_m3943585060
b$g:__ZNK15dense_hashtableINSt3__24pairIK10KeyWrapperIPK22Il2CppGenericParameterEP11Il2CppClassEES6_N6il2cpp5utils11PointerHashIS4_EEN14dense_hash_mapIS6_S9_SE_NS6_14EqualsComparerINS0_8equal_toIS5_EEEENS0_9allocatorISA_EEE9SelectKeyESJ_SL_E13find_positionERS7_
Rch:__ZN15dense_hashtableINSt3__24pairIK10KeyWrapperIPK10Il2CppTypeEjEES6_N6il2cpp8metadata14Il2CppTypeHashEN14dense_hash_mapIS6_jSB_NS6_14EqualsComparerINSA_26Il2CppTypeEqualityComparerEEENS0_9allocatorIS8_EEE9SelectKeyESF_SH_E12resize_deltaEjj
VT:__ZN15FileSystemEntryC2EPKc
Fxc:__ZNSt3__227__insertion_sort_incompleteIR22InverseDepthComparitorP8DepthHitEEbT0_S5_T_
nVg:_ContactFilter2D_CheckConsistency_m222060761
Bsc:__ZN16b2BlockAllocator8AllocateEi
ORd:_SHA384Managed_Initialize_m1661896576
WMe:_InternalEnumerator_1_get_Current_m2698009637_AdjustorThunk
Ygc:__ZN13MonoBehaviour14GetOrCreateDSPEv
Fmc:__Z30TransferField_LinearCollectionI9JSONWriteEvRK29SerializationCommandArgumentsR31RuntimeSerializationCommandInfo
vob:__ZN17MessageIdentifier24GetOptimizedMessageCountEv
G$e:_SimpleCollator_CompareQuick_m3272475794
BGd:_DictionaryNodeEnumerator_get_Key_m2267812973
aNb:__ZN28FwdMainLightAttenuationCache17ApplyAfterPassSetERK18ForwardLightsBlock
Q4d:_Array_BinarySearch_m3171087170
Wuc:__ZN10Collider2D31CalculateColliderTransformationEPP6b2BodyR10Matrix4x4fPK11Rigidbody2D
xte:_Stack__ctor_m3503577671
xKc:__ZN9Scripting11UnityEngine15DetailPrototype9InitProxyEv
fGd:_ListDictionary__ctor_m2955211750
Wnb:__ZN13MonoBehaviour23VirtualRedirectTransferER17RemapPPtrTransfer
Mx:__ZN12SoundManager10UnloadClipEP10SampleClip
sNc:__ZN11UnityEngine15PlatformWrapper16GetVideoMemoryMBEv
Soc:__Z18Transfer_BlittableI8JSONReadLb1E11ColorRGBA32EvRK29SerializationCommandArgumentsR31RuntimeSerializationCommandInfo
fZh:_glDepthMask__wrapper
LC:__ZN13AudioListener26ReadExtensionPropertyValueEi
GJ:__ZN19CloudServiceHandler17StartEventHandlerERKN4core12basic_stringIcNS0_20StringStorageDefaultIcEEEEii
Pib:__Z26Transfer_UnityEngineObjectI18StreamedBinaryReadILb1EELb1EEvRK29SerializationCommandArgumentsR31RuntimeSerializationCommandInfo
Iqh:__ZN6il2cpp2vm13LivenessState13FilterObjectsEv
Fzg:__Z78RuntimeInvoker_RuntimeObject_Int32_t2950945753_RuntimeObject_Int32_t2950945753PFvvEPK10MethodInfoPvPS4_
Ae:_JS_Eval_SetTimeout
Gqe:_MemoryStream_Dispose_m3070412825
yR:__ZN14SafeBinaryReadC2Ev
hSd:_SHA512Managed_Sum1_m4163780989
SQa:__ZN13LoadOperation19IntegrateMainThreadEv
yYb:__ZN13MemoryManager16ThreadInitializeEj
kse:_StreamWriter_FlushBytes_m1531540244
Zhc:__Z53Register_UnityEngine_MonoBehaviour_GetScriptClassNamev
qzh:__ZN6il2cpp2os10ThreadImpl24CheckForUserAPCAndHandleEv
DMc:__ZN11UnityEngine15PlatformWrapper32GetLocalTimeOffsetInMillisecondsEv
jNh:_setlocale
Off:_StringBuilder_Append_m890240332
EB:__ZNK13AudioListener22GetTypeVirtualInternalEv
GWa:__Z27scripting_array_element_ptr17ScriptingArrayPtrij
aNc:__ZN11UnityEngine15PlatformWrapper16GetVRAspectRatioEv
ALa:__ZN16BlendShapeVertex8TransferI18StreamedBinaryReadILb0EEEEvRT_
D6d:_Boolean_System_IConvertible_ToDateTime_m603510836_AdjustorThunk
fsh:__ZN15dense_hashtableINSt3__24pairIK10KeyWrapperIP14Il2CppIUnknownEjEES5_N6il2cpp5utils11PointerHashIS3_EEN14dense_hash_mapIS5_jSB_NS5_14EqualsComparerINS0_8equal_toIS4_EEEENS0_9allocatorIS7_EEE9SelectKeyESG_SI_E3endEv
xB:__ZN9AudioClip8WWWCloseEPvS0_
ALc:__ZNSt3__26__treeINS_12__value_typeIN4core12basic_stringIcNS2_20StringStorageDefaultIcEEEEN11UnityEngine9Analytics17EventLimitTrackerEEENS_19__map_value_compareIS6_SA_NS_4lessIS6_EELb1EEE13stl_allocatorISA_L18MemLabelIdentifier6ELi16EEE7destroyEPNS_11__tree_nodeISA_PvEE
o_a:__ZN12IFileAdapter4OpenER13FileEntryData14FilePermission16FileAutoBehavior
jEh:_GC_try_to_collect_inner
ZEb:__ZZ23InitPlayerLoopCallbacksvEN40EarlyUpdateUpdateInputManagerRegistrator7ForwardEv
$qf:_Application_CallLogCallback_m255562505
Gnh:__ZN15dense_hashtableINSt3__24pairIK10KeyWrapperINS1_IP11Il2CppClassjEEES4_EES6_N6il2cpp8metadata14ArrayClassHashEN14dense_hash_mapIS6_S4_SB_NS6_14EqualsComparerINSA_17ArrayClassCompareEEENS0_9allocatorIS8_EEE9SelectKeyESF_SH_E15insert_noresizeERKS8_
NKd:_X509BasicConstraintsExtension__ctor_m3136793028
AWa:__ZNK22LocalFileSystemHandler17GetExecutablePathEv
ned:_OperatingSystem_ToString_m3445473725
GSh:dynCall_iiiifiii
mH:__ZN11UnityEngine15CloudWebService16SessionContainer17CreateAndOpenFileERKN4core12basic_stringIcNS2_20StringStorageDefaultIcEEEES8_R12FileAccessor
X$b:__ZNSt3__26vectorIN9ShaderLab19SerializedSubShaderENS_9allocatorIS2_EEE7reserveEj
R$d:_DeriveBytes_set_Password_m3005258189
cbf:_Array_InternalArray__ICollection_CopyTo_TisILTokenInfo_t2325775114_m4230157110_gshared
Jsb:__ZN10Instancing17NeedsShaderWarmupEv
eTb:__ZN16ReflectionProbes6UpdateEv
ZVe:_Dictionary_2_Remove_m2535635334_gshared
Tqa:__Z9RecordJobPFvPvES_R21SingleThreadedJobInfo
zbc:__ZN10builtintex22CleanupBuiltinTexturesEv
aPb:__ZN18DeferredRenderLoop24AddReflectionsToEmissionEP13RenderTextureS1_
yhh:__ZN14dense_hash_mapI10KeyWrapperINSt3__24pairIPK10MethodInfoP11Il2CppClassEEEj17ReflectionMapHashIS8_ENS9_14EqualsComparerINS1_8equal_toIS8_EEEENS1_9allocatorINS2_IKS9_jEEEEE15set_deleted_keyERSH_
jCb:__Z19UnsignedIntToStringj
DQh:_i64Subtract
Eef:_Array_InternalArray__get_Item_TisRefEmitPermissionSet_t484390987_m1505876205_gshared
Vcd:_NumberFormatter_RemoveTrailingZeros_m1055756375
Icd:_NumberFormatter_Resize_m3876336103
FIg:__Z57RuntimeInvoker_Int32_t2950945753_RaycastHit2D_t2279581989PFvvEPK10MethodInfoPvPS4_
KMh:_frexpl
QLb:__ZN6Skybox16RenderSingleFaceEP8Materiali
IRg:_Uri_get_IsLoopback_m2492530169
lgb:__Z18Transfer_BlittableI19StreamedBinaryWriteILb0EELb1E12PropertyNameEvRK29SerializationCommandArgumentsR31RuntimeSerializationCommandInfo
Htf:_Object_op_Inequality_m4071470834
Cq:__ZN9Scripting11UnityEngine2XR5Tango24MeshReconstructionConfig12CleanupProxyEv
MHh:__ZN6il2cpp5utils10MemoryPoolC2Ej
wYa:__Z23EndsWithCaseInsensitivePKcjS0_j
Wdc:__Z20RegisterBuiltinTypesv
AF:__ZL59__ManagedRegistrationHelperFunction_ClothSphereColliderPairPv
Cvg:__Z173RuntimeInvoker_Int32_t2950945753_RuntimeObject_Int32_t2950945753_Int32_t2950945753_RuntimeObject_Int16_t2552820387_Int32_t2950945753_SByte_t1669577662_ContextU26_t3937453398PFvvEPK10MethodInfoPvPS4_
Wcb:__Z19TransferField_ArrayI17RemapPPtrTransfer27Converter_SimpleNativeClassI10RectOffsetEEvRK23StaticTransferFieldInfoR31RuntimeSerializationCommandInfoRT0_
FEh:_GC_finalize
vHc:__ZN11Rigidbody2D31CheckForDrivenByParentRigidbodyEPS_
tg:_emscripten_glColorMask
sic:__Z45Register_UnityEngine_Camera_get_targetTexturev
BK:__GLOBAL__sub_I_Runtime_Camera_6_cpp
zLa:__ZN17CollisionMeshData8TransferI18StreamedBinaryReadILb0EEEEvRT_R4Mesh
oUh:_glBufferSubData__wrapper
ANd:_X509ExtensionCollection_System_Collections_ICollection_CopyTo_m2505796149
h_e:_Enumerator_VerifyState_m1898450050_AdjustorThunk
HNb:__Z21StoreShadowMapInCacheP14ShadowMapCacheRK17ShadowCachingDatai
RJa:__Z14RecalculateUVs14StrideIteratorI8Vector2fES1_S_I8Vector3fER9Texture2DRKS0_RK5RectTIfERK8Vector4fSB_S7_21SpritePackingRotationf
Vqh:__ZN6il2cpp6icalls8mscorlib6System4Type16IsInstanceOfTypeEP20Il2CppReflectionTypeP12Il2CppObject
_7g:_RemoteSettings_RemoteSettingsUpdateCompleted_m2057218144
zff:_StringBuilder__ctor_m2625406916
_oa:__ZN15SerializeTraitsI13dynamic_arrayI13ProbeSetIndexLj0EEE19ResizeSTLStyleArrayERS2_i
Bwg:__Z78RuntimeInvoker_RuntimeObject_RuntimeObject_Int32_t2950945753_SByte_t1669577662PFvvEPK10MethodInfoPvPS4_
T1e:_SequentialSearchPrimeGeneratorBase_GenerateSearchBase_m3595783982
Fjf:_Scheduler_Add_m21574731
Wgh:__ZN15dense_hashtableINSt3__24pairIK10KeyWrapperIPK22Il2CppGenericParameterEPK24MonoGenericParameterInfoEES6_N6il2cpp5utils11PointerHashIS4_EEN14dense_hash_mapIS6_SA_SF_NS6_14EqualsComparerINS0_8equal_toIS5_EEEENS0_9allocatorISB_EEE9SelectKeyESK_SM_E14squash_deletedEv
tbc:__ZL20DidChangeActiveSceneP10UnitySceneS0_
qpc:__Z30TransferField_LinearCollectionI8JSONReadEvRK29SerializationCommandArgumentsR31RuntimeSerializationCommandInfo
GYc:_MonoGenericMethod__ctor_m2795356912
Swg:__Z32RuntimeInvoker_Double_t594665363PFvvEPK10MethodInfoPvPS4_
Qua:__ZN14SafeBinaryRead19TransferSTLStyleMapINSt3__23mapIN9ShaderLab16FastPropertyNameEN18UnityPropertySheet11UnityTexEnvENS1_4lessIS4_EENS1_9allocatorINS1_4pairIKS4_S6_EEEEEEEEvRT_17TransferMetaFlags
Xyb:__ZN13GfxDeviceGLES21ProcessPendingMipGensEv
E9e:_Array_InternalArray__IndexOf_TisHitInfo_t3229609740_m191462931_gshared
Boc:__Z18Transfer_BlittableI8JSONReadLb1EsEvRK29SerializationCommandArgumentsR31RuntimeSerializationCommandInfo
Ih:_emscripten_set_mousedown_callback
Rzb:__ZL25ProgramUniformMatrix3x4fvPK7ApiGLESjiihPKv
oRd:_SHA1Internal_InitialiseBuff_m2891366785
XOa:__ZNK22GenericPropertyBinding13GetFloatValueERKN11UnityEngine9Animation10BoundCurveE
Xka:__ZN9GfxDevice11DrawBuffersEP9GfxBufferPK18VertexStreamSourceiPK16DrawBuffersRangeiP17VertexDeclaration
UQa:__ZN27TimeSliceAwakeFromLoadQueue19IntegrateTimeSlicedEi
KGa:__ZN23SharedMeshRenderingData6UnloadEv
pDe:_Decimal_decimalDiv_m3235226503
o:__THREW__
OX:__ZL28CleanupRendererUpdateManagerPv
y1b:__ZN19StreamedBinaryWriteILb0EE21TransferSTLStyleArrayINSt3__26vectorIN9ShaderLab20SerializedSubProgram12UAVParameterENS2_9allocatorIS6_EEEEEEvRT_17TransferMetaFlags
nIc:__Z31Rigidbody2D_Get_Custom_PropMassP12Il2CppObject
zXc:_Module_filter_by_type_name_m1840126910
zGh:_GC_push_typed_structures_proc
SSe:_Enumerator_VerifyCurrent_m3071620407_gshared
cD:__Z64Register_UnityEngine_AudioSettings_GetAmbisonicDecoderPluginNamev
$Wd:_StackOverflowException__ctor_m592204071
w4g:__ZN30dense_hashtable_const_iteratorINSt3__24pairIK10KeyWrapperIN6il2cpp5utils13dynamic_arrayIPK10Il2CppTypeLj4EEEEPFvvEEESA_NS3_8metadata19Il2CppSignatureHashEN14dense_hash_mapISA_SD_SG_NSA_14EqualsComparerINSF_22Il2CppSignatureCompareEEENS0_9allocatorISE_EEE9SelectKeyESK_SM_EppEv
BXa:__ZN20LocalFileSystemPosix4ReadER13FileEntryDatayPvPy
Tib:__Z19TransferField_ArrayI18StreamedBinaryReadILb1EE27Converter_UnityEngineObjectEvRK23StaticTransferFieldInfoR31RuntimeSerializationCommandInfoRT0_
bPf:__ZL111RegionInfo_t1090270226_CustomAttributesCacheGenerator_RegionInfo_t1090270226____CurrencyNativeName_PropertyInfoP21CustomAttributesCache
zsc:__Z19GetPhysicsManager2Dv
ESa:__Z27CalculateLightOcclusionMaskRK17LightProbeContextRK29LightProbeSamplingCoordinates
FBg:__Z76RuntimeInvoker_DateTime_t3738529785_DateTime_t3738529785_TimeSpan_t881159249PFvvEPK10MethodInfoPvPS4_
BP:__ZN18ScriptingArguments9AddStructEPKv
f0b:__ZNSt3__26vectorIN9ShaderLab18SerializedPropertyENS_9allocatorIS2_EEE8__appendEj
zgg:_List_1_CheckMatch_m3711947250_gshared
Qgf:_UTF32Decoder_GetChars_m1925558948
E3g:__ZN15dense_hashtableI10KeyWrapperIPK17Il2CppGenericInstES4_N6il2cpp8metadata21Il2CppGenericInstHashEN14dense_hash_setIS4_S7_NS4_14EqualsComparerINS6_24Il2CppGenericInstCompareEEENSt3__29allocatorIS4_EEE8IdentityESB_SE_E12resize_deltaEjj
p6e:_Array_InternalArray__ICollection_Contains_TisKeyframe_t4206410242_m2096605895_gshared
H9a:__ZN14SafeBinaryRead8TransferIdEEvRT_PKc17TransferMetaFlags
pLa:__ZN14BlendShapeData8TransferI24GenerateTypeTreeTransferEEvRT_
rRd:_SHA1Internal_HashFinal_m1760803056
sdg:__ZL57RemoteSettings_t1718627291_CustomAttributesCacheGeneratorP21CustomAttributesCache
ZI:__ZZN23CloudWebServicesManagerC1E10MemLabelId18ObjectCreationModeEN44EarlyUpdateCloudWebServicesUpdateRegistrator7ForwardEv
LSc:__ZN19TransportJavaScript11PostRequestEv
wvb:__ZN13GfxDeviceGLES17UploadTextureCubeE9TextureIDPKhiii14GraphicsFormati18TextureUploadFlags
ide:_Hashtable_get_Values_m1643322147
zah:__ZN6il2cpp2vm7Runtime4InitEPKcS3_
yde:_Hashtable_Synchronized_m2228653257
lcf:_Array_InternalArray__Insert_TisUriScheme_t722425697_m2442875526_gshared
SBa:__ZNSt3__26vectorIN15QualitySettings14QualitySettingENS_9allocatorIS2_EEE7reserveEj
eOf:__ZL80Hashtable_t1853889766_CustomAttributesCacheGenerator_Hashtable__ctor_m2421324048P21CustomAttributesCache
wpf:_UInt64_ToString_m2623377370
Eea:__ZN10GameObject12SetHideFlagsEN6Object9HideFlagsE
e6b:__Z64Register_UnityEngine_PlayerConnectionInternal_UnregisterInternalv
fK:__ZN11UnityEngine15CloudWebService17WebFileDownloaderINS0_20WebRequestRestClientENS0_23WebRequestRestHeaderMapEE10InitializeERKN4core12basic_stringIcNS5_20StringStorageDefaultIcEEEESB_SB_
Y5e:_Array_InternalArray__ICollection_Contains_TisILTokenInfo_t2325775114_m2923331462_gshared
cx:__ZN4FMOD8ChannelI12setFrequencyEf
wyb:__ZN13GfxDeviceGLES16SetComputeBufferE15ComputeBufferIDi20ComputeBufferCounterbb
lqc:__ZN8JSONRead21TransferSTLStyleArrayI13dynamic_arrayI11ColorRGBA32Lj0EEEEvRT_17TransferMetaFlags
Ncd:_NumberFormatter_get_IntegerDigits_m1758408763
Di:_emscripten_request_pointerlock
pjd:_MethodBuilder_GetParameters_m3527753207
S3e:_KeyPairPersistence__IsMachineProtected_m2170750712
MJb:__Z22CullAllPerObjectLightsiRK15RenderNodeQueueRK12ActiveLightsR27PerObjectLightCullingOutput
dHf:_PKCS12_Encrypt_m3618991685
K5c:_ConstructionCall_get_Properties_m3011379795
rpc:__Z26Transfer_UnityEngineObjectI8JSONReadLb0EEvRK29SerializationCommandArgumentsR31RuntimeSerializationCommandInfo
Kah:__ZN6il2cpp5utils9PathUtils7CombineIcEENSt3__212basic_stringIT_NS3_11char_traitsIS5_EENS3_9allocatorIS5_EEEERKSA_RKNS0_10StringViewIS5_EE
$U:__ZN17TransformInternal20FreeTransformHandlesER18TransformHierarchyi
CS:__Z26scripting_class_get_object17ScriptingClassPtr
a:HEAP8
vUd:_ApplicationTrust__ctor_m515003198
Mte:_Enumerator_Reset_m2459931042
bHc:__ZN11Rigidbody2D12MoveRotationEf
$id:_ILGenerator_ll_emit_m2218983546
kBd:_RecordProtocol_SendAlert_m3736432480
VBa:__ZNSt3__26vectorIN15QualitySettings14QualitySettingENS_9allocatorIS2_EEEC2INS_11__wrap_iterIPS2_EEEET_SA_RKS4_PNS_9enable_ifIXaasr21__is_forward_iteratorISA_EE5valuesr16is_constructibleIS2_NS_15iterator_traitsISA_E9referenceEEE5valueEvE4typeE
UQe:_InternalEnumerator_1_System_Collections_IEnumerator_get_Current_m3854084659_gshared
nLb:__ZNK6Camera17GetProjectionNearEv
sE:__ZN16BaseVideoTexture18PauseVideoTexturesEv
Aig:_Enumerator_System_Collections_IEnumerator_Reset_m2261065994_gshared
jW:__ZNSt3__26__treeIN5Cache10CachedFileENS_4lessIS2_EENS_9allocatorIS2_EEE7destroyEPNS_11__tree_nodeIS2_PvEE
wlg:_ReadOnlyCollection_1_System_Collections_ICollection_CopyTo_m1627200331_gshared
sne:_BinaryReader_Read_m1362176249
AHf:_X509Certificate_set_RSA_m3534515075
B0b:__ZN24GenerateTypeTreeTransfer8TransferINSt3__26vectorIN9ShaderLab20SerializedSubProgram15MatrixParameterENS1_9allocatorIS5_EEEEEEvRT_PKc17TransferMetaFlags
M6d:_Boolean_System_IConvertible_ToInt64_m2059204559
txd:_MD4Managed_FF_m3294771481
BZh:_emscripten_glDeleteObjectARB__wrapper
v3d:_ArgIterator_Equals_m4289772452
vHh:__ZN6il2cpp6icalls8mscorlib6System13Globalization10RegionInfo35construct_internal_region_from_nameEP16Il2CppRegionInfoP12Il2CppString
xWa:__ZNK22LocalFileSystemHandler7ToLocalERK13FileEntryDataRN4core12basic_stringIcNS3_20StringStorageDefaultIcEEEERyS9_
tZc:_MonoProperty_get_CanRead_m2001748608
_Mg:_PatternCompiler_EmitLink_m1012034249
x$:__ZN6prcoreL17RemapGenericFloatI16TexFormatRGFloat18TexFormatARGBFloatEEvPKNS_9InnerInfoE
Xz:__ZN10AudioMixer14MixerGroupSink15ProcessCallbackEP21UnityAudioEffectStatePfS3_jii
oKa:__ZN14SpriteRenderer8TransferI24GenerateTypeTreeTransferEEvRT_
rab:__Z29Transfer_Blittable_ArrayFieldI14SafeBinaryRead12PropertyNameEvRT_R9ArrayInfoRK23StaticTransferFieldInfo
gMc:__ZN18UnityConnectClient14QueueCoreEventERN11UnityEngine15CloudWebService17CloudServiceEventEb
olb:__ZL26Transfer_SimpleNativeClassI18StreamedBinaryReadILb0EE17AnimationCurveTplIfELb1EEvRK29SerializationCommandArgumentsR31RuntimeSerializationCommandInfo
JMf:__ZL43MemberInfo_t_CustomAttributesCacheGeneratorP21CustomAttributesCache
EYd:_String_ToLower_m3490221821
iKa:__ZNK16MeshVertexFormat26GetVertexDeclarationSpriteER9GfxDevice16VertexInputMasksb
_Qc:__ZL29InitializeModule_UnityConnectv
K4a:__ZN13DrawImmediate8TexCoordEifff
Tqe:_MonoIO_GetFileAttributes_m2086493016
cUd:_SecurityElement_GetAttribute_m3347489583
eab:__ZNSt3__26vectorI8Gradient13stl_allocatorIS1_L18MemLabelIdentifier1ELi16EEE6assignINS_11__wrap_iterIPS1_EEEENS_9enable_ifIXaasr21__is_forward_iteratorIT_EE5valuesr16is_constructibleIS1_NS_15iterator_traitsISB_E9referenceEEE5valueEvE4typeESB_SB_
QAd:_Context__ctor_m1288667393
pra:__ZN20SphericalHarmonicsL217AddToCoefficientsEPKN4math7_float4EPKf
oHb:__ZN13ComputeBuffer9CopyCountEPS_S0_j
YPb:__ZN17PrePassRenderLoop14RenderBasePassEP13RenderTextureRK14LightingLayersR13dynamic_arrayI16RenderObjectDataLj0EERbR10MinMaxAABB
Hpa:__ZN14RenderSettings13AwakeFromLoadE17AwakeFromLoadMode
hxd:_MD4Managed__ctor_m2284724408
Mhb:__Z18Transfer_BlittableI18StreamedBinaryReadILb1EELb1E8Vector2fEvRK29SerializationCommandArgumentsR31RuntimeSerializationCommandInfo
Bjf:_Timer_Change_m3724315326
RAh:__ZN6il2cpp8metadataL46AGenericMethodWhichIsTooDeeplyNestedWasInvokedEv
wDe:_Decimal_Equals_m2486655999_AdjustorThunk
IC:__Z60AudioListener_CUSTOM_INTERNAL_CALL_ReadExtensionPropertyNameP12Il2CppObjectiR12PropertyName
ych:__ZN15dense_hashtableINSt3__24pairIK10KeyWrapperINS1_IPK9FieldInfoP11Il2CppClassEEEjEES9_17ReflectionMapHashIS8_EN14dense_hash_mapIS9_jSD_NS9_14EqualsComparerINS0_8equal_toIS8_EEEENS0_9allocatorISB_EEE9SelectKeyESI_SK_E9copy_fromERKSN_j
IS:__Z33RenderImageFilterValidateCallback18ScriptingMethodPtr17ScriptingClassPtrP6Object
fDa:__ZN8LODGroup23GetLODGroupIndexAndMaskEPK8RendererPjPh
_jh:_il2cpp_class_enum_basetype
Sia:__ZNK10FlareLayer22GetTypeVirtualInternalEv
uhf:_UTF8Encoding_InternalGetBytes_m359000633
hZe:_GenericComparer_1_Compare_m2942238599_gshared
D5c:_ConstructionCall_get_ActivationType_m402163916
Lsb:__ZNK17InstancingBatcher20SetupForShaderWarmupEv
Tfc:__ZN15FileSystemEntry12CreateAsFileEv
W3a:__ZN9GfxDevice26UpdateRenderSurfaceWrapperER12ObjectHandleI17RenderSurface_TagP17RenderSurfaceBaseES3_17DepthBufferFormat
V3d:_Array_GetLowerBound_m2045984623
Hnh:__ZNK15dense_hashtableINSt3__24pairIK10KeyWrapperINS1_IP11Il2CppClassjEEES4_EES6_N6il2cpp8metadata14ArrayClassHashEN14dense_hash_mapIS6_S4_SB_NS6_14EqualsComparerINSA_17ArrayClassCompareEEENS0_9allocatorIS8_EEE9SelectKeyESF_SH_E13find_positionERS7_
oyb:__ZN4gles14GetProcAddressEPKc
Z1f:__ZL61ExtensionAttribute_t1723066603_CustomAttributesCacheGeneratorP21CustomAttributesCache
Lrb:__ZN11TimeManager9ResetTimeEb
bue:_Decimal_op_Inequality_m3543190500
wAd:_CipherSuiteCollection_System_Collections_IList_Insert_m1567261820
BBg:__Z117RuntimeInvoker_Boolean_t97287965_RuntimeObject_Int32_t2950945753_RuntimeObject_SByte_t1669577662_Int32U26_t1369213839PFvvEPK10MethodInfoPvPS4_
NTd:_String_ParseFormatSpecifier_m3134189457
$aa:__ZN8TypeTree16AssignByteOffsetERK16TypeTreeIteratorj
pof:_UInt32_System_IConvertible_ToUInt64_m1094958903_AdjustorThunk
Mja:__ZN16PropertyNamesSet6insertERKS_
u0g:__ZN6il2cpp2vm5Class19GetArrayElementSizeEPK11Il2CppClass
Ta:invoke_viiiifii
kDf:_SslStreamBase__cctor_m548992348
Ppc:__Z29Transfer_Blittable_ArrayFieldI8JSONReadyEvRT_R9ArrayInfoRK23StaticTransferFieldInfo
iIc:__ZN11Marshalling18ArrayOutMarshallerI14RaycastHit2D__E18UnmarshalTempArrayI12RaycastHit2DEEvv
kuc:__ZNK15b2DistanceJoint16GetReactionForceEf
HDa:__ZN8Renderer16SetMaterialCountEi
orb:__ZNK26PlayerSettingsSplashScreen39GetSplashScreenBackgroundPortraitAspectEv
csb:__ZN9ShaderLab28UpdateGlobalShaderPropertiesEf
VNc:__ZN11UnityEngine15PlatformWrapper17GetMaxCubeMapSizeEv
KQb:__Z52ProcessShadowCasterNodeVisibilityAndCullWithoutUmbraR9IndexListRK22SceneCullingParametersPK9SceneNodePK4AABBjj
EDe:_Decimal_ToString_m3653216873_AdjustorThunk
ate:_SortedList_Add_m810900317
BEh:_GC_finish_collection
h_c:_ParameterInfo_get_IsIn_m1278224586
TSc:__ZN15DownloadHandler7PrepareEv
dnb:__ZN16ScriptingManager32InitializeSynchronizationContextEv
Akd:_PropertyBuilder_GetValue_m3592513194
eIf:_X509Chain_get_TrustAnchors_m2434696767
Kle:_Int64_System_IConvertible_ToDateTime_m2535842508
Xua:__ZN15SerializeTraitsINSt3__24pairIN9ShaderLab16FastPropertyNameEfEEE8TransferI14SafeBinaryReadEEvRS4_RT_
Knf:_UInt16_ToString_m3020002356_AdjustorThunk
QBh:__ZN6il2cpp2vm6String7NewSizeEi
TFh:_GC_new_hblk
ufe:_CompareInfo_Compare_m1030179556
s6:__ZN9Scripting11UnityEngine9Playables13PlayableAsset9InitProxyEv
$l:_pthread_mutexattr_init
pFh:_GC_reclaim_check
Sch:__ZN15dense_hashtableINSt3__24pairIK10KeyWrapperIPK10Il2CppTypeEjEES6_N6il2cpp8metadata14Il2CppTypeHashEN14dense_hash_mapIS6_jSB_NS6_14EqualsComparerINSA_26Il2CppTypeEqualityComparerEEENS0_9allocatorIS8_EEE9SelectKeyESF_SH_E15insert_noresizeERKS8_
Nza:__Z30CalculateImageSizeWithMipCountii13TextureFormatj
ZVh:_glDeleteVertexArrays__wrapper
UUa:__ZN15SerializeTraitsINSt3__24pairI4PPtrI6ShaderEN4core12basic_stringIcNS5_20StringStorageDefaultIcEEEEEEE8TransferI24GenerateTypeTreeTransferEEvRSA_RT_
tuf:_UnityEventBase_DirtyPersistentCalls_m3575963459
uGh:_GC_register_finalizer_no_order
gxe:_Convert_ToInt16_m3185404879
Bua:__ZN8Material23VirtualRedirectTransferER19StreamedBinaryWriteILb0EE
ETg:_AudioSettings_GetSpatializerPluginName_m1324100978
uDc:__ZN10ClipperLib7Clipper11PopScanbeamEv
R_a:__ZNK25SingleBlockMemoryFileData4ReadEyyPv
tif:_Monitor_Monitor_test_synchronised_m517272294
Fx:__ZN4FMOD5Sound11getSubSoundEiPPS0_
tc:_glEndTransformFeedback
lCh:__ZThn4_N6il2cpp2vm13ComObjectBase16DisconnectObjectEj
vde:_Hashtable_ContainsKey_m2963904694
dYd:_String_IndexOfAny_m2882391940
fgb:__Z18Transfer_BlittableI19StreamedBinaryWriteILb0EELb1E10Matrix4x4fEvRK29SerializationCommandArgumentsR31RuntimeSerializationCommandInfo
bUb:__ZN10GameObject8ActivateEv
tX:__ZNSt3__227__insertion_sort_incompleteIR17CompareInstanceIDPP6ObjectEEbT0_S6_T_
aFe:_Double_System_IConvertible_ToSingle_m4088557181_AdjustorThunk
deh:__ZN15dense_hashtableINSt3__24pairIK10KeyWrapperINS1_IPK11Il2CppImageP11Il2CppClassEEEjEES9_17ReflectionMapHashIS8_EN14dense_hash_mapIS9_jSD_NS9_14EqualsComparerINS0_8equal_toIS8_EEEENS0_9allocatorISB_EEE9SelectKeyESI_SK_E12resize_deltaEjj
$ka:__ZNK16MeshVertexFormat28GetVertexDeclarationInternalER9GfxDevice17ShaderChannelMaskPKS_
jgg:_List_1_System_Collections_IList_Insert_m491758941_gshared
gVa:__ZN2UI13RectTransform23VirtualRedirectTransferER24GenerateTypeTreeTransfer
XW:__ZN13RuntimeStaticI10WatermarksLb0EE16StaticInitializeEPv
XSb:__ZN23ScriptableRenderContext23ShouldUseRenderPipelineEv
VVg:__ZL16pack128toDecimalP19il2cpp_decimal_repryyii
FFb:__ZN9ShaderLab9IntShader27RemoveUnsupportedSubShadersEv
qub:__ZN13GfxDeviceGLES18CreateStencilStateERK15GfxStencilState
Jvb:__ZN13GfxDeviceGLES8EndFrameEv
wic:__Z29Time_Get_Custom_PropDeltaTimev
b5a:__ZN13ComputeShader14BeforeDispatchEjP17ShaderPassContext
uDa:__ZN6Object11InvokeEventEi
Q7d:_Byte_Equals_m1161982810
and:_BaseFixupRecord_DoFixup_m1407429548
aod:_ObjectReader_ReadArrayOfObject_m671957184
U0e:_BigInteger_op_Equality_m3263851871
tRb:__Z26CalculateLightScreenBoundsRK13ShadowJobDataRK15SharedLightDataP5RectTIfER13TargetEyeMask
lvd:_Kernel_Subtract_m846005223
yxb:__ZN18GfxFramebufferGLES11SetViewportERK5RectTIiE
eCb:__ZL33GetTransformFeedbackShaderProgram17ShaderChannelMaskjj12TFMethodTypeb
oxc:__ZNK13b2CircleShape11ComputeAABBEP6b2AABBRK11b2Transformib
Tdg:_Enumerator_MoveNext_m2142368520_gshared
oPg:_BackslashNumber_Compile_m1825066804
sq:__ZL60__ManagedRegistrationHelperFunction_MeshReconstructionServerPv
$Cd:_TlsClientCertificate_FindParentCertificate_m3844441401
aOa:__ZN18StreamedBinaryReadILb0EE21TransferSTLStyleArrayI13dynamic_arrayI16SplashScreenLogoLj0EEEEvRT_17TransferMetaFlags
xxe:_Convert_ToInt32_m3956995719
KAb:__ZN18GfxFramebufferGLES43AddRenderSurfaceToDeferredFBOInvalidateListEPK17RenderSurfaceGLES
sWd:_Single_System_IConvertible_ToInt64_m1650421025
ika:__ZN19ShaderPropertySheet17UpdateTextureInfoEiRK23FastTexturePropertyNameP7Textureb9TextureID
Z9e:_Array_InternalArray__ICollection_Add_TisDecimal_t2948259380_m434413850_gshared
cu:__ZNSt3__26vectorIN4core12basic_stringIcNS1_20StringStorageDefaultIcEEEENS_9allocatorIS5_EEEC2ERKS8_
A7a:__Z18Transfer_BlittableI14SafeBinaryReadLb0EhEvRK29SerializationCommandArgumentsR31RuntimeSerializationCommandInfo
o8e:_Array_AsReadOnly_TisCustomAttributeNamedArgument_t287865710_m2126958740_gshared
j9b:__Z49InitializeSpriteRendererAnimationBindingInterfacev
nlc:__Z44InitializeTransferFunctionScriptingTraitsForI9JSONWriteEvR31TransferFunctionScriptingTraits
xJh:__ZN6il2cpp2os13FastMutexImplD2Ev
Roa:__ZN14SafeBinaryRead21TransferSTLStyleArrayI19StaticArrayTransferIaLi4EEEEvRT_17TransferMetaFlags
kd:_emscripten_glGetBufferParameteriv
wLc:__ZN5Umbra16FileOutputStream5writeEPKvj
SB:__ZNK18AudioLowPassFilter18GetCutoffFrequencyEv
KNb:__Z29SetCascadedShadowShaderParamsPK10Matrix4x4fiPKfPK8Vector4fRK8Vector2fR17ShaderPassContext
yJb:__ZN13BatchRenderer5FlushE15BatchBreakCause
wOb:__ZNSt3__26vectorI16ShadowCasterData13stl_allocatorIS1_L18MemLabelIdentifier2ELi16EEE21__push_back_slow_pathIRKS1_EEvOT_
Voe:_FileNotFoundException__ctor_m2359931775
g1:__ZN6prcoreL12RemapGenericI15TexFormatRGB56517TexFormatARGB4444EEvPKNS_9InnerInfoE
jFg:__Z90RuntimeInvoker_Single_t1397266774_Single_t1397266774_Single_t1397266774_Single_t1397266774PFvvEPK10MethodInfoPvPS4_
W2f:__ZL62NativeTypeAttribute_t2250406315_CustomAttributesCacheGeneratorP21CustomAttributesCache
Eaf:_Array_InternalArray__ICollection_Add_TisHitInfo_t3229609740_m2870371072_gshared
QZ:__ZN13RendererScene16UpdateVisibilityEPK9IndexList
WE:__GLOBAL__sub_I_SwSelfCollision_cpp
dSb:__ZN12CullingGroup15NotifyInvisibleEv
_6a:__ZN11MonoManager23VirtualRedirectTransferER17RemapPPtrTransfer
czf:_PropertyName_Equals_m2608649819
Pab:__Z29Transfer_Blittable_ArrayFieldI14SafeBinaryReadxEvRT_R9ArrayInfoRK23StaticTransferFieldInfo
k3a:__ZN9GfxDevice23DeleteAsyncReadbackDataEP20GfxAsyncReadbackData
Eif:_SendOrPostCallback_Invoke_m937799800
OSf:__ZL54_MethodBase_t1657248248_CustomAttributesCacheGeneratorP21CustomAttributesCache
RSe:_Enumerator_System_Collections_IEnumerator_get_Current_m1890150222_gshared
X5:__ZN9Scripting11UnityEngine12PropertyName12CleanupProxyEv
q4f:__ZL83Renderer_t2627027031_CustomAttributesCacheGenerator_Renderer_get_bounds_m1803204000P21CustomAttributesCache
XZb:__ZN15dense_hashtableINSt3__24pairIKiN4core17string_with_labelILi1EEEEEi18SInt32HashFunctionN14dense_hash_mapIiS5_S7_NS0_8equal_toIiEE13stl_allocatorIS6_L18MemLabelIdentifier1ELi16EEE9SelectKeyESA_SD_ED2Ev
Bvf:_Gradient_Init_m3104802093
cqg:__ZN30GenericInterfaceActionInvoker2I17Scene_t2348375561S0_E6InvokeEPK10MethodInfoP12Il2CppObjectS0_S0_
gab:__ZN8GradientC2Ev
P8c:_UnexceptionalStreamReader_Read_m39696771
Dxb:__Z23GetGfxDeviceLevelString16GfxDeviceLevelGL
kgf:_UnicodeEncoding_GetBytes_m3223155660
r7e:_Enumerable_CreateWhereIterator_TisRuntimeObject_m3410152003_gshared
$Va:__ZN9Transform23VirtualRedirectTransferER14SafeBinaryRead
Gjg:_Collection_1_System_Collections_IList_set_Item_m510036531_gshared
qHf:_X509Certificate__cctor_m1746020738
oo:__ZL56__ManagedRegistrationHelperFunction_NavMeshTriangulationPv
$d:___cxa_throw
sfd:_AssemblyName_set_Version_m1802337156
pNd:_X509ChainElementEnumerator_Reset_m1416607221
JLa:__ZN17PackedFloatVector10PackFloatsEPKfiiiib
gzc:__ZN15b2ContactSolver24SolveVelocityConstraintsEv
SGf:_PKCS12_get_MaximumPasswordLength_m3603260090
j_h:_emscripten_glIsBuffer__wrapper
Gib:__Z35Transfer_Blittable_FixedBufferFieldI18StreamedBinaryReadILb1EEyEvRK29SerializationCommandArgumentsR31RuntimeSerializationCommandInfo
tyb:__ZN19ConstantBuffersGLES6FindCBE5CbKey
b2e:_Runtime_GetDisplayName_m2773861196
vua:__ZN8MaterialD0Ev
UOe:_InternalEnumerator_1_System_Collections_IEnumerator_get_Current_m1823542095_AdjustorThunk
Cxf:_MessageTypeSubscribers_get_MessageTypeId_m1143155832
cVd:_StrongName_ToString_m3130222752
R5:__ZN9Scripting11UnityEngine7RectInt12CleanupProxyEv
WKc:__GLOBAL__sub_I_Modules_Tilemap_Public_0_cpp
$D:__ZN11AudioModule21SetActiveOutputDriverEPv
K$d:_PKCS12_MAC_m3401183837
hzb:__ZN18GfxFramebufferGLES22EnsureDefaultFBOInitedEv
eGh:_GC_try_to_collect_general
Vua:__ZN14SafeBinaryRead8TransferIN9ShaderLab16FastPropertyNameEEEvRT_PKc17TransferMetaFlags
T2e:_CryptoConvert_ToCapiPublicKeyBlob_m1931330842
mGb:__ZN10GUITexture17AlignRectToDeviceERK5RectTIfE
WM:__ZN12_GLOBAL__N_116StaticInitializeEPv
h7c:_MonoMethodMessage_get_OutArgCount_m3123660340
LBb:__ZN4gles13UploadTextureEP7ApiGLESR11GLESTexture14GraphicsFormatPKvjiiiij16TextureUsageMode
ONe:_InternalEnumerator_1_System_Collections_IEnumerator_get_Current_m694606607_AdjustorThunk
Vta:__ZNK21FullParameterPreparer16OnPrepareTextureERPKN9ShaderLab6TexEnvERKN20GpuProgramParameters16TextureParameterEj
fhd:_ConstructorBuilder_fixup_m3699998230
SGa:__ZNK13ScreenManager19GetSystemResolutionEv
JQ:__ZN17PersistentManager32LoadRemainingPreallocatedObjectsENS_9LockFlagsE
u$c:_ResourceCacheItem_t51292791_marshal_pinvoke
D0b:__ZN24GenerateTypeTreeTransfer8TransferINSt3__26vectorIN9ShaderLab20SerializedSubProgram13BufferBindingENS1_9allocatorIS5_EEEEEEvRT_PKc17TransferMetaFlags
E7g:_WebRequestUtils_RedirectTo_m55747000
WVh:_glGenQueries__wrapper
Pgb:__ZN8GUIStyle8TransferI19StreamedBinaryWriteILb0EEEEvRT_
wVa:__ZN9Transform25CompleteTransformTransferI17RemapPPtrTransferEEvRT_
_mc:__Z22TransferField_NonArrayI9JSONWrite27Converter_SimpleNativeClassI8GUIStyleEEvRK23StaticTransferFieldInfoR31RuntimeSerializationCommandInfoRT0_
$mf:_UInt16_System_IConvertible_ToDecimal_m1320731319_AdjustorThunk
Vtf:_InvokableCallList_RemoveListener_m1769379719
Lxc:__ZN14PhysicsQuery2D15OverlapPointAllERK8Vector2fRKN10Collider2D13ContactFilterEPKS3_R13dynamic_arrayIPS3_Lj0EE
aT:__ZN17PersistentManager15DestroyFromFileEi
feb:__ZL26Transfer_SimpleNativeClassI24GenerateTypeTreeTransfer10RectOffsetLb1EEvRK29SerializationCommandArgumentsR31RuntimeSerializationCommandInfo
RRd:_SHA384Managed_update_m2910797953
_Dh:_GC_new_kind_inner
gqg:_UnityAction_2_BeginInvoke_m1733258791_gshared
O7b:__ZN13ProduceHelperIN2UI13RectTransformELb0EE7ProduceE10MemLabelId18ObjectCreationMode
JZ:__ZN19CullingGroupManager15InitializeClassEPv
m5g:__ZNK6il2cpp5utils11collections13ArrayValueMapIPK10Il2CppType17Il2CppInteropData26InteropDataToTypeConverterNS_8metadata14Il2CppTypeLessENS8_26Il2CppTypeEqualityComparerEE22LowerBoundFindComparerclERKS6_RKS5_
lbb:__Z22TransferField_NonArrayI14SafeBinaryRead16Converter_StringEvRK23StaticTransferFieldInfoR31RuntimeSerializationCommandInfoRT0_
kbd:_MonoType_GetPropertyImpl_m1327032087
xRc:__ZL51__ManagedRegistrationHelperFunction_DownloadHandlerPv
Aea:__ZN10GameObject5ResetEv
Mbe:_BitArray_CopyTo_m4205938202
KMc:__ZN11UnityEngine7Connect20BasePersistentValues12ToJsonStringERN4core12basic_stringIcNS2_20StringStorageDefaultIcEEEE
V$b:__ZNSt3__26__treeINS_12__value_typeIN4core12basic_stringIcNS2_20StringStorageDefaultIcEEEEiEENS_19__map_value_compareIS6_S7_NS_4lessIS6_EELb1EEENS_9allocatorIS7_EEE14__assign_multiINS_21__tree_const_iteratorIS7_PNS_11__tree_nodeIS7_PvEEiEEEEvT_SM_
vfe:_CompareInfo_Equals_m1257808801
jy:__Z14FMOD_FILE_OpenPKciPjPPvS3_
FGg:__Z79RuntimeInvoker_RaycastHit2D_t2279581989_Vector2_t2156229523_Vector2_t2156229523PFvvEPK10MethodInfoPvPS4_
pxh:__ZN14dense_hash_mapI10KeyWrapperIPcES1_N6il2cpp5utils15PassThroughHashIS1_EENS2_14EqualsComparerINSt3__28equal_toIS1_EEEENS8_9allocatorINS8_4pairIKS2_S1_EEEEEC2EjRKS6_RKSB_
tf:_llvm_pow_f64
O4b:__ZN4File5WriteEPKvj
wY:__ZN13PlayableGraph12PrepareFrameE16PrepareFrameTypedyj21DirectorThreadContext
Dlh:__ZN6il2cpp2vm6Thread12UninitializeEP12Il2CppThread
W_d:_EncoderFallback_get_ExceptionFallback_m3342076075
_Cd:_TlsClientCertificate_SendCertificates_m1965594186
hte:_SortedList_IndexOfKey_m91331983
sU:__ZN12FileAccessor5CloseEv
VXc:_MonoCMethod_GetCustomAttributes_m3823059477
jof:_UInt32_System_IConvertible_ToType_m922356584
Nya:__ZNK12CubemapArray20GetTextureLayerCountEv
GQh:___remdi3
Poe:_StreamReader_Initialize_m3160193871
OPa:__ZN30RuntimeInitializeOnLoadManager15ClassMethodInfo8TransferI24GenerateTypeTreeTransferEEvRT_
aL:__GLOBAL__sub_I_Modules_Profiler_Public_0_cpp
Cjg:_Collection_1_System_Collections_IList_Remove_m3686118478_gshared
kYc:_MonoEventInfo_get_event_info_m583997560
YTd:_SecurityPermission_IsUnrestricted_m3327262311
CO:__ZN10MemoryPool13StaticDestroyEPv
dpf:_UInt64_System_IConvertible_ToType_m4049257834_AdjustorThunk
As:__ZN9Scripting11UnityEngine26AnimatorOverrideController12CleanupProxyEv
cwa:__ZNSt3__27__sort3IRPFbRKNS_4pairIN9ShaderLab16FastPropertyNameEN18UnityPropertySheet11UnityTexEnvEEES8_EPS6_EEjT0_SD_SD_T_
aSd:_SHA512Managed_Initialize_m2527292789
yDb:__ZN11fixed_arrayI13dynamic_arrayIjLj0EELj6EED2Ev
vCf:_RijndaelManagedTransform_get_CanReuseTransform_m2604443164
a$:__ZNSt3__220__half_inplace_mergeINS_4lessIN4core12basic_stringIcNS2_20StringStorageDefaultIcEEEEEEPS6_NS_11__wrap_iterIS8_EESA_EEvT0_SB_T1_SC_T2_T_
fwa:__ZNSt3__227__insertion_sort_incompleteIRPFbRKNS_4pairIN9ShaderLab16FastPropertyNameEN18UnityPropertySheet11UnityTexEnvEEES8_EPS6_EEbT0_SD_T_
I$a:__ZN16MemoryFileSystem11CreateAsDirER13FileEntryData
wFh:_GC_add_smashed
q6d:_BitConverter_PutBytes_m2614286581
IRc:__ZN25UnityWebRequestJavaScript15CreateTransportEv
oKc:__ZN9Scripting11UnityEngine13TreePrototype12CleanupProxyEv
y6d:_Boolean_System_IConvertible_ToByte_m3917074947
xwf:_MonoBehaviour_CancelInvoke_m3252264575
cMh:___errno_location
NZg:_NativeMethodAttribute__ctor_m2749818278
PBc:__ZN21b2ContactsCollideTask7ExecuteEv
R6b:__ZNSt3__227__insertion_sort_incompleteIRNS_6__lessI11KeyframeTplIfES3_EEPS3_EEbT0_S7_T_
yEd:_RecordProtocol_InternalReceiveRecordCallback_m1713318629
Cwb:__ZN13GfxDeviceGLES16CreateDynamicVBOEv
Ghc:__Z42MonoBehaviour_CUSTOM_StartCoroutineManagedP12Il2CppObjectP12Il2CppStringS0_
yzb:__ZN7ApiGLES16DispatchIndirectEjj
c9d:_Char_ToUpper_m3999570441
Esc:__ZN7b2JointC2EPK10b2JointDef
Rja:__ZNSt3__26vectorIN20GpuProgramParameters12UAVParameterENS_9allocatorIS2_EEE6assignIPS2_EENS_9enable_ifIXaasr21__is_forward_iteratorIT_EE5valuesr16is_constructibleIS2_NS_15iterator_traitsIS9_E9referenceEEE5valueEvE4typeES9_S9_
XHa:__ZN13RenderTexture9SetActiveEPS_i11CubemapFaceiNS_14SetActiveFlagsE
Ug:_emscripten_glUseProgram
tkf:_TimeSpan_get_Seconds_m1883479191
xtd:_HMACSHA384__ctor_m82969736
SEa:__ZN6SpriteD2Ev
sX:__ZNSt3__27__sort5IR17CompareInstanceIDPP6ObjectEEjT0_S6_S6_S6_S6_T_
k6e:_Array_InternalArray__ICollection_Contains_TisUInt64_t4134040092_m94895126_gshared
Cxg:__Z63RuntimeInvoker_Void_t1185182177_OpCode_t123070264_RuntimeObjectPFvvEPK10MethodInfoPvPS4_
j4g:__ZNK15dense_hashtableINSt3__24pairIK10KeyWrapperIN6il2cpp5utils13dynamic_arrayIPK10Il2CppTypeLj4EEEEPFvvEEESA_NS3_8metadata19Il2CppSignatureHashEN14dense_hash_mapISA_SD_SG_NSA_14EqualsComparerINSF_22Il2CppSignatureCompareEEENS0_9allocatorISE_EEE9SelectKeyESK_SM_E10test_emptyEj
Cof:_UInt32_ToString_m4293943134
V6c:_DictionaryEnumerator_get_Key_m2423649820
Q3e:_KeyPairPersistence__ProtectMachine_m813172390
He:_JS_SystemInfo_HasFullscreen
wwd:_ARC4Managed__ctor_m2553537404
_7b:__Z27RegisterAllowNameConversionPKcS0_S0_
JKc:__ZN9Scripting11UnityEngine8UIVertex12CleanupProxyEv
stg:__Z74RuntimeInvoker_Decimal_t2948259380_Decimal_t2948259380_Decimal_t2948259380PFvvEPK10MethodInfoPvPS4_
qXh:_glGetUniformBlockIndex__wrapper
KWa:__ZN12HandlerChainD0Ev
cpe:_FileStream__ctor_m3135402178
Ch:_glBindRenderbuffer
Rkg:_Collection_1_System_Collections_IList_Remove_m4145242747_gshared
gse:_StreamWriter_set_AutoFlush_m42112085
cuh:__ZN15dense_hashtableI10KeyWrapperIP18Il2CppGenericClassES3_N6il2cpp8metadata22Il2CppGenericClassHashEN14dense_hash_setIS3_S6_NS3_14EqualsComparerINS5_25Il2CppGenericClassCompareEEENSt3__29allocatorIS3_EEE8IdentityESA_SD_E13set_empty_keyERKS3_
aMc:__ZN22BaseUnityConnectClient24OnSaveFileFromServerDoneERKN4core12basic_stringIcNS0_20StringStorageDefaultIcEEEES6_bi
nRf:__ZL43MethodInfo_t_CustomAttributesCacheGeneratorP21CustomAttributesCache
hia:__ZN19SharedRendererSceneD2Ev
P4b:__ZN4FileD2Ev
vKe:_InternalEnumerator_1_get_Current_m2223614542_gshared
KJc:__Z16GetTLSModuleSpecv
Ttb:__ZN7ApiGLES23GetTextureTargetDefaultE16TextureDimensionj
tAa:__ZN4crnd13prefix_coding14decoder_tables4initEjPKhj
NXd:_String_InternalAllocateStr_m1198086868
yUa:__ZN13dynamic_arrayI20ComputeShaderVariantLj0EE9push_backERKS0_
xeb:__Z26Transfer_UnityEngineObjectI24GenerateTypeTreeTransferLb1EEvRK29SerializationCommandArgumentsR31RuntimeSerializationCommandInfo
qX:__ZL31FindObjectsOfTypeImplementationPN4core8hash_setIP6ObjectNS_4hashIS2_EENSt3__28equal_toIS2_EEEEPKN5Unity4TypeER13dynamic_arrayIS2_Lj0EE
pRh:dynCall_viiiififi
SEh:_GC_signal_mark_stack_overflow
u6d:_Boolean__cctor_m1091629305
J2e:_BlockProcessor_Initialize_m2263257456
fDd:_TlsClientCertificateVerify_getUnsignedBigInteger_m3003216819
z7g:_CertificateHandler_Release_m648790222
qOb:__Z26SendShadowCullingCallbacksRK13CullingOutputRK14ShadowCullDataRK15SharedLightData
_xh:__ZN6il2cpp2gc16GarbageCollector6EnableEv
bag:__ZL59SpriteBone_t303320096_CustomAttributesCacheGenerator_m_NameP21CustomAttributesCache
moe:_Directory_Exists_m1484791558
hi:_emscripten_glDisable
Ihd:_EnumBuilder_HasElementTypeImpl_m3477408451
E4d:_Array_CreateInstance_m2750085942
kAa:__ZN4crnd12crn_unpacker15decode_palettesEv
sH:__ZN11UnityEngine15CloudWebService16SessionContainer18DeleteArchivedFileERKN4core12basic_stringIcNS2_20StringStorageDefaultIcEEEES8_Rb
XSg:_AesManaged_set_KeySize_m1150692274
bEd:_HttpsClientStream_get_TrustFailure_m1151901888
L4a:__ZN13DrawImmediate11TexCoordAllEfff
vug:__Z81RuntimeInvoker_Void_t1185182177_RuntimeObject_Int64_t3736567304_Int64_t3736567304PFvvEPK10MethodInfoPvPS4_
U3d:_Array_System_Collections_IList_Clear_m1278271623
Dbe:_BitArray_getByte_m2467886923
p7f:__ZL68PreferBinarySerialization_t2906007930_CustomAttributesCacheGeneratorP21CustomAttributesCache
Ar:__ZN11UnityEngine9Animation38InitializeGenericAnimationBindingCacheEPv
C0a:__ZN9GfxDevice15SetStereoMatrixE21MonoOrStereoscopicEye24BuiltinShaderMatrixParamRK10Matrix4x4f
Ii:_emscripten_set_touchcancel_callback
Wdd:_NumberFormatter_NumberToString_m567544656
Oi:_emscripten_set_focus_callback
jm:FUNCTION_TABLE_iiiiiii
oPh:__ZNSt3__212basic_stringIcNS_11char_traitsIcEENS_9allocatorIcEEE9__grow_byEjjjjjj
oLh:__ZN6il2cpp6icalls8mscorlib6System10Reflection18MonoGenericCMethod17get_ReflectedTypeEPv
T1c:_ChannelData_CopyFrom_m727830216
T_h:_emscripten_glGetError__wrapper
tng:_U3CCreateWhereIteratorU3Ec__Iterator1D_1_System_Collections_IEnumerable_GetEnumerator_m3813267333_gshared
Dxf:_U3CUnregisterU3Ec__AnonStorey1_U3CU3Em__0_m1122526650
emc:__Z18Transfer_BlittableI9JSONWriteLb0E11ColorRGBA32EvRK29SerializationCommandArgumentsR31RuntimeSerializationCommandInfo
$og:_InvokableCall_1__ctor_m4147324340_gshared
Qte:_Console_OpenStandardOutput_m1257556731
ppe:_FileStream_ReadByte_m2651547500
AAd:_CipherSuiteCollection_get_Item_m2791953484
oSe:_Comparer_1_System_Collections_IComparer_Compare_m664132038_gshared
UNd:_BaseMachine__ctor_m1534760230
BQd:_RSACryptoServiceProvider__ctor_m2378475222
epg:_InvokableCall_1_Invoke_m1920505169_gshared
LKd:_X500DistinguishedName_Canonize_m2594679403
aNe:_InternalEnumerator_1_System_Collections_IEnumerator_get_Current_m1976902927_AdjustorThunk
_Y:__ZNK15PlayableMethods20InvokeBehaviourDelayER18ScriptingObjectPtrRK9HPlayableP18ScriptingFrameData
$Hh:__ZN6il2cpp2os11MutexHandle6SignalEv
XTa:__ZN13MonoBehaviour27WillDestroyScriptableObjectEv
dyb:__ZN13TranslateGLES10InitFormatERK12GraphicsCaps
un:FUNCTION_TABLE_iiiiiifi
sAb:__Z20FindUniformLocationsjjRK20ActiveUniformIndicesR16UniformLocationsi
ZT:__ZNK10FileSystem10ToAbsoluteEPKc
aNg:_PatternCompiler_EmitReference_m2546735804
EMa:__ZNK11TimeManager22GetTypeVirtualInternalEv
Xna:__ZN18StreamedBinaryReadILb0EE10ReadDirectEPvi
fvd:_BigInteger_op_Subtraction_m4245834512
sse:_StreamWriter_Finalize_m1379860857
JX:__ZN13RuntimeStaticIN4core8hash_mapIiiNS0_4hashIiEENSt3__28equal_toIiEEEELb0EE13StaticDestroyEPv
a7a:__ZN11MonoManager23VirtualRedirectTransferER14SafeBinaryRead
e8a:__Z35Transfer_Blittable_FixedBufferFieldI14SafeBinaryReadtEvRK29SerializationCommandArgumentsR31RuntimeSerializationCommandInfo
v4b:__ZN23SharedMeshRenderingData25CreateOrUpdateIndexBufferERK13GfxBufferDescPKv20GfxUpdateBufferFlags
TZh:_emscripten_glActiveTexture__wrapper
F0a:__ZN9GfxDevice21SetStereoScissorRectsEPK5RectTIiE
Fwd:_ARC4Managed_CreateDecryptor_m1966583816
VTh:_glEndTransformFeedback__wrapper
e8c:_SynchronizedWriter_Write_m169417751
lIb:__ZN14RenderSettings13CalcFogFactorEff
awd:_ASN1__ctor_m1638893325
VA:__ZN9AudioClip13AwakeFromLoadE17AwakeFromLoadMode
ODh:_GC_unix_sbrk_get_mem
Wwc:__ZN16b2PolygonContact8EvaluateEP10b2ManifoldRK11b2TransformS4_
Lqa:__ZN18JobBatchDispatcher8KickJobsEv
Tcf:_Array_InternalArray__set_Item_TisMonoResource_t4103430009_m3222650182_gshared
uJh:__ZN6il2cpp2os9FastMutexC2Ev
GJa:__ZN16SpriteRenderData19UnloadRenderingDataEv
$He:_ArrayReadOnlyList_1_Insert_m1827843425_gshared
aeg:_Enumerator_System_Collections_IEnumerator_get_Current_m472556657_AdjustorThunk
A6d:_Boolean_System_IConvertible_ToChar_m4279513009
Et:__ZN15SerializeTraitsI13dynamic_arrayI11KeyframeTplIfELj0EEE19ResizeSTLStyleArrayERS3_i
Nve:_Convert_ToDateTime_m228494645
pff:_Latin1Encoding_GetMaxByteCount_m1284135491
jie:_RegionInfo_Equals_m2499055654
PCb:__ZN10BufferGLES8EndWriteEj
Ref:_Array_InternalArray__get_Item_TisUriScheme_t722425697_m2816273040_gshared
lia:__ZN15RenderNodeQueueD2Ev
Yuc:__ZN12b2BroadPhase9MoveProxyEiRK6b2AABBRK6b2Vec2
Sgf:_UTF7Encoding__ctor_m3592291633
Llg:_ReadOnlyCollection_1_IndexOf_m427809401_gshared
BLb:__ZN14qsort_internal13InsertionSortIP18RPDataMotionVectorN22MotionVectorRenderLoop18RenderObjectSorterEEEvT_S5_T0_
s8e:_Array_BinarySearch_TisRuntimeObject_m3933462998_gshared
wgc:__Z22PropertyNameFromStringRKP12Il2CppString
MOg:_Regex_CreateMachine_m334863819
k_b:__ZN14SafeBinaryRead21TransferSTLStyleArrayINSt3__26vectorIN9ShaderLab20SerializedSubProgram15VectorParameterENS1_9allocatorIS5_EEEEEEvRT_17TransferMetaFlags
xdh:__ZN15dense_hashtableINSt3__24pairIK10KeyWrapperINS1_IPK10MethodInfoP11Il2CppClassEEEjEES9_17ReflectionMapHashIS8_EN14dense_hash_mapIS9_jSD_NS9_14EqualsComparerINS0_8equal_toIS8_EEEENS0_9allocatorISB_EEE9SelectKeyESI_SK_E12resize_deltaEjj
n4b:__Z13TransformAABBRK4AABBRK10Matrix4x4fRS_
